MPASM  5.42                               A.S   1-19-2018  22:31:09         PAGE  1


LOC  OBJECT CODE     LINE SOURCE TEXT
  VALUE


                      00002         list
                      00003 ;{
                      00004 ;FILE F1 = C:\USERS\ANTOR\GOOGLE~1\EMBEDD~1\OTHERS\2HUMID~1\FIRMWA~1\2HUM2TMP.bas
                      00005 ;FILE F2 = C:\USERS\ANTOR\GOOGLE~1\EMBEDD~1\OTHERS\2HUMID~1\FIRMWA~1\2HUM2TMP.PRP
                      00006 ;FILE F3 = C:\USERS\ANTOR\GOOGLE DRIVE\EMBEDDED PROJECTS\OTHERS\2 HUMIDITY 2 TEMP\FIRMWAREBASIC\DHT11.IN
                            C
                      00007 ;}
                      00008 ;[Variable Listing]
                      00009 ;tmp1,0052,DT_WORD,2
                      00010 ;tmp2,0054,DT_WORD,2
                      00011 ;tmp1_alart_l,0056,DT_BYTE,1
                      00012 ;tmp2_alart_l,0057,DT_BYTE,1
                      00013 ;hum1_alart_l,0058,DT_BYTE,1
                      00014 ;hum2_alart_l,0059,DT_BYTE,1
                      00015 ;mm,005A,DT_WORD,2
                      00016 ;ss,005C,DT_BYTE,1
                      00017 ;cnt,005D,DT_BYTE,1
                      00018 ;t_flag,005E,DT_BYTE,1
                      00019 ;dht,0060,DT_BYTE,32
                      00020 ;haut,00A0,DT_BYTE,1
                      00021 ;bas,00A1,DT_BYTE,1
                      00022 ;temp1,00A2,DT_BYTE,1
                      00023 ;humidity1,00A3,DT_BYTE,1
                      00024 ;temp2,00A4,DT_BYTE,1
                      00025 ;humidity2,00A5,DT_BYTE,1
                      00026 ;X,00A6,DT_BYTE,1
                      00027 ;TMR2IE,008C.1,DT_BIT
                      00028 ;TMR2IF,000C.1,DT_BIT
                      00029 ;buzzer,0007.6,DT_BIT
                      00030 ;up_key,0006.1,DT_BIT
                      00031 ;set_key,0006.0,DT_BIT
                      00032 ;down_key,0007.7,DT_BIT
                      00033 ;tmp1_rly,0007.0,DT_BIT
                      00034 ;tmp2_rly,0007.1,DT_BIT
                      00035 ;hum1_rly,0007.2,DT_BIT
                      00036 ;hum2_rly,0007.3,DT_BIT
                      00037 ;tmr_rly1,0007.4,DT_BIT
                      00038 ;tmr_rly2,0007.5,DT_BIT
                      00039 ;sec_f,005F.0,DT_BIT
                      00040 ;alarm_f,005F.1,DT_BIT
                      00041 ;DHT11_pin1,0005.2,DT_BIT
                      00042 ;DHT11_dir1,0085.2,DT_BIT
                      00043 ;DHT11_pin2,0005.5,DT_BIT
                      00044 ;DHT11_dir2,0085.5,DT_BIT
                      00045 ;[End Listing]
                      00046 ;[TOTAL VARS] 103

                      00048 #define CONFIG_REQ 1
MESSAGE[308]: WARNING LEVEL SUPERSEDED BY COMMAND LINE VALUE. (2)
                      00049  LIST  P = 16F876A, F = INHX8M, W = 2, X = ON, R = DEC, MM = ON, N = 0, C = 255
  00000000            00050 INDF equ 0X0000
  00000001            00051 TMR0 equ 0X0001
  00000002            00052 PCL equ 0X0002
  00000003            00053 STATUS equ 0X0003
  00000004            00054 FSR equ 0X0004
  00000005            00055 PORTA equ 0X0005
  00000006            00056 PORTB equ 0X0006
  00000007            00057 PORTC equ 0X0007
  0000000A            00058 PCLATH equ 0X000A
  0000000B            00059 INTCON equ 0X000B
  0000000C            00060 PIR1 equ 0X000C
  0000000D            00061 PIR2 equ 0X000D
  0000000E            00062 TMR1L equ 0X000E
  0000000F            00063 TMR1LH equ 0X000F
  0000000F            00064 TMR1H equ 0X000F
  00000010            00065 T1CON equ 0X0010
  00000011            00066 TMR2 equ 0X0011
  00000012            00067 T2CON equ 0X0012
  00000013            00068 SSPBUF equ 0X0013
  00000014            00069 SSPCON equ 0X0014
  00000015            00070 CCPR1L equ 0X0015
  00000016            00071 CCPR1LH equ 0X0016
  00000016            00072 CCPR1H equ 0X0016
  00000017            00073 CCP1CON equ 0X0017
  00000018            00074 RCSTA equ 0X0018
  00000019            00075 TXREG equ 0X0019
  0000001A            00076 RCREG equ 0X001A
  0000001B            00077 CCPR2L equ 0X001B
  0000001C            00078 CCPR2LH equ 0X001C
  0000001C            00079 CCPR2H equ 0X001C
  0000001D            00080 CCP2CON equ 0X001D
  0000001E            00081 ADRESLH equ 0X001E
  0000001E            00082 ADRESH equ 0X001E
  0000001F            00083 ADCON0 equ 0X001F
  00000081            00084 OPTION_REG equ 0X0081
  00000085            00085 TRISA equ 0X0085
  00000086            00086 TRISB equ 0X0086
  00000087            00087 TRISC equ 0X0087
  0000008C            00088 PIE1 equ 0X008C
  0000008D            00089 PIE2 equ 0X008D
  0000008E            00090 PCON equ 0X008E
  00000091            00091 SSPCON2 equ 0X0091
  00000092            00092 PR2 equ 0X0092
  00000093            00093 SSPADD equ 0X0093
  00000094            00094 SSPSTAT equ 0X0094
  00000098            00095 TXSTA equ 0X0098
  00000099            00096 SPBRG equ 0X0099
  0000009C            00097 CMCON equ 0X009C
  0000009D            00098 CVRCON equ 0X009D
  0000009E            00099 ADRESL equ 0X009E
  0000009F            00100 ADCON1 equ 0X009F
  0000010C            00101 EEDATL equ 0X010C
  0000010C            00102 EEDATA equ 0X010C
  0000010C            00103 EEDAT equ 0X010C
  0000010D            00104 EEADR equ 0X010D
  0000010E            00105 EEDATLH equ 0X010E
  0000010E            00106 EEDATH equ 0X010E
  0000010F            00107 EEADRH equ 0X010F
  0000018C            00108 EECON1 equ 0X018C
  0000018D            00109 EECON2 equ 0X018D
  00000087            00110 _I2C_SCL_PORT=TRISC
  00000003            00111 _I2C_SCL_PIN=3
  00000087            00112 _I2C_SDA_PORT=TRISC
  00000004            00113 _I2C_SDA_PIN=4
  00000007            00114 IRP=7
  00000006            00115 RP1=6
  00000005            00116 RP0=5
  00000004            00117 NOT_TO=4
  00000003            00118 NOT_PD=3
  00000002            00119 Z=2
  00000001            00120 DC=1
  00000000            00121 C=0
  00000007            00122 GIE=7
  00000006            00123 PEIE=6
  00000005            00124 T0IE=5
  00000005            00125 TMR0IE=5
  00000004            00126 INTE=4
  00000003            00127 RBIE=3
  00000002            00128 T0IF=2
  00000002            00129 TMR0IF=2
  00000001            00130 INTF=1
  00000000            00131 RBIF=0
  00000006            00132 ADIF=6
  00000005            00133 RCIF=5
  00000005            00134 PP_RCIF=5
  00000004            00135 TXIF=4
  00000004            00136 PP_TXIF=4
  00000003            00137 SSPIF=3
  00000002            00138 CCP1IF=2
  00000001            00139 TMR2IF=1
  00000000            00140 TMR1IF=0
  00000006            00141 CMIF=6
  00000004            00142 EEIF=4
  00000003            00143 BCLIF=3
  00000000            00144 CCP2IF=0
  00000005            00145 T1CKPS1=5
  00000004            00146 T1CKPS0=4
  00000003            00147 T1OSCEN=3
  00000002            00148 NOT_T1SYNC=2
  00000002            00149 T1INSYNC=2
  00000002            00150 T1SYNC=2
  00000001            00151 TMR1CS=1
  00000000            00152 TMR1ON=0
  00000006            00153 TOUTPS3=6
  00000005            00154 TOUTPS2=5
  00000004            00155 TOUTPS1=4
  00000003            00156 TOUTPS0=3
  00000002            00157 TMR2ON=2
  00000002            00158 PP_TMR2ON=2
  00000001            00159 T2CKPS1=1
  00000001            00160 PP_T2CKPS1=1
  00000000            00161 T2CKPS0=0
  00000000            00162 PP_T2CKPS0=0
  00000007            00163 WCOL=7
  00000006            00164 SSPOV=6
  00000005            00165 SSPEN=5
  00000004            00166 CKP=4
  00000003            00167 SSPM3=3
  00000002            00168 SSPM2=2
  00000001            00169 SSPM1=1
  00000000            00170 SSPM0=0
  00000005            00171 CCP1X=5
  00000004            00172 CCP1Y=4
  00000003            00173 CCP1M3=3
  00000002            00174 CCP1M2=2
  00000001            00175 CCP1M1=1
  00000000            00176 CCP1M0=0
  00000007            00177 SPEN=7
  00000006            00178 RX9=6
  00000006            00179 RC9=6
  00000006            00180 NOT_RC8=6
  00000006            00181 RC8_9=6
  00000005            00182 SREN=5
  00000004            00183 CREN=4
  00000004            00184 PP_CREN=4
  00000003            00185 ADDEN=3
  00000002            00186 FERR=2
  00000001            00187 OERR=1
  00000001            00188 PP_OERR=1
  00000000            00189 RX9D=0
  00000000            00190 RCD8=0
  00000005            00191 CCP2X=5
  00000004            00192 CCP2Y=4
  00000003            00193 CCP2M3=3
  00000002            00194 CCP2M2=2
  00000001            00195 CCP2M1=1
  00000000            00196 CCP2M0=0
  00000007            00197 ADCS1=7
  00000006            00198 ADCS0=6
  00000005            00199 CHS2=5
  00000004            00200 CHS1=4
  00000003            00201 CHS0=3
  00000002            00202 GO=2
  00000002            00203 NOT_DONE=2
  00000002            00204 GO_DONE=2
  00000002            00205 PP_GO_DONE=2
  00000000            00206 ADON=0
  00000007            00207 NOT_RBPU=7
  00000006            00208 INTEDG=6
  00000005            00209 T0CS=5
  00000004            00210 T0SE=4
  00000003            00211 PSA=3
  00000002            00212 PS2=2
  00000001            00213 PS1=1
  00000000            00214 PS0=0
  00000006            00215 ADIE=6
  00000005            00216 RCIE=5
  00000004            00217 TXIE=4
  00000003            00218 SSPIE=3
  00000002            00219 CCP1IE=2
  00000001            00220 TMR2IE=1
  00000000            00221 TMR1IE=0
  00000006            00222 CMIE=6
  00000004            00223 EEIE=4
  00000003            00224 BCLIE=3
  00000000            00225 CCP2IE=0
  00000001            00226 NOT_POR=1
  00000000            00227 NOT_BO=0
  00000000            00228 NOT_BOR=0
  00000007            00229 GCEN=7
  00000006            00230 ACKSTAT=6
  00000006            00231 PP_ACKSTAT=6
  00000005            00232 ACKDT=5
  00000005            00233 PP_ACKDT=5
  00000004            00234 ACKEN=4
  00000004            00235 PP_ACKEN=4
  00000003            00236 RCEN=3
  00000003            00237 PP_RCEN=3
  00000002            00238 PEN=2
  00000002            00239 PP_PEN=2
  00000001            00240 RSEN=1
  00000001            00241 PP_RSEN=1
  00000000            00242 SEN=0
  00000000            00243 PP_SEN=0
  00000007            00244 SMP=7
  00000006            00245 CKE=6
  00000005            00246 I2C_DATA=5
  00000005            00247 NOT_A=5
  00000005            00248 NOT_ADDRESS=5
  00000005            00249 D_A=5
  00000005            00250 DATA_ADDRESS=5
  00000004            00251 I2C_STOP=4
  00000003            00252 I2C_START=3
  00000002            00253 I2C_READ=2
  00000002            00254 NOT_W=2
  00000002            00255 NOT_WRITE=2
  00000002            00256 R_W=2
  00000002            00257 PP_R_W=2
  00000002            00258 READ_WRITE=2
  00000001            00259 UA=1
  00000000            00260 BF=0
  00000000            00261 PP_BF=0
  00000007            00262 CSRC=7
  00000006            00263 TX9=6
  00000006            00264 NOT_TX8=6
  00000006            00265 TX8_9=6
  00000005            00266 TXEN=5
  00000004            00267 SYNC=4
  00000002            00268 BRGH=2
  00000001            00269 TRMT=1
  00000000            00270 TX9D=0
  00000000            00271 TXD8=0
  00000007            00272 C2OUT=7
  00000006            00273 C1OUT=6
  00000005            00274 C2INV=5
  00000004            00275 C1INV=4
  00000003            00276 CIS=3
  00000002            00277 CM2=2
  00000001            00278 CM1=1
  00000000            00279 CM0=0
  00000007            00280 CVREN=7
  00000006            00281 CVROE=6
  00000005            00282 CVRR=5
  00000003            00283 CVR3=3
  00000002            00284 CVR2=2
  00000001            00285 CVR1=1
  00000000            00286 CVR0=0
  00000007            00287 ADFM=7
  00000006            00288 ADCS2=6
  00000003            00289 PCFG3=3
  00000002            00290 PCFG2=2
  00000001            00291 PCFG1=1
  00000000            00292 PCFG0=0
  00000007            00293 EEPGD=7
  00000007            00294 PP_EEPGD=7
  00000003            00295 WRERR=3
  00000003            00296 PP_WRERR=3
  00000002            00297 WREN=2
  00000002            00298 PP_WREN=2
  00000001            00299 WR=1
  00000001            00300 PP_WR=1
  00000000            00301 RD=0
  00000000            00302 PP_RD=0
  000001FF            00303   __MAXRAM 0X1FF
                      00304   __BADRAM 0X8F-0X90, 0X95-0X97, 0X9A-0X9B
                      00305   __BADRAM 0X105, 0X107-0X109
                      00306   __BADRAM 0X185, 0X187-0X189, 0X18E-0X18F
  00001FFF            00307 CP_ALL equ 0X1FFF
  00003FFF            00308 CP_OFF equ 0X3FFF
  00003FFF            00309 DEBUG_OFF equ 0X3FFF
  000037FF            00310 DEBUG_ON equ 0X37FF
  00003BFF            00311 WRT_1FOURTH equ 0X3BFF
  00003FFF            00312 CPD_OFF equ 0X3FFF
  00003EFF            00313 CPD_ON equ 0X3EFF
  00003FFF            00314 LVP_ON equ 0X3FFF
  00003F7F            00315 LVP_OFF equ 0X3F7F
  00003FFF            00316 BODEN_ON equ 0X3FFF
  00003FBF            00317 BODEN_OFF equ 0X3FBF
  00003FFF            00318 PWRTE_OFF equ 0X3FFF
  00003FF7            00319 PWRTE_ON equ 0X3FF7
  00003FFF            00320 WDT_ON equ 0X3FFF
  00003FFB            00321 WDT_OFF equ 0X3FFB
  00003FFF            00322 RC_OSC equ 0X3FFF
  00003FFE            00323 HS_OSC equ 0X3FFE
  00003FFD            00324 XT_OSC equ 0X3FFD
  00003FFC            00325 LP_OSC equ 0X3FFC
  00003FBF            00326 BOREN_OFF equ 0X3FBF
  00003FFF            00327 BOREN_ON equ 0X3FFF
  00001FFF            00328 CP_ON equ 0X1FFF
  00003FFF            00329 FOSC_EXTRC equ 0X3FFF
  00003FFE            00330 FOSC_HS equ 0X3FFE
  00003FFC            00331 FOSC_LP equ 0X3FFC
  00003FFD            00332 FOSC_XT equ 0X3FFD
  00003FFB            00333 WDTE_OFF equ 0X3FFB
  00003FFF            00334 WDTE_ON equ 0X3FFF
  00003BFF            00335 WRT_1FOURTH equ 0X3BFF
  00003DFF            00336 WRT_256 equ 0X3DFF
  000039FF            00337 WRT_HALF equ 0X39FF
  00003FFF            00338 WRT_OFF equ 0X3FFF

                      00342 #define __16F876A 1
                      00343 #define XTAL 8
                      00344 #define _CORE 14
                      00345 #define _MAXRAM 368
                      00346 #define _RAM_END 0X0170
                      00347 #define _MAXMEM 8192
                      00348 #define _ADC 5
                      00349 #define _ADC_RES 10
                      00350 #define _EEPROM 256
                      00351 #define _PAGES 4
                      00352 #define _BANKS 3
                      00353 #define RAM_BANKS 4
                      00354 #define _USART 1
                      00355 #define _USB 0
                      00356 #define _FLASH 1
                      00357 #define _CWRITE_BLOCK 8
                      00358 #define BANK0_START 0X20
                      00359 #define BANK0_END 0X7F
                      00360 #define BANK1_START 0X00A0
                      00361 #define BANK1_END 0X00EF
                      00362 #define BANK2_START 0X0110
                      00363 #define BANK2_END 0X016F
                      00364 #define BANK3_START 0X0190
                      00365 #define BANK3_END 0X01EF
                      00366 #define _SYSTEM_VARIABLE_COUNT 50
  00000000            00367 ram_bank = 0
  00000000            00368 CURRENT@PAGE = 0
  00000000            00369 DEST@PAGE = 0
                      00370 #define LCD#DTPORT PORTB
                      00371 #define LCD#DTPIN 4
                      00372 #define LCD#RSPORT PORTB
                      00373 #define LCD#RSPIN 2
                      00374 #define LCD#ENPORT PORTB
                      00375 #define LCD#ENPIN 3
                      00376 #define LCD#INTERFACE 4
                      00377 #define LCD#TYPE 0
                      00379 f@call macro PDEST
                      00380 if(PDEST < 1)
                      00381 if((PDEST & 2048) == 0)
                      00382         bcf 10,3
                      00383 else
                      00384         bsf 10,3
                      00385 endif
                      00386 if((PDEST & 4096) == 0)
                      00387         bcf 10,4
                      00388 else
                      00389         bsf 10,4
                      00390 endif
                      00391 else
                      00392 if(PDEST > $)
                      00393 if((PDEST & 2048) == 0)
                      00394         bcf 10,3
                      00395 else
                      00396         bsf 10,3
                      00397 endif
                      00398 if((PDEST & 4096) == 0)
                      00399         bcf 10,4
                      00400 else
                      00401         bsf 10,4
                      00402 endif
                      00403 else
                      00404 if((PDEST & 6144) == 0)
                      00405         clrf 10
                      00406 else
                      00407 if((PDEST & 2048) == 0)
                      00408         bcf 10,3
                      00409 else
                      00410         bsf 10,3
                      00411 endif
                      00412 if((PDEST & 4096) == 0)
                      00413         bcf 10,4
                      00414 else
                      00415         bsf 10,4
                      00416 endif
                      00417 endif
                      00418 endif
                      00419 endif
                      00420         call PDEST
                      00421         endm
                      00422 F@JUMP macro PDEST
                      00423 if(PDEST < 1)
                      00424 if((PDEST & 2048) == 0)
                      00425         bcf 10,3
                      00426 else
                      00427         bsf 10,3
                      00428 endif
                      00429 if((PDEST & 4096) == 0)
                      00430         bcf 10,4
                      00431 else
                      00432         bsf 10,4
                      00433 endif
                      00434 else
                      00435 if(PDEST > $)
                      00436 if((PDEST & 2048) == 0)
                      00437         bcf 10,3
                      00438 else
                      00439         bsf 10,3
                      00440 endif
                      00441 if((PDEST & 4096) == 0)
                      00442         bcf 10,4
                      00443 else
                      00444         bsf 10,4
                      00445 endif
                      00446 else
                      00447 if((PDEST & 6144) == 0)
                      00448         clrf 10
                      00449 else
                      00450 if((PDEST & 2048) == 0)
                      00451         bcf 10,3
                      00452 else
                      00453         bsf 10,3
                      00454 endif
                      00455 if((PDEST & 4096) == 0)
                      00456         bcf 10,4
                      00457 else
                      00458         bsf 10,4
                      00459 endif
                      00460 endif
                      00461 endif
                      00462 endif
                      00463         goto PDEST
                      00464         endm
                      00465 set@page macro PDEST
                      00466 if((PDEST & 2048) == 0)
                      00467         bcf 10,3
                      00468 else
                      00469         bsf 10,3
                      00470 endif
                      00471 if((PDEST & 4096) == 0)
                      00472         bcf 10,4
                      00473 else
                      00474         bsf 10,4
                      00475 endif
                      00476         endm
                      00477 s@b     macro pVarin
                      00478 if((pVarin & 384) == 0)
                      00479 if(ram_bank == 1)
                      00480         bcf 3,5
                      00481 endif
                      00482 if(ram_bank == 2)
                      00483         bcf 3,6
                      00484 endif
                      00485 if(ram_bank == 3)
                      00486         bcf 3,5
                      00487         bcf 3,6
                      00488 endif
                      00489 ram_bank = 0
                      00490 endif
                      00491 if((pVarin & 384) == 128)
                      00492 if(ram_bank == 0)
                      00493         bsf 3,5
                      00494 endif
                      00495 if(ram_bank == 2)
                      00496         bsf 3,5
                      00497         bcf 3,6
                      00498 endif
                      00499 if(ram_bank == 3)
                      00500         bcf 3,6
                      00501 endif
                      00502 ram_bank = 1
                      00503 endif
                      00504 if((pVarin & 384) == 256)
                      00505 if(ram_bank == 0)
                      00506         bsf 3,6
                      00507 endif
                      00508 if(ram_bank == 1)
                      00509         bcf 3,5
                      00510         bsf 3,6
                      00511 endif
                      00512 if(ram_bank == 3)
                      00513         bcf 3,5
                      00514 endif
                      00515 ram_bank = 2
                      00516 endif
                      00517 if((pVarin & 384) == 384)
                      00518 if(ram_bank == 0)
                      00519         bsf 3,5
                      00520         bsf 3,6
                      00521 endif
                      00522 if(ram_bank == 1)
                      00523         bsf 3,6
                      00524 endif
                      00525 if(ram_bank == 2)
                      00526         bsf 3,5
                      00527 endif
                      00528 ram_bank = 3
                      00529 endif
                      00530         endm
                      00531 r@b     macro
                      00532 if((ram_bank & 1) != 0)
                      00533         bcf 3,5
                      00534 endif
                      00535 if((ram_bank & 2) != 0)
                      00536         bcf 3,6
                      00537 endif
                      00538 ram_bank = 0
                      00539         endm
                      00540 jump macro PLABEL
                      00541     goto PLABEL
                      00542     endm
                      00543 wreg_byte macro pByteOut
                      00544     s@b pByteOut
                      00545     movwf pByteOut
                      00546     r@b
                      00547     endm
                      00548 wreg_bit macro pVarOut,pBitout
                      00549     s@b pVarOut
                      00550     andlw 1
                      00551     btfsc STATUS,2
                      00552     bcf pVarOut,pBitout
                      00553     btfss STATUS,2
                      00554     bsf pVarOut,pBitout
                      00555     r@b
                      00556     endm
                      00557 wreg_word macro pWordOut
                      00558     s@b pWordOut
                      00559     movwf pWordOut
                      00560     s@b pWordOut+1
                      00561     clrf pWordOut+1
                      00562     r@b
                      00563     endm
                      00564 wreg_dword macro pDwordOut
                      00565     s@b pDwordOut+3
                      00566     clrf pDwordOut+3
                      00567     s@b pDwordOut+2
                      00568     clrf pDwordOut+2
                      00569     s@b pDwordOut+1
                      00570     clrf pDwordOut+1
                      00571     s@b pDwordOut
                      00572     movwf pDwordOut
                      00573     r@b
                      00574     endm
                      00575 byte_wreg macro pByteIn
                      00576     s@b pByteIn
                      00577     movf pByteIn,W
                      00578     r@b
                      00579     endm
                      00580 num_wreg macro pNumIn
                      00581     movlw (pNumIn & 255)
                      00582     endm
                      00583 num_byte macro pNumIn,pByteOut
                      00584     s@b pByteOut
                      00585 if(pNumIn == 0)
                      00586     clrf pByteOut
                      00587 else
                      00588     movlw (pNumIn & 255)
                      00589     movwf pByteOut
                      00590 endif
                      00591     r@b
                      00592     endm
                      00593 num_bit macro pNumIn,pVarOut,pBitout
                      00594     s@b pVarOut
                      00595 if((pNumIn & 1) == 1)
                      00596     bsf pVarOut,pBitout
                      00597 else
                      00598     bcf pVarOut,pBitout
                      00599 endif
                      00600     r@b
                      00601     endm
                      00602 num_word macro pNumIn,pWordOut
                      00603 if((pNumIn & 255) == 0)
                      00604     s@b pWordOut
                      00605     clrf pWordOut
                      00606 else
                      00607     s@b pWordOut
                      00608     movlw low (pNumIn)
                      00609     movwf pWordOut
                      00610 endif
                      00611 if(((pNumIn >> 8) & 255) == 0)
                      00612     s@b pWordOut+1
                      00613     clrf pWordOut+1
                      00614 else
                      00615     s@b pWordOut+1
                      00616     movlw high (pNumIn)
                      00617     movwf pWordOut+1
                      00618 endif
                      00619     r@b
                      00620     endm
                      00621 num_dword macro pNumIn,pDwordOut
                      00622 if ((pNumIn >> 24 & 255) == 0)
                      00623     s@b pDwordOut+3
                      00624     clrf pDwordOut+3
                      00625 else
                      00626     s@b pDwordOut+3
                      00627     movlw ((pNumIn >> 24) & 255)
                      00628     movwf pDwordOut+3
                      00629 endif
                      00630 if( ((pNumIn >> 16) & 255) == 0)
                      00631     s@b pDwordOut+2
                      00632     clrf pDwordOut+2
                      00633 else
                      00634     s@b pDwordOut+2
                      00635     movlw ((pNumIn >> 16) & 255)
                      00636     movwf pDwordOut+2
                      00637 endif
                      00638 if( ((pNumIn >> 8) & 255) == 0)
                      00639     s@b pDwordOut+1
                      00640     clrf pDwordOut+1
                      00641 else
                      00642     s@b pDwordOut+1
                      00643     movlw high (pNumIn)
                      00644     movwf pDwordOut+1
                      00645 endif
                      00646 if((pNumIn & 255) == 0)
                      00647     s@b pDwordOut
                      00648     clrf pDwordOut
                      00649 else
                      00650     s@b pDwordOut
                      00651     movlw low (pNumIn)
                      00652     movwf pDwordOut
                      00653 endif
                      00654     r@b
                      00655     endm
                      00656 bit_wreg macro pVarin,pBitIn
                      00657     s@b pVarin
                      00658     clrw
                      00659     btfsc pVarin,pBitIn
                      00660     movlw 1
                      00661     r@b
                      00662     endm
                      00663 bit_byte macro pVarin,pBitIn,pByteOut
                      00664     s@b pVarin
                      00665     clrw
                      00666     btfsc pVarin,pBitIn
                      00667     movlw 1
                      00668     s@b pByteOut
                      00669     movwf pByteOut
                      00670     r@b
                      00671     endm
                      00672 bit_bit macro pVarin,pBitIn,pVarOut,pBitout
                      00673 if((pVarin & 65408) == (pVarOut & 65408))
                      00674     s@b pVarOut
                      00675     btfsc pVarin,pBitIn
                      00676     bsf pVarOut,pBitout
                      00677     btfss pVarin,pBitIn
                      00678     bcf pVarOut,pBitout
                      00679 else
                      00680     s@b pVarin
                      00681     clrdc
                      00682     btfsc pVarin,pBitIn
                      00683     setdc
                      00684     s@b pVarOut
                      00685     skpndc
                      00686     bsf pVarOut,pBitout
                      00687     skpdc
                      00688     bcf pVarOut,pBitout
                      00689 endif
                      00690     endm
                      00691 bit_word macro pVarin,pBitIn,pWordOut
                      00692     s@b pWordOut+1
                      00693     clrf pWordOut+1
                      00694     bit_byte pVarin,pBitIn,pWordOut
                      00695     endm
                      00696 bit_dword macro pVarin,pBitIn,pDwordOut
                      00697     s@b pDwordOut+3
                      00698     clrf pDwordOut+3
                      00699     s@b pDwordOut+2
                      00700     clrf pDwordOut+2
                      00701     s@b pDwordOut+1
                      00702     clrf pDwordOut+1
                      00703     bit_byte pVarin,pBitIn,pDwordOut
                      00704     endm
                      00705 word_wreg macro pWordIn
                      00706     byte_wreg pWordIn
                      00707     endm
                      00708 word_byte macro pWordIn,pByteOut
                      00709     byte_byte pWordIn,pByteOut
                      00710     endm
                      00711 word_bit macro pWordIn,pVarOut,pBitout
                      00712     byte_bit pWordIn, pVarOut, pBitout
                      00713     endm
                      00714 word_word macro pWordIn,pWordOut
                      00715     s@b pWordIn+1
                      00716     movf pWordIn+1,W
                      00717     s@b pWordOut+1
                      00718     movwf pWordOut+1
                      00719     byte_byte pWordIn,pWordOut
                      00720     endm
                      00721 word_dword macro pWordIn,pDwordOut
                      00722     s@b pDwordOut+3
                      00723     clrf pDwordOut+3
                      00724     s@b pDwordOut+2
                      00725     clrf pDwordOut+2
                      00726     byte_byte pWordIn+1,pDwordOut+1
                      00727     byte_byte pWordIn,pDwordOut
                      00728     endm
                      00729 byte_byte macro pByteIn,pByteOut
                      00730     s@b pByteIn
                      00731     movf pByteIn,W
                      00732     s@b pByteOut
                      00733     movwf pByteOut
                      00734     r@b
                      00735     endm
                      00736 byte_word macro pByteIn,pWordOut
                      00737     s@b pWordOut+1
                      00738     clrf pWordOut+1
                      00739     byte_byte pByteIn,pWordOut
                      00740     endm
                      00741 byte_dword macro pByteIn,pDwordOut
                      00742     s@b pDwordOut+3
                      00743     clrf pDwordOut+3
                      00744     s@b pDwordOut+2
                      00745     clrf pDwordOut+2
                      00746     s@b pDwordOut+1
                      00747     clrf pDwordOut+1
                      00748     byte_byte pByteIn,pDwordOut
                      00749     endm
                      00750     byte_bit macro pByteIn,pVarOut,pBitout
                      00751 if((pByteIn & 65408) == (pVarOut & 65408))
                      00752     s@b pByteIn
                      00753     btfsc pByteIn,0
                      00754     bsf pVarOut,pBitout
                      00755     btfss pByteIn,0
                      00756     bcf pVarOut,pBitout
                      00757 else
                      00758     s@b pByteIn
                      00759     rrf pByteIn,W
                      00760     s@b pVarOut
                      00761     skpnc
                      00762     bsf pVarOut,pBitout
                      00763     skpc
                      00764     bcf pVarOut,pBitout
                      00765 endif
                      00766     r@b
                      00767     endm
                      00768 dword_wreg macro pDwordIn
                      00769     byte_wreg pDwordIn
                      00770     endm
                      00771 dword_byte macro pDwordIn,pByteOut
                      00772     byte_byte pDwordIn,pByteOut
                      00773     endm
                      00774 dword_word macro pDwordIn,pWordOut
                      00775     s@b pDwordIn+1
                      00776     movf pDwordIn+1,W
                      00777     s@b pWordOut+1
                      00778     movwf pWordOut+1
                      00779     byte_byte pDwordIn,pWordOut
                      00780     endm
                      00781 dword_dword macro pDwordIn,pDwordOut
                      00782     byte_byte pDwordIn+3,pDwordOut+3
                      00783     byte_byte pDwordIn+2,pDwordOut+2
                      00784     byte_byte pDwordIn+1,pDwordOut+1
                      00785     byte_byte pDwordIn,pDwordOut
                      00786     endm
                      00787 dword_bit macro pDwordIn,pVarOut,pBitout
                      00788     byte_bit pDwordIn,pVarOut,pBitout
                      00789     endm
  0000                00790 variable CURRENT@PAGE = 0
  0000                00791 variable PDESTINATION@PAGE = 0
                      00792 FIND@PAGE macro pLabelIn
                      00793 local CURRENT_ADDR = $
                      00794 local DEST_ADDR = pLabelIn
                      00795 if((CURRENT_ADDR >= 0X1800) && (CURRENT_ADDR <= 0X2000))
                      00796     CURRENT@PAGE = 3
                      00797 endif
                      00798 if((CURRENT_ADDR >= 0X1000) && (CURRENT_ADDR <= 0X1800))
                      00799     CURRENT@PAGE = 2
                      00800 endif
                      00801 if((CURRENT_ADDR >= 0X0800) && (CURRENT_ADDR <= 0X1000))
                      00802     CURRENT@PAGE = 1
                      00803 endif
                      00804 if((CURRENT_ADDR >= 0) && (CURRENT_ADDR <= 0X0800))
                      00805     CURRENT@PAGE = 0
                      00806 endif
                      00807 if((DEST_ADDR >= 0X1800) && (DEST_ADDR <= 0X2000))
                      00808     PDESTINATION@PAGE = 3
                      00809 endif
                      00810 if((DEST_ADDR >= 0X1000) && (DEST_ADDR <= 0X1800))
                      00811     PDESTINATION@PAGE = 2
                      00812 endif
                      00813 if((DEST_ADDR >= 0X0800) && (DEST_ADDR <= 0X1000))
                      00814     PDESTINATION@PAGE = 1
                      00815 endif
                      00816 if((DEST_ADDR >= 0) && (DEST_ADDR <= 0X0800))
                      00817     PDESTINATION@PAGE = 0
                      00818 endif
                      00819     endm
                      00820 NUM_FSR macro pNumIn
                      00821     num_byte pNumIn, FSR
                      00822 if (((pNumIn >> 8) & 255) == 1)
                      00823     bsf STATUS,7
                      00824 else
                      00825     bcf STATUS,7
                      00826 endif
                      00827     endm
                      00828 label_word macro pLabelIn,pWordOut
                      00829     movlw low (pLabelIn)
                      00830     s@b pWordOut
                      00831     movwf pWordOut
                      00832     movlw high (pLabelIn)
                      00833     s@b pWordOut
                      00834     movwf pWordOut+1
                      00835     r@b
                      00836     endm
  00000020            00839 BPF = 32
  00000021            00840 BPFH = 33
  00000022            00841 CSTR#CT = 34
  00000023            00842 GEN = 35
  00000024            00843 GEN3H = 36
  00000025            00844 GEN4 = 37
  00000026            00845 GEN4H = 38
  00000027            00846 PBP#VAR0 = 39
  00000028            00847 PBP#VAR1 = 40
  00000029            00848 PBP#VAR2 = 41
  0000002A            00849 PBP#VAR3 = 42
  0000002B            00850 PBP#VAR4 = 43
  0000002C            00851 PBP#VAR5 = 44
  0000002D            00852 PBP#VAR6 = 45
  0000002E            00853 PBP#VAR7 = 46
  0000002F            00854 PP0 = 47
  00000030            00855 PP0H = 48
  00000031            00856 PP1 = 49
  00000032            00857 PP1H = 50
  00000033            00858 PP2 = 51
  00000034            00859 PP2H = 52
  00000035            00860 PP3 = 53
  00000036            00861 PP3H = 54
  00000037            00862 PP4 = 55
  00000038            00863 PP5 = 56
  00000039            00864 PP6 = 57
  0000003A            00865 PP6H = 58
  0000003B            00866 PP7 = 59
  0000003C            00867 PP7H = 60
  0000003D            00868 PP7HH = 61
  0000003E            00869 PP7HHH = 62
  0000003F            00870 PP8 = 63
  00000040            00871 PP8H = 64
  00000041            00872 PPZ = 65
  00000042            00873 PPZH = 66
  00000043            00874 PPZHH = 67
  00000044            00875 PP_AARG = 68
  00000045            00876 PP_AARGH = 69
  00000046            00877 PP_AARGHH = 70
  00000047            00878 PP_AARGHHH = 71
  00000048            00879 PP_BARG = 72
  00000049            00880 PP_BARGH = 73
  0000004A            00881 PP_BARGHH = 74
  0000004B            00882 PP_BARGHHH = 75
  0000004C            00883 SP#P9 = 76
  0000004D            00884 _AEXP = 77
  0000004E            00885 _BEXP = 78
  0000004F            00886 _FP_FLAGS = 79
  00000050            00887 _FP_TEMP = 80
  00000051            00888 _SIGN = 81
  00000052            00889 tmp1 = 82
  00000053            00890 tmp1H = 83
  00000054            00891 tmp2 = 84
  00000055            00892 tmp2H = 85
  00000056            00893 tmp1_alart_l = 86
  00000057            00894 tmp2_alart_l = 87
  00000058            00895 hum1_alart_l = 88
  00000059            00896 hum2_alart_l = 89
  0000005A            00897 mm = 90
  0000005B            00898 mmH = 91
  0000005C            00899 ss = 92
  0000005D            00900 cnt = 93
  0000005E            00901 t_flag = 94
  0000005F            00902 _B#VR1 = 95
  00000060            00903 dht = 96
  0060                00904 variable dht#0=96,dht#1=97,dht#2=98,dht#3=99
  0064                00905 variable dht#4=100,dht#5=101,dht#6=102,dht#7=103
  0068                00906 variable dht#8=104,dht#9=105,dht#10=106,dht#11=107
  006C                00907 variable dht#12=108,dht#13=109,dht#14=110,dht#15=111
  0070                00908 variable dht#16=112,dht#17=113,dht#18=114,dht#19=115
  0074                00909 variable dht#20=116,dht#21=117,dht#22=118,dht#23=119
  0078                00910 variable dht#24=120,dht#25=121,dht#26=122,dht#27=123
  007C                00911 variable dht#28=124,dht#29=125,dht#30=126,dht#31=127
  000000A0            00912 haut = 160
  000000A1            00913 bas = 161
  000000A2            00914 temp1 = 162
  000000A3            00915 humidity1 = 163
  000000A4            00916 temp2 = 164
  000000A5            00917 humidity2 = 165
  000000A6            00918 _X = 166
                      00919 #define __LCD_RSPORT PORTB
                      00920 #define __LCD_ENPORT PORTB
                      00921 #define __LCD_DTPORT PORTB
                      00922 #define TMR2IE PIE1,1
                      00923 #define TMR2IF PIR1,1
                      00924 #define buzzer PORTC,6
                      00925 #define up_key PORTB,1
                      00926 #define set_key PORTB,0
                      00927 #define down_key PORTC,7
                      00928 #define tmp1_rly PORTC,0
                      00929 #define tmp2_rly PORTC,1
                      00930 #define hum1_rly PORTC,2
                      00931 #define hum2_rly PORTC,3
                      00932 #define tmr_rly1 PORTC,4
                      00933 #define tmr_rly2 PORTC,5
                      00934 #define sec_f _B#VR1,0
                      00935 #define alarm_f _B#VR1,1
                      00936 #define DHT11_pin1 PORTA,2
                      00937 #define DHT11_dir1 TRISA,2
                      00938 #define DHT11_pin2 PORTA,5
                      00939 #define DHT11_dir2 TRISA,5
                      00940 #define __XTAL 8
                      00941 #define __LCD_RSPIN 2
                      00942 #define __LCD_ENPIN 3
                      00943 #define __LCD_DTPIN 4
                      00944 #define __LCD_INTERFACE 4
0000                  00945 proton#code#start
0000                  00946         org 0
0000   0000           00947         nop
0001   3002           00948         movlw (proton#main#start >> 8) & 255
0002   008A           00949         movwf 10
0003   2A58           00950         goto proton#main#start
0004                  00951         org 4
0004   0008           00952         return
0005                  00953 LCD@CLS
0005   3080           00954         movlw 128
0006   00A1           00955         movwf 33
0007                  00956 CLS
0007   30FE           00957         movlw 254
0008   2095           00958         call CH@SND
0009   3001           00959         movlw 1
000A   2095           00960         call CH@SND
000B   3075           00961         movlw 117
000C   00B0           00962         movwf 48
000D   3030           00963         movlw 48
000E   290C           00964         goto DLUS@W
000F                  00965 LCD@CRS
000F   01A1           00966         clrf 33
0010   17A1           00967         bsf 33,7
0011                  00968 CURS@
0011   00B8           00969         movwf 56
0012   30FE           00970         movlw 254
0013   2095           00971         call CH@SND
0014   0838           00972         movf 56,W
0015   2895           00973         goto CH@SND
0016                  00974 OUT@DECB
0016   01A6           00975         clrf 38
0017                  00976 OUT@DECC
0017   00B3           00977         movwf 51
0018   01B4           00978         clrf 52
0019                  00979 OUT@DEC
0019   11A0           00980         bcf 32,3
001A   0826           00981         movf 38,W
001B   1903           00982         skpnz
001C   15A0           00983         bsf 32,3
001D   3005           00984         movlw 5
001E   00A5           00985         movwf 37
001F   3027           00986         movlw 39
0020   00B2           00987         movwf 50
0021   3010           00988         movlw 16
0022   202F           00989         call D@DIG
0023   3003           00990         movlw 3
0024   00B2           00991         movwf 50
0025   30E8           00992         movlw 232
0026   202F           00993         call D@DIG
0027   01B2           00994         clrf 50
0028   3064           00995         movlw 100
0029   202F           00996         call D@DIG
002A   01B2           00997         clrf 50
002B   300A           00998         movlw 10
002C   202F           00999         call D@DIG
002D   0833           01000         movf 51,W
002E   2836           01001         goto SEND@IT
002F                  01002 D@DIG
002F   00B1           01003         movwf 49
0030   0834           01004         movf 52,W
0031   00B0           01005         movwf 48
0032   0833           01006         movf 51,W
0033   00AF           01007         movwf 47
0034   211F           01008         call D@VD
0035   082F           01009         movf 47,W
0036                  01010 SEND@IT
0036   00AF           01011         movwf 47
0037   03A5           01012         decf 37,F
0038   1903           01013         skpnz
0039   11A0           01014         bcf 32,3
003A   0826           01015         movf 38,W
003B   1903           01016         skpnz
003C   2840           01017         goto $ + 4
003D   0225           01018         subwf 37,W
003E   1803           01019         skpnc
003F   2847           01020         goto EX@SEND@IT
0040   082F           01021         movf 47,W
0041   1D03           01022         skpz
0042   11A0           01023         bcf 32,3
0043   19A0           01024         btfsc 32,3
0044   2847           01025         goto EX@SEND@IT
0045   3E30           01026         addlw 48
0046   2895           01027         goto CH@SND
0047                  01028 EX@SEND@IT
0047   0008           01029         return
0048                  01030 PRINT
0048   00B6           01031         movwf 54
0049   1186           01032         bcf PORTB,3
004A   1106           01033         bcf PORTB,2
004B   1683           01034         bsf 3,5
004C   1186           01035         bcf PORTB,3
004D   1106           01036         bcf PORTB,2
004E   300F           01037         movlw 15
004F   0586           01038         andwf PORTB,F
0050   1283           01039         bcf 3,5
0051   0836           01040         movf 54,W
0052   18A0           01041         btfsc 32,1
0053   2872           01042         goto PRT@1
0054   303E           01043         movlw 62
0055   00B0           01044         movwf 48
0056   3080           01045         movlw 128
0057   210C           01046         call DLUS@W
0058   3033           01047         movlw 51
0059   00B5           01048         movwf 53
005A   2086           01049         call PR@LP
005B   3013           01050         movlw 19
005C   00B0           01051         movwf 48
005D   3088           01052         movlw 136
005E   210C           01053         call DLUS@W
005F   2086           01054         call PR@LP
0060   3064           01055         movlw 100
0061   210B           01056         call DL@US
0062   2086           01057         call PR@LP
0063   3064           01058         movlw 100
0064   210B           01059         call DL@US
0065   3022           01060         movlw 34
0066   00B5           01061         movwf 53
0067   2086           01062         call PR@LP
0068   3028           01063         movlw 40
0069   2071           01064         call PRT@C
006A   300C           01065         movlw 12
006B   2071           01066         call PRT@C
006C   3006           01067         movlw 6
006D   2071           01068         call PRT@C
006E   14A0           01069         bsf 32,1
006F   0836           01070         movf 54,W
0070   2872           01071         goto PRT@1
0071                  01072 PRT@C
0071   1420           01073         bsf 32,0
0072                  01074 PRT@1
0072   00B5           01075         movwf 53
0073   1C20           01076         btfss 32,0
0074   2880           01077         goto PRIT@SKP
0075   1106           01078         bcf PORTB,2
0076   3C03           01079         sublw 3
0077   1C03           01080         skpc
0078   2885           01081         goto PRT@S
0079   2085           01082         call PRT@S
007A   3007           01083         movlw 7
007B   00B0           01084         movwf 48
007C   30D0           01085         movlw 208
007D   210C           01086         call DLUS@W
007E   1403           01087         bsf 3,0
007F   0008           01088         return
0080                  01089 PRIT@SKP
0080   1420           01090         bsf 32,0
0081   3CFE           01091         sublw 254
0082   1903           01092         skpnz
0083   2893           01093         goto PR@EX
0084   1506           01094         bsf PORTB,2
0085                  01095 PRT@S
0085   1C20           01096         btfss 32,0
0086                  01097 PR@LP
0086   1020           01098         bcf 32,0
0087   1586           01099         bsf PORTB,3
0088   300F           01100         movlw 15
0089   0586           01101         andwf PORTB,F
008A   0835           01102         movf 53,W
008B   39F0           01103         andlw 240
008C   0486           01104         iorwf PORTB,F
008D   1186           01105         bcf PORTB,3
008E   0EB5           01106         swapf 53,F
008F   1820           01107         btfsc 32,0
0090   2886           01108         goto PR@LP
0091   3032           01109         movlw 50
0092   210B           01110         call DL@US
0093                  01111 PR@EX
0093   0836           01112         movf 54,W
0094   293B           01113         goto I@NT
0095                  01114 CH@SND
0095   1BA1           01115         btfsc 33,7
0096   2848           01116         goto PRINT
0097   0008           01117         return
0098                  01118 P@IN
0098   00A3           01119         movwf 35
0099   1784           01120         bsf 4,7
009A   0480           01121         iorwf 0,F
009B   1384           01122         bcf 4,7
009C   01B1           01123         clrf 49
009D   1C2F           01124         btfss 47,0
009E   00B1           01125         movwf 49
009F   20A6           01126         call FL@ST
00A0   1903           01127         skpnz
00A1   293B           01128         goto I@NT
00A2   20A6           01129         call FL@ST
00A3   1903           01130         skpnz
00A4   293B           01131         goto I@NT
00A5   28A6           01132         goto FL@ST
00A6                  01133 FL@ST
00A6   0823           01134         movf 35,W
00A7   06B1           01135         xorwf 49,F
00A8   3001           01136         movlw 1
00A9   00AF           01137         movwf 47
00AA   01B0           01138         clrf 48
00AB   0800           01139         movf 0,W
00AC   0523           01140         andwf 35,W
00AD   0631           01141         xorwf 49,W
00AE   1D03           01142         skpz
00AF   0008           01143         return
00B0   0AAF           01144         incf 47,F
00B1   1903           01145         skpnz
00B2   0FB0           01146         incfsz 48,F
00B3   28AB           01147         goto $ - 8
00B4   0008           01148         return
00B5                  01149 EE@RD
00B5   1703           01150         bsf 3,6
00B6   008D           01151         movwf 269
00B7                  01152 EE@RD@W
00B7   1703           01153         bsf 3,6
00B8   1683           01154         bsf 3,5
00B9   138C           01155         bcf 396,PP_EEPGD
00BA   140C           01156         bsf 396,PP_RD
00BB   1283           01157         bcf 3,5
00BC   080C           01158         movf 268,W
00BD   0A8D           01159         incf 269,F
00BE   293B           01160         goto I@NT
00BF                  01161 EE@WR
00BF                  01162 EE@WR@W
00BF   1703           01163         bsf 3,6
00C0   008C           01164         movwf 268
00C1   1683           01165         bsf 3,5
00C2   018C           01166         clrf 396
00C3   150C           01167         bsf 396,PP_WREN
00C4   3055           01168         movlw 85
00C5   008D           01169         movwf 397
00C6   30AA           01170         movlw 170
00C7   008D           01171         movwf 397
00C8   148C           01172         bsf 396,PP_WR
00C9   188C           01173         btfsc 396,PP_WR
00CA   28C9           01174         goto $ - 1
00CB   110C           01175         bcf 396,PP_WREN
00CC   1283           01176         bcf 3,5
00CD   0A8D           01177         incf 269,F
00CE   293B           01178         goto I@NT
00CF                  01179 C@STROUT
00CF   00A5           01180         movwf 37
00D0                  01181 C@STROUTW
00D0   01A2           01182         clrf 34
00D1                  01183 C@STROUTLP
00D1   0825           01184         movf 37,W
00D2   1703           01185         bsf 3,6
00D3   008D           01186         movwf 269
00D4   1303           01187         bcf 3,6
00D5   0826           01188         movf 38,W
00D6   1703           01189         bsf 3,6
00D7   008F           01190         movwf 271
00D8   20E2           01191         call C@READ
00D9   1903           01192         skpnz
00DA   293B           01193         goto I@NT
00DB   2095           01194         call CH@SND
00DC   0AA5           01195         incf 37,F
00DD   1903           01196         skpnz
00DE   0AA6           01197         incf 38,F
00DF   0FA2           01198         incfsz 34,F
00E0   28D1           01199         goto C@STROUTLP
00E1   293B           01200         goto I@NT
00E2                  01201 C@READ
00E2   1683           01202         bsf 3,5
00E3   1703           01203         bsf 3,6
00E4   178C           01204         bsf 396,PP_EEPGD
00E5   140C           01205         bsf 396,PP_RD
00E6   0000           01206         nop
00E7   0000           01207         nop
00E8   1283           01208         bcf 3,5
00E9   080C           01209         movf 268,W
00EA   293B           01210         goto I@NT
  00000032            01211 ADIN_STIME = 50
  00000003            01212 ADIN_TAD = 3
  0000000A            01213 ADIN_RES = 10
00EB                  01214 RD@AD
00EB   00B5           01215         movwf 53
00EC   0DB5           01216         rlf 53,F
00ED   0DB5           01217         rlf 53,F
00EE   0D35           01218         rlf 53,W
00EF   3938           01219         andlw 56
00F0   38C1           01220         iorlw 193
00F1   009F           01221         movwf 31
00F2   3032           01222         movlw 50
00F3   210B           01223         call DL@US
00F4   151F           01224         bsf 31,PP_GO_DONE
00F5   191F           01225         btfsc 31,PP_GO_DONE
00F6   28F5           01226         goto $ - 1
00F7   081E           01227         movf 30,W
00F8   00BC           01228         movwf 60
00F9   1683           01229         bsf 3,5
00FA   081E           01230         movf 158,W
00FB   1283           01231         bcf 3,5
00FC   00BB           01232         movwf 59
00FD   293B           01233         goto I@NT
00FE                  01234 DL@MS
00FE   01B2           01235         clrf 50
00FF                  01236 DLY@W
00FF   00B1           01237         movwf 49
0100                  01238 DLY@P
0100   30FF           01239         movlw 255
0101   07B1           01240         addwf 49,F
0102   1C03           01241         skpc
0103   07B2           01242         addwf 50,F
0104   1C03           01243         skpc
0105   293B           01244         goto I@NT
0106   3003           01245         movlw 3
0107   00B0           01246         movwf 48
0108   30E3           01247         movlw 227
0109   210C           01248         call DLUS@W
010A   2900           01249         goto DLY@P
010B                  01250 DL@US
010B   01B0           01251         clrf 48
010C                  01252 DLUS@W
010C   3EF4           01253         addlw 244
010D   00AF           01254         movwf 47
010E   09B0           01255         comf 48,F
010F   30FE           01256         movlw 254
0110   1C03           01257         skpc
0111   2915           01258         goto $ + 4
0112   07AF           01259         addwf 47,F
0113   1803           01260         skpnc
0114   2912           01261         goto $ - 2
0115   07AF           01262         addwf 47,F
0116   0000           01263         nop
0117   0FB0           01264         incfsz 48,F
0118   2912           01265         goto $ - 6
0119   0000           01266         nop
011A   182F           01267         btfsc 47,0
011B   291C           01268         goto $ + 1
011C   182F           01269         btfsc 47,0
011D   291E           01270         goto $ + 1
011E   0008           01271         return
011F                  01272 D@VD
011F   01B4           01273         clrf 52
0120   01B3           01274         clrf 51
0121                  01275 D@VD2
0121   3010           01276         movlw 16
0122   00B5           01277         movwf 53
0123   0D30           01278         rlf 48,W
0124   0DB3           01279         rlf 51,F
0125   0DB4           01280         rlf 52,F
0126   0831           01281         movf 49,W
0127   02B3           01282         subwf 51,F
0128   0832           01283         movf 50,W
0129   1C03           01284         skpc
012A   0F32           01285         incfsz 50,W
012B   02B4           01286         subwf 52,F
012C   1803           01287         skpnc
012D   2935           01288         goto $ + 8
012E   0831           01289         movf 49,W
012F   07B3           01290         addwf 51,F
0130   0832           01291         movf 50,W
0131   1803           01292         skpnc
0132   0F32           01293         incfsz 50,W
0133   07B4           01294         addwf 52,F
0134   1003           01295         bcf 3,0
0135   0DAF           01296         rlf 47,F
0136   0DB0           01297         rlf 48,F
0137   0BB5           01298         decfsz 53,F
0138   2923           01299         goto $ - 21
0139   082F           01300         movf 47,W
013A   0008           01301         return
013B                  01302 I@NT
013B   1383           01303         bcf 3,7
013C                  01304 I@NT2
013C   1283           01305         bcf 3,5
013D   1303           01306         bcf 3,6
013E   0008           01307         return
013F                  01308 FPM@32
013F   0845           01309         movf 69,W
0140   00C3           01310         movwf 67
0141   0649           01311         xorwf 73,W
0142   00D1           01312         movwf 81
0143   0844           01313         movf 68,W
0144   3A00           01314         xorlw 0
0145   1D03           01315         btfss 3,2
0146   0848           01316         movf 72,W
0147   3A00           01317         xorlw 0
0148   1903           01318         btfsc 3,2
0149   2991           01319         goto FPM@RES0
014A   07C4           01320         addwf 68,F
014B   307E           01321         movlw 126
014C   1C03           01322         btfss 3,0
014D   2952           01323         goto FPM@L3
014E   02C4           01324         subwf 68,F
014F   1803           01325         btfsc 3,0
0150   2993           01326         goto FPM@OVERFLOW
0151   2955           01327         goto FPM@L8
0152                  01328 FPM@L3
0152   02C4           01329         subwf 68,F
0153   1C03           01330         btfss 3,0
0154   2990           01331         goto FPM@UNDERFLOW
0155                  01332 FPM@L8
0155   0847           01333         movf 71,W
0156   00C1           01334         movwf 65
0157   0846           01335         movf 70,W
0158   00C2           01336         movwf 66
0159   17C3           01337         bsf 67,7
015A   17C9           01338         bsf 73,7
015B   01C7           01339         clrf 71
015C   01C6           01340         clrf 70
015D   01C5           01341         clrf 69
015E   3018           01342         movlw 24
015F   00D0           01343         movwf 80
0160                  01344 FPM@L9
0160   0CC3           01345         rrf 67,F
0161   0CC2           01346         rrf 66,F
0162   0CC1           01347         rrf 65,F
0163   1C03           01348         btfss 3,0
0164   296F           01349         goto FPM@L12
0165   084B           01350         movf 75,W
0166   07C7           01351         addwf 71,F
0167   084A           01352         movf 74,W
0168   1803           01353         btfsc 3,0
0169   0F4A           01354         incfsz 74,W
016A   07C6           01355         addwf 70,F
016B   0849           01356         movf 73,W
016C   1803           01357         btfsc 3,0
016D   0F49           01358         incfsz 73,W
016E   07C5           01359         addwf 69,F
016F                  01360 FPM@L12
016F   0CC5           01361         rrf 69,F
0170   0CC6           01362         rrf 70,F
0171   0CC7           01363         rrf 71,F
0172   0BD0           01364         decfsz 80,F
0173   2960           01365         goto FPM@L9
0174   1BC5           01366         btfsc 69,7
0175   297E           01367         goto FPM@L14
0176   0DC7           01368         rlf 71,F
0177   0DC6           01369         rlf 70,F
0178   0DC5           01370         rlf 69,F
0179   08C4           01371         movf 68,F
017A   1903           01372         btfsc 3,2
017B   2990           01373         goto FPM@UNDERFLOW
017C   03C4           01374         decf 68,F
017D   0D43           01375         rlf 67,W
017E                  01376 FPM@L14
017E   1F4F           01377         btfss 79,6
017F   298F           01378         goto FPM@L28
0180   1C03           01379         btfss 3,0
0181   298F           01380         goto FPM@L28
0182   0FC7           01381         incfsz 71,F
0183   298F           01382         goto FPM@L28
0184   0FC6           01383         incfsz 70,F
0185   298F           01384         goto FPM@L28
0186   0FC5           01385         incfsz 69,F
0187   298F           01386         goto FPM@L28
0188   1403           01387         bsf 3,0
0189   0CC5           01388         rrf 69,F
018A   0CC6           01389         rrf 70,F
018B   0CC7           01390         rrf 71,F
018C   0AC4           01391         incf 68,F
018D   1903           01392         btfsc 3,2
018E   2993           01393         goto FPM@OVERFLOW
018F                  01394 FPM@L28
018F   299A           01395         goto FPM@SET_SIGN
0190                  01396 FPM@UNDERFLOW
0190   154F           01397         bsf 79,2
0191                  01398 FPM@RES0
0191   01C4           01399         clrf 68
0192   2996           01400         goto FPM@MANTISSA
0193                  01401 FPM@OVERFLOW
0193   14CF           01402         bsf 79,1
0194   30FF           01403         movlw 255
0195   00C4           01404         movwf 68
0196                  01405 FPM@MANTISSA
0196   01C7           01406         clrf 71
0197   01C6           01407         clrf 70
0198   3080           01408         movlw 128
0199   00C5           01409         movwf 69
019A                  01410 FPM@SET_SIGN
019A   1BD1           01411         btfsc 81,7
019B   299D           01412         goto FPM@L30
019C   13C5           01413         bcf 69,7
019D                  01414 FPM@L30
019D   293B           01415         goto I@NT
019E                  01416 FL32@TOINT32
019E   0845           01417         movf 69,W
019F   00D1           01418         movwf 81
01A0   307F           01419         movlw 127
01A1   0244           01420         subwf 68,W
01A2   00D0           01421         movwf 80
01A3   1803           01422         btfsc 3,0
01A4   29A7           01423         goto FI@L3
01A5   3000           01424         movlw 0
01A6   29FB           01425         goto FI@ASSIGNW
01A7                  01426 FI@L3
01A7   17C5           01427         bsf 69,7
01A8   01C4           01428         clrf 68
01A9   01C1           01429         clrf 65
01AA   0850           01430         movf 80,W
01AB   3C17           01431         sublw 23
01AC   00D0           01432         movwf 80
01AD   1803           01433         btfsc 3,0
01AE   29BB           01434         goto FI@L5
01AF   3008           01435         movlw 8
01B0   07D0           01436         addwf 80,F
01B1   1C03           01437         btfss 3,0
01B2   29F9           01438         goto FI@OVERFLOW
01B3                  01439 FI@L7
01B3   0845           01440         movf 69,W
01B4   00C4           01441         movwf 68
01B5   0846           01442         movf 70,W
01B6   00C5           01443         movwf 69
01B7   0847           01444         movf 71,W
01B8   00C6           01445         movwf 70
01B9   01C7           01446         clrf 71
01BA   29C8           01447         goto FI@L8
01BB                  01448 FI@L5
01BB   3008           01449         movlw 8
01BC   02D0           01450         subwf 80,F
01BD   1C03           01451         btfss 3,0
01BE   29C7           01452         goto FI@L10
01BF   0847           01453         movf 71,W
01C0   00C1           01454         movwf 65
01C1   0846           01455         movf 70,W
01C2   00C7           01456         movwf 71
01C3   0845           01457         movf 69,W
01C4   00C6           01458         movwf 70
01C5   01C5           01459         clrf 69
01C6   29BB           01460         goto FI@L5
01C7                  01461 FI@L10
01C7   07D0           01462         addwf 80,F
01C8                  01463 FI@L8
01C8   08D0           01464         movf 80,F
01C9   1903           01465         btfsc 3,2
01CA   29D3           01466         goto FI@L16
01CB                  01467 FI@L15
01CB   1003           01468         bcf 3,0
01CC   0CC4           01469         rrf 68,F
01CD   0CC5           01470         rrf 69,F
01CE   0CC6           01471         rrf 70,F
01CF   0CC7           01472         rrf 71,F
01D0   0CC1           01473         rrf 65,F
01D1   0BD0           01474         decfsz 80,F
01D2   29CB           01475         goto FI@L15
01D3                  01476 FI@L16
01D3   1844           01477         btfsc 68,0
01D4   29F9           01478         goto FI@OVERFLOW
01D5   1F4F           01479         btfss 79,6
01D6   29DE           01480         goto FI@L30
01D7   1FC1           01481         btfss 65,7
01D8   29DE           01482         goto FI@L30
01D9   0FC7           01483         incfsz 71,F
01DA   29DE           01484         goto FI@L30
01DB   0FC6           01485         incfsz 70,F
01DC   29DE           01486         goto FI@L30
01DD   0AC5           01487         incf 69,F
01DE                  01488 FI@L30
01DE   0844           01489         movf 68,W
01DF   00C1           01490         movwf 65
01E0   0847           01491         movf 71,W
01E1   00C4           01492         movwf 68
01E2   0841           01493         movf 65,W
01E3   00C7           01494         movwf 71
01E4   0845           01495         movf 69,W
01E5   00C1           01496         movwf 65
01E6   0846           01497         movf 70,W
01E7   00C5           01498         movwf 69
01E8   0841           01499         movf 65,W
01E9   00C6           01500         movwf 70
01EA   1FD1           01501         btfss 81,7
01EB   29F7           01502         goto FI@L32
01EC   09C7           01503         comf 71,F
01ED   09C6           01504         comf 70,F
01EE   09C5           01505         comf 69,F
01EF   09C4           01506         comf 68,F
01F0   0FC4           01507         incfsz 68,F
01F1   29F7           01508         goto FI@L32
01F2   0FC5           01509         incfsz 69,F
01F3   29F7           01510         goto FI@L32
01F4   0AC6           01511         incf 70,F
01F5   1903           01512         btfsc 3,2
01F6   0AC7           01513         incf 71,F
01F7                  01514 FI@L32
01F7   0844           01515         movf 68,W
01F8   293B           01516         goto I@NT
01F9                  01517 FI@OVERFLOW
01F9   16CF           01518         bsf 79,5
01FA   30FF           01519         movlw 255
01FB                  01520 FI@ASSIGNW
01FB   00C7           01521         movwf 71
01FC   00C6           01522         movwf 70
01FD   00C5           01523         movwf 69
01FE   00C4           01524         movwf 68
01FF   293B           01525         goto I@NT
0200                  01526 INT16@TOFL32
0200   01C6           01527         clrf 70
0201   01C7           01528         clrf 71
0202                  01529 INT32@TOFL32
0202   3096           01530         movlw 150
0203   00D0           01531         movwf 80
0204   13D1           01532         bcf 81,7
0205   1FC7           01533         btfss 71,7
0206   2A13           01534         goto IF@L5
0207   09C7           01535         comf 71,F
0208   09C6           01536         comf 70,F
0209   09C5           01537         comf 69,F
020A   09C4           01538         comf 68,F
020B   0FC4           01539         incfsz 68,F
020C   2A12           01540         goto IF@L4
020D   0FC5           01541         incfsz 69,F
020E   2A12           01542         goto IF@L4
020F   0AC6           01543         incf 70,F
0210   1903           01544         btfsc 3,2
0211   0AC7           01545         incf 71,F
0212                  01546 IF@L4
0212   17D1           01547         bsf 81,7
0213                  01548 IF@L5
0213   08C7           01549         movf 71,F
0214   1903           01550         btfsc 3,2
0215   2A2E           01551         goto IF@L7
0216   1F4F           01552         btfss 79,6
0217   2A25           01553         goto IF@L17
0218   1FC7           01554         btfss 71,7
0219   2A25           01555         goto IF@L17
021A   0FC5           01556         incfsz 69,F
021B   2A25           01557         goto IF@L17
021C   0FC6           01558         incfsz 70,F
021D   2A25           01559         goto IF@L17
021E   0FC7           01560         incfsz 71,F
021F   2A25           01561         goto IF@L17
0220   1403           01562         bsf 3,0
0221   0CC7           01563         rrf 71,F
0222   0CC6           01564         rrf 70,F
0223   0CC5           01565         rrf 69,F
0224   0AD0           01566         incf 80,F
0225                  01567 IF@L17
0225   3008           01568         movlw 8
0226   07D0           01569         addwf 80,F
0227   0845           01570         movf 69,W
0228   00C4           01571         movwf 68
0229   0846           01572         movf 70,W
022A   00C5           01573         movwf 69
022B   0847           01574         movf 71,W
022C   00C6           01575         movwf 70
022D   2A43           01576         goto IF@L18
022E                  01577 IF@L7
022E   08C6           01578         movf 70,F
022F   1D03           01579         btfss 3,2
0230   2A43           01580         goto IF@L18
0231   3008           01581         movlw 8
0232   02D0           01582         subwf 80,F
0233   0845           01583         movf 69,W
0234   1D03           01584         btfss 3,2
0235   2A3F           01585         goto IF@L20
0236   3008           01586         movlw 8
0237   02D0           01587         subwf 80,F
0238   0844           01588         movf 68,W
0239   1D03           01589         btfss 3,2
023A   2A3E           01590         goto IF@L22
023B   0847           01591         movf 71,W
023C   00D0           01592         movwf 80
023D   2A4D           01593         goto IF@EXIT
023E                  01594 IF@L22
023E   01C4           01595         clrf 68
023F                  01596 IF@L20
023F   00C6           01597         movwf 70
0240   0844           01598         movf 68,W
0241   00C5           01599         movwf 69
0242   01C4           01600         clrf 68
0243                  01601 IF@L18
0243   1BC6           01602         btfsc 70,7
0244   2A4B           01603         goto IF@L24
0245   1003           01604         bcf 3,0
0246   0DC4           01605         rlf 68,F
0247   0DC5           01606         rlf 69,F
0248   0DC6           01607         rlf 70,F
0249   03D0           01608         decf 80,F
024A   2A43           01609         goto IF@L18
024B                  01610 IF@L24
024B   1FD1           01611         btfss 81,7
024C   13C6           01612         bcf 70,7
024D                  01613 IF@EXIT
024D   0844           01614         movf 68,W
024E   00C7           01615         movwf 71
024F   0850           01616         movf 80,W
0250   00C4           01617         movwf 68
0251   0846           01618         movf 70,W
0252   00D0           01619         movwf 80
0253   0845           01620         movf 69,W
0254   00C6           01621         movwf 70
0255   0850           01622         movf 80,W
0256   00C5           01623         movwf 69
0257   293B           01624         goto I@NT
0258                  01625 proton#main#start
0258   0183           01626         clrf 3
0259   3040           01627         movlw 64
025A   00CF           01628         movwf 79
025B   01A0           01629         clrf 32

  0000025C            01632 F2_SOF equ $ ; 2HUM2TMP.PRP
  0000025C            01633 F2_EOF equ $ ; 2HUM2TMP.PRP
  0000025C            01634 F1_SOF equ $ ; 2HUM2TMP.bas
  0000025C            01635 F1_000008 equ $ ; IN [2HUM2TMP.bas] CLS
                      01636         f@call LCD@CLS
025E   178B           01637         bsf INTCON,7
                      01638         F@JUMP INT@LBL2
0262                  01639 INT@LBL1
0262   1B8B           01640         btfsc INTCON,7
0263   0008           01641         return
                      01642         F@JUMP update
0267                  01643 INT@LBL2
                      01644         f@call INT@LBL1
  00000269            01645 F1_000014 equ $ ; IN [2HUM2TMP.bas] ADCON1 = $84
                      01646         f@call INT@LBL1
026B   3084           01647         movlw 132
026C   1683           01648         bsf STATUS,5
  00000001            01649 ram_bank = 1
026D   009F           01650         movwf ADCON1
026E   1283           01651         bcf STATUS,5
  00000000            01652 ram_bank = 0
                      01653         f@call INT@LBL1
  00000271            01654 F1_000015 equ $ ; IN [2HUM2TMP.bas] T2CON = $26
                      01655         f@call INT@LBL1
0273   3026           01656         movlw 38
0274   0092           01657         movwf T2CON
                      01658         f@call INT@LBL1
  00000277            01659 F1_000016 equ $ ; IN [2HUM2TMP.bas] PR2 = 250
                      01660         f@call INT@LBL1
0279   30FA           01661         movlw 250
027A   1683           01662         bsf STATUS,5
  00000001            01663 ram_bank = 1
027B   0092           01664         movwf PR2
027C   1283           01665         bcf STATUS,5
  00000000            01666 ram_bank = 0
                      01667         f@call INT@LBL1
  0000027F            01668 F1_000017 equ $ ; IN [2HUM2TMP.bas] TMR2IE = 1
                      01669         f@call INT@LBL1
0281   1683           01670         bsf STATUS,5
  00000001            01671 ram_bank = 1
0282   148C           01672         bsf PIE1,1
0283   1283           01673         bcf STATUS,5
  00000000            01674 ram_bank = 0
                      01675         f@call INT@LBL1
  00000286            01676 F1_000018 equ $ ; IN [2HUM2TMP.bas] INTCON = $C0
                      01677         f@call INT@LBL1
0288   30C0           01678         movlw 192
0289   008B           01679         movwf INTCON
                      01680         f@call INT@LBL1
  0000028C            01681 F1_000030 equ $ ; IN [2HUM2TMP.bas] OUTPUT buzzer : INPUT up_key
028C   1683           01682         bsf STATUS,5
  00000001            01683 ram_bank = 1
028D   1307           01684         bcf TRISC,6
028E   1283           01685         bcf STATUS,5
  00000000            01686 ram_bank = 0
                      01687         f@call INT@LBL1
0291   1683           01688         bsf STATUS,5
  00000001            01689 ram_bank = 1
0292   1486           01690         bsf TRISB,1
0293   1283           01691         bcf STATUS,5
  00000000            01692 ram_bank = 0
                      01693         f@call INT@LBL1
  00000296            01694 F1_000031 equ $ ; IN [2HUM2TMP.bas] INPUT set_key : INPUT down_key
0296   1683           01695         bsf STATUS,5
  00000001            01696 ram_bank = 1
0297   1406           01697         bsf TRISB,0
0298   1283           01698         bcf STATUS,5
  00000000            01699 ram_bank = 0
                      01700         f@call INT@LBL1
029B   1683           01701         bsf STATUS,5
  00000001            01702 ram_bank = 1
029C   1787           01703         bsf TRISC,7
029D   1283           01704         bcf STATUS,5
  00000000            01705 ram_bank = 0
                      01706         f@call INT@LBL1
  000002A0            01707 F1_000032 equ $ ; IN [2HUM2TMP.bas] OUTPUT tmp1_rly : OUTPUT tmp2_rly
02A0   1683           01708         bsf STATUS,5
  00000001            01709 ram_bank = 1
02A1   1007           01710         bcf TRISC,0
02A2   1283           01711         bcf STATUS,5
  00000000            01712 ram_bank = 0
                      01713         f@call INT@LBL1
02A5   1683           01714         bsf STATUS,5
  00000001            01715 ram_bank = 1
02A6   1087           01716         bcf TRISC,1
02A7   1283           01717         bcf STATUS,5
  00000000            01718 ram_bank = 0
                      01719         f@call INT@LBL1
  000002AA            01720 F1_000033 equ $ ; IN [2HUM2TMP.bas] OUTPUT hum1_rly : OUTPUT hum2_rly
02AA   1683           01721         bsf STATUS,5
  00000001            01722 ram_bank = 1
02AB   1107           01723         bcf TRISC,2
02AC   1283           01724         bcf STATUS,5
  00000000            01725 ram_bank = 0
                      01726         f@call INT@LBL1
02AF   1683           01727         bsf STATUS,5
  00000001            01728 ram_bank = 1
02B0   1187           01729         bcf TRISC,3
02B1   1283           01730         bcf STATUS,5
  00000000            01731 ram_bank = 0
                      01732         f@call INT@LBL1
  000002B4            01733 F1_000034 equ $ ; IN [2HUM2TMP.bas] OUTPUT tmr_rly1 : OUTPUT tmr_rly2
02B4   1683           01734         bsf STATUS,5
  00000001            01735 ram_bank = 1
02B5   1207           01736         bcf TRISC,4
02B6   1283           01737         bcf STATUS,5
  00000000            01738 ram_bank = 0
                      01739         f@call INT@LBL1
02B9   1683           01740         bsf STATUS,5
  00000001            01741 ram_bank = 1
02BA   1287           01742         bcf TRISC,5
02BB   1283           01743         bcf STATUS,5
  00000000            01744 ram_bank = 0
                      01745         f@call INT@LBL1
  000002BE            01746 F1_000051 equ $ ; IN [2HUM2TMP.bas] tmp1_alart_l = EREAD 0
                      01747         f@call INT@LBL1
02C0   3000           01748         movlw 0
                      01749         f@call EE@RD
02C3   00D6           01750         movwf tmp1_alart_l
                      01751         f@call INT@LBL1
  000002C6            01752 F1_000052 equ $ ; IN [2HUM2TMP.bas] tmp2_alart_l = EREAD 1
                      01753         f@call INT@LBL1
02C8   3001           01754         movlw 1
                      01755         f@call EE@RD
02CB   00D7           01756         movwf tmp2_alart_l
                      01757         f@call INT@LBL1
  000002CE            01758 F1_000053 equ $ ; IN [2HUM2TMP.bas] hum1_alart_l = EREAD 2
                      01759         f@call INT@LBL1
02D0   3002           01760         movlw 2
                      01761         f@call EE@RD
02D3   00D8           01762         movwf hum1_alart_l
                      01763         f@call INT@LBL1
  000002D6            01764 F1_000054 equ $ ; IN [2HUM2TMP.bas] hum2_alart_l = EREAD 3
                      01765         f@call INT@LBL1
02D8   3003           01766         movlw 3
                      01767         f@call EE@RD
02DB   00D9           01768         movwf hum2_alart_l
                      01769         f@call INT@LBL1
  000002DE            01770 F1_000055 equ $ ; IN [2HUM2TMP.bas] mm = EREAD 4
                      01771         f@call INT@LBL1
02E0   3004           01772         movlw 4
                      01773         f@call EE@RD
02E3   00DA           01774         movwf mm
                      01775         f@call EE@RD@W
02E6   00DB           01776         movwf mmH
                      01777         f@call INT@LBL1
  000002E9            01778 F1_000056 equ $ ; IN [2HUM2TMP.bas] ss = EREAD 6
                      01779         f@call INT@LBL1
02EB   3006           01780         movlw 6
                      01781         f@call EE@RD
02EE   00DC           01782         movwf ss
                      01783         f@call INT@LBL1
  000002F1            01784 F1_000057 equ $ ; IN [2HUM2TMP.bas] t_flag = EREAD 7
                      01785         f@call INT@LBL1
02F3   3007           01786         movlw 7
                      01787         f@call EE@RD
02F6   00DE           01788         movwf t_flag
                      01789         f@call INT@LBL1
  000002F9            01790 F1_000059 equ $ ; IN [2HUM2TMP.bas] tmr_rly1 = 1
                      01791         f@call INT@LBL1
02FB   1607           01792         bsf PORTC,4
                      01793         f@call INT@LBL1
  000002FE            01794 F1_000060 equ $ ; IN [2HUM2TMP.bas] tmr_rly2 = 0
                      01795         f@call INT@LBL1
0300   1287           01796         bcf PORTC,5
                      01797         f@call INT@LBL1
  00000303            01798 F1_000062 equ $ ; IN [2HUM2TMP.bas] CLEAR PORTC
0303   0187           01799         clrf PORTC
                      01800         f@call INT@LBL1
  00000306            01801 F1_000063 equ $ ; IN [2HUM2TMP.bas] DELAYMS 1000
0306   3003           01802         movlw 3
0307   00B2           01803         movwf PP1H
0308   30E8           01804         movlw 232
                      01805         f@call DLY@W
  0000030B            01806 F3_SOF equ $ ; DHT11.INC
                      01807         f@call INT@LBL1
  0000030D            01808 F3_000016 equ $ ; IN [DHT11.INC] goto main
                      01809         F@JUMP main
0310                  01810 read_DHT11_1
                      01811         f@call INT@LBL1
  00000312            01812 F3_000019 equ $ ; IN [DHT11.INC] DHT11_dir1 = 0
                      01813         f@call INT@LBL1
0314   1683           01814         bsf STATUS,5
  00000001            01815 ram_bank = 1
0315   1105           01816         bcf TRISA,2
0316   1283           01817         bcf STATUS,5
  00000000            01818 ram_bank = 0
                      01819         f@call INT@LBL1
  00000319            01820 F3_000020 equ $ ; IN [DHT11.INC] DHT11_pin1 = 0 : DELAYMS 25
                      01821         f@call INT@LBL1
031B   1105           01822         bcf PORTA,2
                      01823         f@call INT@LBL1
031E   3019           01824         movlw 25
                      01825         f@call DL@MS
                      01826         f@call INT@LBL1
  00000323            01827 F3_000021 equ $ ; IN [DHT11.INC] DHT11_pin1 = 1 : DELAYUS 40
                      01828         f@call INT@LBL1
0325   1505           01829         bsf PORTA,2
                      01830         f@call INT@LBL1
0328   3028           01831         movlw 40
                      01832         f@call DL@US
                      01833         f@call INT@LBL1
  0000032D            01834 F3_000023 equ $ ; IN [DHT11.INC] haut = PULSIN DHT11_pin1, 1
                      01835         f@call INT@LBL1
032F   3001           01836         movlw 1
0330   00AF           01837         movwf PP0
0331   3005           01838         movlw 5
0332   0084           01839         movwf FSR
0333   3004           01840         movlw 4
                      01841         f@call P@IN
0336   082F           01842         movf PP0,W
0337   1683           01843         bsf STATUS,5
  00000001            01844 ram_bank = 1
0338   00A0           01845         movwf haut
0339   1283           01846         bcf STATUS,5
  00000000            01847 ram_bank = 0
                      01848         f@call INT@LBL1
  0000033C            01849 F3_000024 equ $ ; IN [DHT11.INC] if haut < 15 THEN goto read_DHT11_1
033C   300F           01850         movlw 15
033D   1683           01851         bsf STATUS,5
  00000001            01852 ram_bank = 1
033E   0220           01853         subwf haut,W
                      01854         set@page BC@LL2
0341   1283           01855         bcf STATUS,5
  00000000            01856 ram_bank = 0
0342   1803           01857         btfsc STATUS,0
0343   2B48           01858         goto BC@LL2
                      01859         f@call INT@LBL1
                      01860         F@JUMP read_DHT11_1
0348                  01861 BC@LL2
                      01862         f@call INT@LBL1
  0000034A            01863 F3_000026 equ $ ; IN [DHT11.INC] FOR X = 31 TO 0 STEP -1
034A   301F           01864         movlw 31
034B   1683           01865         bsf STATUS,5
  00000001            01866 ram_bank = 1
034C   00A6           01867         movwf _X
034D                  01868 FR@LB4
034D   1283           01869         bcf STATUS,5
  00000000            01870 ram_bank = 0
                      01871         f@call INT@LBL1
  00000350            01872 F3_000027 equ $ ; IN [DHT11.INC] dht[X] = PULSIN DHT11_pin1, 1
                      01873         f@call INT@LBL1
0352   3001           01874         movlw 1
0353   00AF           01875         movwf PP0
0354   3005           01876         movlw 5
0355   0084           01877         movwf FSR
0356   3004           01878         movlw 4
                      01879         f@call P@IN
0359   082F           01880         movf PP0,W
035A   00A7           01881         movwf PBP#VAR0
035B   1683           01882         bsf STATUS,5
  00000001            01883 ram_bank = 1
035C   0826           01884         movf _X,W
035D   3E60           01885         addlw dht
035E   0084           01886         movwf FSR
035F   1283           01887         bcf STATUS,5
  00000000            01888 ram_bank = 0
0360   0827           01889         movf PBP#VAR0,W
0361   0080           01890         movwf INDF
                      01891         f@call INT@LBL1
0364                  01892 CT@LB6
  00000364            01893 F3_000028 equ $ ; IN [DHT11.INC] NEXT X
0364   3001           01894         movlw 1
0365   1683           01895         bsf STATUS,5
  00000001            01896 ram_bank = 1
0366   02A6           01897         subwf _X,F
                      01898         set@page FR@LB4
0369   1283           01899         bcf STATUS,5
  00000000            01900 ram_bank = 0
036A   1803           01901         btfsc STATUS,0
036B   2B4D           01902         goto FR@LB4
036C                  01903 NX@LB5
                      01904         f@call INT@LBL1
  0000036E            01905 F3_000030 equ $ ; IN [DHT11.INC] FOR X = 31 TO 0 STEP -1
036E   301F           01906         movlw 31
036F   1683           01907         bsf STATUS,5
  00000001            01908 ram_bank = 1
0370   00A6           01909         movwf _X
0371                  01910 FR@LB7
0371   1283           01911         bcf STATUS,5
  00000000            01912 ram_bank = 0
                      01913         f@call INT@LBL1
  00000374            01914 F3_000031 equ $ ; IN [DHT11.INC] if dht[X] > 9 THEN
0374   1683           01915         bsf STATUS,5
  00000001            01916 ram_bank = 1
0375   0826           01917         movf _X,W
0376   3E60           01918         addlw dht
0377   0084           01919         movwf FSR
0378   0800           01920         movf INDF,W
0379   1283           01921         bcf STATUS,5
  00000000            01922 ram_bank = 0
037A   00A7           01923         movwf PBP#VAR0
037B   300A           01924         movlw 10
037C   0227           01925         subwf PBP#VAR0,W
                      01926         set@page BC@LL10
037F   1C03           01927         btfss STATUS,0
0380   2B8F           01928         goto BC@LL10
                      01929         f@call INT@LBL1
  00000383            01930 F3_000032 equ $ ; IN [DHT11.INC] dht[X] = 1
                      01931         f@call INT@LBL1
0385   1683           01932         bsf STATUS,5
  00000001            01933 ram_bank = 1
0386   0826           01934         movf _X,W
0387   3E60           01935         addlw dht
0388   0084           01936         movwf FSR
0389   3001           01937         movlw 1
038A   0080           01938         movwf INDF
038B   1283           01939         bcf STATUS,5
  00000000            01940 ram_bank = 0
                      01941         F@JUMP BC@LL11
038F                  01942 BC@LL10
  0000038F            01943 F3_000033 equ $ ; IN [DHT11.INC] else
                      01944         f@call INT@LBL1
  00000391            01945 F3_000034 equ $ ; IN [DHT11.INC] dht[X] = 0
                      01946         f@call INT@LBL1
0393   1683           01947         bsf STATUS,5
  00000001            01948 ram_bank = 1
0394   0826           01949         movf _X,W
0395   3E60           01950         addlw dht
0396   0084           01951         movwf FSR
0397   3000           01952         movlw 0
0398   0080           01953         movwf INDF
  00000399            01954 F3_000035 equ $ ; IN [DHT11.INC] endif
0399                  01955 BC@LL11
0399   1283           01956         bcf STATUS,5
  00000000            01957 ram_bank = 0
                      01958         f@call INT@LBL1
039C                  01959 CT@LB9
  0000039C            01960 F3_000036 equ $ ; IN [DHT11.INC] NEXT X
039C   3001           01961         movlw 1
039D   1683           01962         bsf STATUS,5
  00000001            01963 ram_bank = 1
039E   02A6           01964         subwf _X,F
                      01965         set@page FR@LB7
03A1   1283           01966         bcf STATUS,5
  00000000            01967 ram_bank = 0
03A2   1803           01968         btfsc STATUS,0
03A3   2B71           01969         goto FR@LB7
03A4                  01970 NX@LB8
                      01971         f@call INT@LBL1
  000003A6            01972 F3_000038 equ $ ; IN [DHT11.INC] humidity1 = dht[31] * 128 + dht[30] * 64 + dht[29] * 32 + dht[28] * 16 + dht[27] * 8 + dht[26] * 4 + dht[25] * 2 + dht[24] * 1
                      01973         f@call INT@LBL1
03A8   087F           01974         movf dht#31,W
03A9   00A7           01975         movwf PBP#VAR0
03AA   01BC           01976         clrf PP7H
03AB   0827           01977         movf PBP#VAR0,W
03AC   00BB           01978         movwf PP7
03AD   0C3C           01979         rrf PP7H,W
03AE   0C3B           01980         rrf PP7,W
03AF   00BC           01981         movwf PP7H
03B0   01BB           01982         clrf PP7
03B1   0CBB           01983         rrf PP7,F
03B2   087E           01984         movf dht#30,W
03B3   00A8           01985         movwf PBP#VAR1
03B4   01C0           01986         clrf PP8H
03B5   0828           01987         movf PBP#VAR1,W
03B6   00BF           01988         movwf PP8
03B7   3006           01989         movlw 6
03B8   00AF           01990         movwf PP0
03B9                  01991 M@LB1
03B9   1003           01992         bcf STATUS,0
03BA   0DBF           01993         rlf PP8,F
03BB   0DC0           01994         rlf PP8H,F
03BC   03AF           01995         decf PP0,F
                      01996         set@page M@LB1
03BF   1D03           01997         btfss STATUS,2
03C0   2BB9           01998         goto M@LB1
03C1   083F           01999         movf PP8,W
03C2   07BB           02000         addwf PP7,F
03C3   0840           02001         movf PP8H,W
03C4   1803           02002         btfsc STATUS,0
03C5   3E01           02003         addlw 1
03C6   07BC           02004         addwf PP7H,F
03C7   087D           02005         movf dht#29,W
03C8   00A9           02006         movwf PBP#VAR2
03C9   01C0           02007         clrf PP8H
03CA   0829           02008         movf PBP#VAR2,W
03CB   00BF           02009         movwf PP8
03CC   3005           02010         movlw 5
03CD   00AF           02011         movwf PP0
03CE                  02012 M@LB2
03CE   1003           02013         bcf STATUS,0
03CF   0DBF           02014         rlf PP8,F
03D0   0DC0           02015         rlf PP8H,F
03D1   03AF           02016         decf PP0,F
                      02017         set@page M@LB2
03D4   1D03           02018         btfss STATUS,2
03D5   2BCE           02019         goto M@LB2
03D6   083F           02020         movf PP8,W
03D7   07BB           02021         addwf PP7,F
03D8   0840           02022         movf PP8H,W
03D9   1803           02023         btfsc STATUS,0
03DA   3E01           02024         addlw 1
03DB   07BC           02025         addwf PP7H,F
03DC   087C           02026         movf dht#28,W
03DD   00AA           02027         movwf PBP#VAR3
03DE   01C0           02028         clrf PP8H
03DF   082A           02029         movf PBP#VAR3,W
03E0   00BF           02030         movwf PP8
03E1   3004           02031         movlw 4
03E2   00AF           02032         movwf PP0
03E3                  02033 M@LB3
03E3   1003           02034         bcf STATUS,0
03E4   0DBF           02035         rlf PP8,F
03E5   0DC0           02036         rlf PP8H,F
03E6   03AF           02037         decf PP0,F
                      02038         set@page M@LB3
03E9   1D03           02039         btfss STATUS,2
03EA   2BE3           02040         goto M@LB3
03EB   083F           02041         movf PP8,W
03EC   07BB           02042         addwf PP7,F
03ED   0840           02043         movf PP8H,W
03EE   1803           02044         btfsc STATUS,0
03EF   3E01           02045         addlw 1
03F0   07BC           02046         addwf PP7H,F
03F1   087B           02047         movf dht#27,W
03F2   00AB           02048         movwf PBP#VAR4
03F3   01C0           02049         clrf PP8H
03F4   082B           02050         movf PBP#VAR4,W
03F5   00BF           02051         movwf PP8
03F6   3003           02052         movlw 3
03F7   00AF           02053         movwf PP0
03F8                  02054 M@LB4
03F8   1003           02055         bcf STATUS,0
03F9   0DBF           02056         rlf PP8,F
03FA   0DC0           02057         rlf PP8H,F
03FB   03AF           02058         decf PP0,F
                      02059         set@page M@LB4
03FE   1D03           02060         btfss STATUS,2
03FF   2BF8           02061         goto M@LB4
0400   083F           02062         movf PP8,W
0401   07BB           02063         addwf PP7,F
0402   0840           02064         movf PP8H,W
0403   1803           02065         btfsc STATUS,0
0404   3E01           02066         addlw 1
0405   07BC           02067         addwf PP7H,F
0406   087A           02068         movf dht#26,W
0407   00AC           02069         movwf PBP#VAR5
0408   01C0           02070         clrf PP8H
0409   082C           02071         movf PBP#VAR5,W
040A   00BF           02072         movwf PP8
040B   0DBF           02073         rlf PP8,F
040C   0DC0           02074         rlf PP8H,F
040D   0DBF           02075         rlf PP8,F
040E   0DC0           02076         rlf PP8H,F
040F   30FC           02077         movlw 252
0410   05BF           02078         andwf PP8,F
0411   083F           02079         movf PP8,W
0412   07BB           02080         addwf PP7,F
0413   0840           02081         movf PP8H,W
0414   1803           02082         btfsc STATUS,0
0415   3E01           02083         addlw 1
0416   07BC           02084         addwf PP7H,F
0417   0879           02085         movf dht#25,W
0418   00AD           02086         movwf PBP#VAR6
0419   01C0           02087         clrf PP8H
041A   082D           02088         movf PBP#VAR6,W
041B   00BF           02089         movwf PP8
041C   1003           02090         bcf STATUS,0
041D   0DBF           02091         rlf PP8,F
041E   0DC0           02092         rlf PP8H,F
041F   083F           02093         movf PP8,W
0420   07BB           02094         addwf PP7,F
0421   0840           02095         movf PP8H,W
0422   1803           02096         btfsc STATUS,0
0423   3E01           02097         addlw 1
0424   07BC           02098         addwf PP7H,F
0425   0878           02099         movf dht#24,W
0426   00AE           02100         movwf PBP#VAR7
0427   01C0           02101         clrf PP8H
0428   082E           02102         movf PBP#VAR7,W
0429   00BF           02103         movwf PP8
042A   083B           02104         movf PP7,W
042B   073F           02105         addwf PP8,W
042C   1683           02106         bsf STATUS,5
  00000001            02107 ram_bank = 1
042D   00A3           02108         movwf humidity1
042E   1283           02109         bcf STATUS,5
  00000000            02110 ram_bank = 0
                      02111         f@call INT@LBL1
  00000431            02112 F3_000039 equ $ ; IN [DHT11.INC] temp1 = dht[15] * 128 + dht[14] * 64 + dht[13] * 32 + dht[12] * 16 + dht[11] * 8 + dht[10] * 4 + dht[9] * 2 + dht[8] * 1
                      02113         f@call INT@LBL1
0433   086F           02114         movf dht#15,W
0434   00A7           02115         movwf PBP#VAR0
0435   01BC           02116         clrf PP7H
0436   0827           02117         movf PBP#VAR0,W
0437   00BB           02118         movwf PP7
0438   0C3C           02119         rrf PP7H,W
0439   0C3B           02120         rrf PP7,W
043A   00BC           02121         movwf PP7H
043B   01BB           02122         clrf PP7
043C   0CBB           02123         rrf PP7,F
043D   086E           02124         movf dht#14,W
043E   00A8           02125         movwf PBP#VAR1
043F   01C0           02126         clrf PP8H
0440   0828           02127         movf PBP#VAR1,W
0441   00BF           02128         movwf PP8
0442   3006           02129         movlw 6
0443   00AF           02130         movwf PP0
0444                  02131 M@LB5
0444   1003           02132         bcf STATUS,0
0445   0DBF           02133         rlf PP8,F
0446   0DC0           02134         rlf PP8H,F
0447   03AF           02135         decf PP0,F
                      02136         set@page M@LB5
044A   1D03           02137         btfss STATUS,2
044B   2C44           02138         goto M@LB5
044C   083F           02139         movf PP8,W
044D   07BB           02140         addwf PP7,F
044E   0840           02141         movf PP8H,W
044F   1803           02142         btfsc STATUS,0
0450   3E01           02143         addlw 1
0451   07BC           02144         addwf PP7H,F
0452   086D           02145         movf dht#13,W
0453   00A9           02146         movwf PBP#VAR2
0454   01C0           02147         clrf PP8H
0455   0829           02148         movf PBP#VAR2,W
0456   00BF           02149         movwf PP8
0457   3005           02150         movlw 5
0458   00AF           02151         movwf PP0
0459                  02152 M@LB6
0459   1003           02153         bcf STATUS,0
045A   0DBF           02154         rlf PP8,F
045B   0DC0           02155         rlf PP8H,F
045C   03AF           02156         decf PP0,F
                      02157         set@page M@LB6
045F   1D03           02158         btfss STATUS,2
0460   2C59           02159         goto M@LB6
0461   083F           02160         movf PP8,W
0462   07BB           02161         addwf PP7,F
0463   0840           02162         movf PP8H,W
0464   1803           02163         btfsc STATUS,0
0465   3E01           02164         addlw 1
0466   07BC           02165         addwf PP7H,F
0467   086C           02166         movf dht#12,W
0468   00AA           02167         movwf PBP#VAR3
0469   01C0           02168         clrf PP8H
046A   082A           02169         movf PBP#VAR3,W
046B   00BF           02170         movwf PP8
046C   3004           02171         movlw 4
046D   00AF           02172         movwf PP0
046E                  02173 M@LB7
046E   1003           02174         bcf STATUS,0
046F   0DBF           02175         rlf PP8,F
0470   0DC0           02176         rlf PP8H,F
0471   03AF           02177         decf PP0,F
                      02178         set@page M@LB7
0474   1D03           02179         btfss STATUS,2
0475   2C6E           02180         goto M@LB7
0476   083F           02181         movf PP8,W
0477   07BB           02182         addwf PP7,F
0478   0840           02183         movf PP8H,W
0479   1803           02184         btfsc STATUS,0
047A   3E01           02185         addlw 1
047B   07BC           02186         addwf PP7H,F
047C   086B           02187         movf dht#11,W
047D   00AB           02188         movwf PBP#VAR4
047E   01C0           02189         clrf PP8H
047F   082B           02190         movf PBP#VAR4,W
0480   00BF           02191         movwf PP8
0481   3003           02192         movlw 3
0482   00AF           02193         movwf PP0
0483                  02194 M@LB8
0483   1003           02195         bcf STATUS,0
0484   0DBF           02196         rlf PP8,F
0485   0DC0           02197         rlf PP8H,F
0486   03AF           02198         decf PP0,F
                      02199         set@page M@LB8
0489   1D03           02200         btfss STATUS,2
048A   2C83           02201         goto M@LB8
048B   083F           02202         movf PP8,W
048C   07BB           02203         addwf PP7,F
048D   0840           02204         movf PP8H,W
048E   1803           02205         btfsc STATUS,0
048F   3E01           02206         addlw 1
0490   07BC           02207         addwf PP7H,F
0491   086A           02208         movf dht#10,W
0492   00AC           02209         movwf PBP#VAR5
0493   01C0           02210         clrf PP8H
0494   082C           02211         movf PBP#VAR5,W
0495   00BF           02212         movwf PP8
0496   0DBF           02213         rlf PP8,F
0497   0DC0           02214         rlf PP8H,F
0498   0DBF           02215         rlf PP8,F
0499   0DC0           02216         rlf PP8H,F
049A   30FC           02217         movlw 252
049B   05BF           02218         andwf PP8,F
049C   083F           02219         movf PP8,W
049D   07BB           02220         addwf PP7,F
049E   0840           02221         movf PP8H,W
049F   1803           02222         btfsc STATUS,0
04A0   3E01           02223         addlw 1
04A1   07BC           02224         addwf PP7H,F
04A2   0869           02225         movf dht#9,W
04A3   00AD           02226         movwf PBP#VAR6
04A4   01C0           02227         clrf PP8H
04A5   082D           02228         movf PBP#VAR6,W
04A6   00BF           02229         movwf PP8
04A7   1003           02230         bcf STATUS,0
04A8   0DBF           02231         rlf PP8,F
04A9   0DC0           02232         rlf PP8H,F
04AA   083F           02233         movf PP8,W
04AB   07BB           02234         addwf PP7,F
04AC   0840           02235         movf PP8H,W
04AD   1803           02236         btfsc STATUS,0
04AE   3E01           02237         addlw 1
04AF   07BC           02238         addwf PP7H,F
04B0   0868           02239         movf dht#8,W
04B1   00AE           02240         movwf PBP#VAR7
04B2   01C0           02241         clrf PP8H
04B3   082E           02242         movf PBP#VAR7,W
04B4   00BF           02243         movwf PP8
04B5   083B           02244         movf PP7,W
04B6   073F           02245         addwf PP8,W
04B7   1683           02246         bsf STATUS,5
  00000001            02247 ram_bank = 1
04B8   00A2           02248         movwf temp1
04B9   1283           02249         bcf STATUS,5
  00000000            02250 ram_bank = 0
                      02251         f@call INT@LBL1
  000004BC            02252 F3_000040 equ $ ; IN [DHT11.INC] return
04BC   0008           02253         return
04BD                  02254 read_DHT11_2
                      02255         f@call INT@LBL1
  000004BF            02256 F3_000043 equ $ ; IN [DHT11.INC] DHT11_dir2 = 0
                      02257         f@call INT@LBL1
04C1   1683           02258         bsf STATUS,5
  00000001            02259 ram_bank = 1
04C2   1285           02260         bcf TRISA,5
04C3   1283           02261         bcf STATUS,5
  00000000            02262 ram_bank = 0
                      02263         f@call INT@LBL1
  000004C6            02264 F3_000044 equ $ ; IN [DHT11.INC] DHT11_pin2 = 0 : DELAYMS 25
                      02265         f@call INT@LBL1
04C8   1285           02266         bcf PORTA,5
                      02267         f@call INT@LBL1
04CB   3019           02268         movlw 25
                      02269         f@call DL@MS
                      02270         f@call INT@LBL1
  000004D0            02271 F3_000045 equ $ ; IN [DHT11.INC] DHT11_pin2 = 1 : DELAYUS 40
                      02272         f@call INT@LBL1
04D2   1685           02273         bsf PORTA,5
                      02274         f@call INT@LBL1
04D5   3028           02275         movlw 40
                      02276         f@call DL@US
                      02277         f@call INT@LBL1
  000004DA            02278 F3_000047 equ $ ; IN [DHT11.INC] haut = PULSIN DHT11_pin2, 1
                      02279         f@call INT@LBL1
04DC   3001           02280         movlw 1
04DD   00AF           02281         movwf PP0
04DE   3005           02282         movlw 5
04DF   0084           02283         movwf FSR
04E0   3020           02284         movlw 32
                      02285         f@call P@IN
04E3   082F           02286         movf PP0,W
04E4   1683           02287         bsf STATUS,5
  00000001            02288 ram_bank = 1
04E5   00A0           02289         movwf haut
04E6   1283           02290         bcf STATUS,5
  00000000            02291 ram_bank = 0
                      02292         f@call INT@LBL1
  000004E9            02293 F3_000048 equ $ ; IN [DHT11.INC] if haut < 15 THEN goto read_DHT11_2
04E9   300F           02294         movlw 15
04EA   1683           02295         bsf STATUS,5
  00000001            02296 ram_bank = 1
04EB   0220           02297         subwf haut,W
                      02298         set@page BC@LL13
04EE   1283           02299         bcf STATUS,5
  00000000            02300 ram_bank = 0
04EF   1803           02301         btfsc STATUS,0
04F0   2CF5           02302         goto BC@LL13
                      02303         f@call INT@LBL1
                      02304         F@JUMP read_DHT11_2
04F5                  02305 BC@LL13
                      02306         f@call INT@LBL1
  000004F7            02307 F3_000050 equ $ ; IN [DHT11.INC] FOR X = 31 TO 0 STEP -1
04F7   301F           02308         movlw 31
04F8   1683           02309         bsf STATUS,5
  00000001            02310 ram_bank = 1
04F9   00A6           02311         movwf _X
04FA                  02312 FR@LB15
04FA   1283           02313         bcf STATUS,5
  00000000            02314 ram_bank = 0
                      02315         f@call INT@LBL1
  000004FD            02316 F3_000051 equ $ ; IN [DHT11.INC] dht[X] = PULSIN DHT11_pin2, 1
                      02317         f@call INT@LBL1
04FF   3001           02318         movlw 1
0500   00AF           02319         movwf PP0
0501   3005           02320         movlw 5
0502   0084           02321         movwf FSR
0503   3020           02322         movlw 32
                      02323         f@call P@IN
0506   082F           02324         movf PP0,W
0507   00A7           02325         movwf PBP#VAR0
0508   1683           02326         bsf STATUS,5
  00000001            02327 ram_bank = 1
0509   0826           02328         movf _X,W
050A   3E60           02329         addlw dht
050B   0084           02330         movwf FSR
050C   1283           02331         bcf STATUS,5
  00000000            02332 ram_bank = 0
050D   0827           02333         movf PBP#VAR0,W
050E   0080           02334         movwf INDF
                      02335         f@call INT@LBL1
0511                  02336 CT@LB17
  00000511            02337 F3_000052 equ $ ; IN [DHT11.INC] NEXT X
0511   3001           02338         movlw 1
0512   1683           02339         bsf STATUS,5
  00000001            02340 ram_bank = 1
0513   02A6           02341         subwf _X,F
                      02342         set@page FR@LB15
0516   1283           02343         bcf STATUS,5
  00000000            02344 ram_bank = 0
0517   1803           02345         btfsc STATUS,0
0518   2CFA           02346         goto FR@LB15
0519                  02347 NX@LB16
                      02348         f@call INT@LBL1
  0000051B            02349 F3_000054 equ $ ; IN [DHT11.INC] FOR X = 31 TO 0 STEP -1
051B   301F           02350         movlw 31
051C   1683           02351         bsf STATUS,5
  00000001            02352 ram_bank = 1
051D   00A6           02353         movwf _X
051E                  02354 FR@LB18
051E   1283           02355         bcf STATUS,5
  00000000            02356 ram_bank = 0
                      02357         f@call INT@LBL1
  00000521            02358 F3_000055 equ $ ; IN [DHT11.INC] if dht[X] > 9 THEN
0521   1683           02359         bsf STATUS,5
  00000001            02360 ram_bank = 1
0522   0826           02361         movf _X,W
0523   3E60           02362         addlw dht
0524   0084           02363         movwf FSR
0525   0800           02364         movf INDF,W
0526   1283           02365         bcf STATUS,5
  00000000            02366 ram_bank = 0
0527   00A7           02367         movwf PBP#VAR0
0528   300A           02368         movlw 10
0529   0227           02369         subwf PBP#VAR0,W
                      02370         set@page BC@LL21
052C   1C03           02371         btfss STATUS,0
052D   2D3C           02372         goto BC@LL21
                      02373         f@call INT@LBL1
  00000530            02374 F3_000056 equ $ ; IN [DHT11.INC] dht[X] = 1
                      02375         f@call INT@LBL1
0532   1683           02376         bsf STATUS,5
  00000001            02377 ram_bank = 1
0533   0826           02378         movf _X,W
0534   3E60           02379         addlw dht
0535   0084           02380         movwf FSR
0536   3001           02381         movlw 1
0537   0080           02382         movwf INDF
0538   1283           02383         bcf STATUS,5
  00000000            02384 ram_bank = 0
                      02385         F@JUMP BC@LL22
053C                  02386 BC@LL21
  0000053C            02387 F3_000057 equ $ ; IN [DHT11.INC] else
                      02388         f@call INT@LBL1
  0000053E            02389 F3_000058 equ $ ; IN [DHT11.INC] dht[X] = 0
                      02390         f@call INT@LBL1
0540   1683           02391         bsf STATUS,5
  00000001            02392 ram_bank = 1
0541   0826           02393         movf _X,W
0542   3E60           02394         addlw dht
0543   0084           02395         movwf FSR
0544   3000           02396         movlw 0
0545   0080           02397         movwf INDF
  00000546            02398 F3_000059 equ $ ; IN [DHT11.INC] endif
0546                  02399 BC@LL22
0546   1283           02400         bcf STATUS,5
  00000000            02401 ram_bank = 0
                      02402         f@call INT@LBL1
0549                  02403 CT@LB20
  00000549            02404 F3_000060 equ $ ; IN [DHT11.INC] NEXT X
0549   3001           02405         movlw 1
054A   1683           02406         bsf STATUS,5
  00000001            02407 ram_bank = 1
054B   02A6           02408         subwf _X,F
                      02409         set@page FR@LB18
054E   1283           02410         bcf STATUS,5
  00000000            02411 ram_bank = 0
054F   1803           02412         btfsc STATUS,0
0550   2D1E           02413         goto FR@LB18
0551                  02414 NX@LB19
                      02415         f@call INT@LBL1
  00000553            02416 F3_000062 equ $ ; IN [DHT11.INC] humidity2 = dht[31] * 128 + dht[30] * 64 + dht[29] * 32 + dht[28] * 16 + dht[27] * 8 + dht[26] * 4 + dht[25] * 2 + dht[24] * 1
                      02417         f@call INT@LBL1
0555   087F           02418         movf dht#31,W
0556   00A7           02419         movwf PBP#VAR0
0557   01BC           02420         clrf PP7H
0558   0827           02421         movf PBP#VAR0,W
0559   00BB           02422         movwf PP7
055A   0C3C           02423         rrf PP7H,W
055B   0C3B           02424         rrf PP7,W
055C   00BC           02425         movwf PP7H
055D   01BB           02426         clrf PP7
055E   0CBB           02427         rrf PP7,F
055F   087E           02428         movf dht#30,W
0560   00A8           02429         movwf PBP#VAR1
0561   01C0           02430         clrf PP8H
0562   0828           02431         movf PBP#VAR1,W
0563   00BF           02432         movwf PP8
0564   3006           02433         movlw 6
0565   00AF           02434         movwf PP0
0566                  02435 M@LB9
0566   1003           02436         bcf STATUS,0
0567   0DBF           02437         rlf PP8,F
0568   0DC0           02438         rlf PP8H,F
0569   03AF           02439         decf PP0,F
                      02440         set@page M@LB9
056C   1D03           02441         btfss STATUS,2
056D   2D66           02442         goto M@LB9
056E   083F           02443         movf PP8,W
056F   07BB           02444         addwf PP7,F
0570   0840           02445         movf PP8H,W
0571   1803           02446         btfsc STATUS,0
0572   3E01           02447         addlw 1
0573   07BC           02448         addwf PP7H,F
0574   087D           02449         movf dht#29,W
0575   00A9           02450         movwf PBP#VAR2
0576   01C0           02451         clrf PP8H
0577   0829           02452         movf PBP#VAR2,W
0578   00BF           02453         movwf PP8
0579   3005           02454         movlw 5
057A   00AF           02455         movwf PP0
057B                  02456 M@LB10
057B   1003           02457         bcf STATUS,0
057C   0DBF           02458         rlf PP8,F
057D   0DC0           02459         rlf PP8H,F
057E   03AF           02460         decf PP0,F
                      02461         set@page M@LB10
0581   1D03           02462         btfss STATUS,2
0582   2D7B           02463         goto M@LB10
0583   083F           02464         movf PP8,W
0584   07BB           02465         addwf PP7,F
0585   0840           02466         movf PP8H,W
0586   1803           02467         btfsc STATUS,0
0587   3E01           02468         addlw 1
0588   07BC           02469         addwf PP7H,F
0589   087C           02470         movf dht#28,W
058A   00AA           02471         movwf PBP#VAR3
058B   01C0           02472         clrf PP8H
058C   082A           02473         movf PBP#VAR3,W
058D   00BF           02474         movwf PP8
058E   3004           02475         movlw 4
058F   00AF           02476         movwf PP0
0590                  02477 M@LB11
0590   1003           02478         bcf STATUS,0
0591   0DBF           02479         rlf PP8,F
0592   0DC0           02480         rlf PP8H,F
0593   03AF           02481         decf PP0,F
                      02482         set@page M@LB11
0596   1D03           02483         btfss STATUS,2
0597   2D90           02484         goto M@LB11
0598   083F           02485         movf PP8,W
0599   07BB           02486         addwf PP7,F
059A   0840           02487         movf PP8H,W
059B   1803           02488         btfsc STATUS,0
059C   3E01           02489         addlw 1
059D   07BC           02490         addwf PP7H,F
059E   087B           02491         movf dht#27,W
059F   00AB           02492         movwf PBP#VAR4
05A0   01C0           02493         clrf PP8H
05A1   082B           02494         movf PBP#VAR4,W
05A2   00BF           02495         movwf PP8
05A3   3003           02496         movlw 3
05A4   00AF           02497         movwf PP0
05A5                  02498 M@LB12
05A5   1003           02499         bcf STATUS,0
05A6   0DBF           02500         rlf PP8,F
05A7   0DC0           02501         rlf PP8H,F
05A8   03AF           02502         decf PP0,F
                      02503         set@page M@LB12
05AB   1D03           02504         btfss STATUS,2
05AC   2DA5           02505         goto M@LB12
05AD   083F           02506         movf PP8,W
05AE   07BB           02507         addwf PP7,F
05AF   0840           02508         movf PP8H,W
05B0   1803           02509         btfsc STATUS,0
05B1   3E01           02510         addlw 1
05B2   07BC           02511         addwf PP7H,F
05B3   087A           02512         movf dht#26,W
05B4   00AC           02513         movwf PBP#VAR5
05B5   01C0           02514         clrf PP8H
05B6   082C           02515         movf PBP#VAR5,W
05B7   00BF           02516         movwf PP8
05B8   0DBF           02517         rlf PP8,F
05B9   0DC0           02518         rlf PP8H,F
05BA   0DBF           02519         rlf PP8,F
05BB   0DC0           02520         rlf PP8H,F
05BC   30FC           02521         movlw 252
05BD   05BF           02522         andwf PP8,F
05BE   083F           02523         movf PP8,W
05BF   07BB           02524         addwf PP7,F
05C0   0840           02525         movf PP8H,W
05C1   1803           02526         btfsc STATUS,0
05C2   3E01           02527         addlw 1
05C3   07BC           02528         addwf PP7H,F
05C4   0879           02529         movf dht#25,W
05C5   00AD           02530         movwf PBP#VAR6
05C6   01C0           02531         clrf PP8H
05C7   082D           02532         movf PBP#VAR6,W
05C8   00BF           02533         movwf PP8
05C9   1003           02534         bcf STATUS,0
05CA   0DBF           02535         rlf PP8,F
05CB   0DC0           02536         rlf PP8H,F
05CC   083F           02537         movf PP8,W
05CD   07BB           02538         addwf PP7,F
05CE   0840           02539         movf PP8H,W
05CF   1803           02540         btfsc STATUS,0
05D0   3E01           02541         addlw 1
05D1   07BC           02542         addwf PP7H,F
05D2   0878           02543         movf dht#24,W
05D3   00AE           02544         movwf PBP#VAR7
05D4   01C0           02545         clrf PP8H
05D5   082E           02546         movf PBP#VAR7,W
05D6   00BF           02547         movwf PP8
05D7   083B           02548         movf PP7,W
05D8   073F           02549         addwf PP8,W
05D9   1683           02550         bsf STATUS,5
  00000001            02551 ram_bank = 1
05DA   00A5           02552         movwf humidity2
05DB   1283           02553         bcf STATUS,5
  00000000            02554 ram_bank = 0
                      02555         f@call INT@LBL1
  000005DE            02556 F3_000063 equ $ ; IN [DHT11.INC] temp2 = dht[15] * 128 + dht[14] * 64 + dht[13] * 32 + dht[12] * 16 + dht[11] * 8 + dht[10] * 4 + dht[9] * 2 + dht[8] * 1
                      02557         f@call INT@LBL1
05E0   086F           02558         movf dht#15,W
05E1   00A7           02559         movwf PBP#VAR0
05E2   01BC           02560         clrf PP7H
05E3   0827           02561         movf PBP#VAR0,W
05E4   00BB           02562         movwf PP7
05E5   0C3C           02563         rrf PP7H,W
05E6   0C3B           02564         rrf PP7,W
05E7   00BC           02565         movwf PP7H
05E8   01BB           02566         clrf PP7
05E9   0CBB           02567         rrf PP7,F
05EA   086E           02568         movf dht#14,W
05EB   00A8           02569         movwf PBP#VAR1
05EC   01C0           02570         clrf PP8H
05ED   0828           02571         movf PBP#VAR1,W
05EE   00BF           02572         movwf PP8
05EF   3006           02573         movlw 6
05F0   00AF           02574         movwf PP0
05F1                  02575 M@LB13
05F1   1003           02576         bcf STATUS,0
05F2   0DBF           02577         rlf PP8,F
05F3   0DC0           02578         rlf PP8H,F
05F4   03AF           02579         decf PP0,F
                      02580         set@page M@LB13
05F7   1D03           02581         btfss STATUS,2
05F8   2DF1           02582         goto M@LB13
05F9   083F           02583         movf PP8,W
05FA   07BB           02584         addwf PP7,F
05FB   0840           02585         movf PP8H,W
05FC   1803           02586         btfsc STATUS,0
05FD   3E01           02587         addlw 1
05FE   07BC           02588         addwf PP7H,F
05FF   086D           02589         movf dht#13,W
0600   00A9           02590         movwf PBP#VAR2
0601   01C0           02591         clrf PP8H
0602   0829           02592         movf PBP#VAR2,W
0603   00BF           02593         movwf PP8
0604   3005           02594         movlw 5
0605   00AF           02595         movwf PP0
0606                  02596 M@LB14
0606   1003           02597         bcf STATUS,0
0607   0DBF           02598         rlf PP8,F
0608   0DC0           02599         rlf PP8H,F
0609   03AF           02600         decf PP0,F
                      02601         set@page M@LB14
060C   1D03           02602         btfss STATUS,2
060D   2E06           02603         goto M@LB14
060E   083F           02604         movf PP8,W
060F   07BB           02605         addwf PP7,F
0610   0840           02606         movf PP8H,W
0611   1803           02607         btfsc STATUS,0
0612   3E01           02608         addlw 1
0613   07BC           02609         addwf PP7H,F
0614   086C           02610         movf dht#12,W
0615   00AA           02611         movwf PBP#VAR3
0616   01C0           02612         clrf PP8H
0617   082A           02613         movf PBP#VAR3,W
0618   00BF           02614         movwf PP8
0619   3004           02615         movlw 4
061A   00AF           02616         movwf PP0
061B                  02617 M@LB15
061B   1003           02618         bcf STATUS,0
061C   0DBF           02619         rlf PP8,F
061D   0DC0           02620         rlf PP8H,F
061E   03AF           02621         decf PP0,F
                      02622         set@page M@LB15
0621   1D03           02623         btfss STATUS,2
0622   2E1B           02624         goto M@LB15
0623   083F           02625         movf PP8,W
0624   07BB           02626         addwf PP7,F
0625   0840           02627         movf PP8H,W
0626   1803           02628         btfsc STATUS,0
0627   3E01           02629         addlw 1
0628   07BC           02630         addwf PP7H,F
0629   086B           02631         movf dht#11,W
062A   00AB           02632         movwf PBP#VAR4
062B   01C0           02633         clrf PP8H
062C   082B           02634         movf PBP#VAR4,W
062D   00BF           02635         movwf PP8
062E   3003           02636         movlw 3
062F   00AF           02637         movwf PP0
0630                  02638 M@LB16
0630   1003           02639         bcf STATUS,0
0631   0DBF           02640         rlf PP8,F
0632   0DC0           02641         rlf PP8H,F
0633   03AF           02642         decf PP0,F
                      02643         set@page M@LB16
0636   1D03           02644         btfss STATUS,2
0637   2E30           02645         goto M@LB16
0638   083F           02646         movf PP8,W
0639   07BB           02647         addwf PP7,F
063A   0840           02648         movf PP8H,W
063B   1803           02649         btfsc STATUS,0
063C   3E01           02650         addlw 1
063D   07BC           02651         addwf PP7H,F
063E   086A           02652         movf dht#10,W
063F   00AC           02653         movwf PBP#VAR5
0640   01C0           02654         clrf PP8H
0641   082C           02655         movf PBP#VAR5,W
0642   00BF           02656         movwf PP8
0643   0DBF           02657         rlf PP8,F
0644   0DC0           02658         rlf PP8H,F
0645   0DBF           02659         rlf PP8,F
0646   0DC0           02660         rlf PP8H,F
0647   30FC           02661         movlw 252
0648   05BF           02662         andwf PP8,F
0649   083F           02663         movf PP8,W
064A   07BB           02664         addwf PP7,F
064B   0840           02665         movf PP8H,W
064C   1803           02666         btfsc STATUS,0
064D   3E01           02667         addlw 1
064E   07BC           02668         addwf PP7H,F
064F   0869           02669         movf dht#9,W
0650   00AD           02670         movwf PBP#VAR6
0651   01C0           02671         clrf PP8H
0652   082D           02672         movf PBP#VAR6,W
0653   00BF           02673         movwf PP8
0654   1003           02674         bcf STATUS,0
0655   0DBF           02675         rlf PP8,F
0656   0DC0           02676         rlf PP8H,F
0657   083F           02677         movf PP8,W
0658   07BB           02678         addwf PP7,F
0659   0840           02679         movf PP8H,W
065A   1803           02680         btfsc STATUS,0
065B   3E01           02681         addlw 1
065C   07BC           02682         addwf PP7H,F
065D   0868           02683         movf dht#8,W
065E   00AE           02684         movwf PBP#VAR7
065F   01C0           02685         clrf PP8H
0660   082E           02686         movf PBP#VAR7,W
0661   00BF           02687         movwf PP8
0662   083B           02688         movf PP7,W
0663   073F           02689         addwf PP8,W
0664   1683           02690         bsf STATUS,5
  00000001            02691 ram_bank = 1
0665   00A4           02692         movwf temp2
0666   1283           02693         bcf STATUS,5
  00000000            02694 ram_bank = 0
                      02695         f@call INT@LBL1
  00000669            02696 F3_000064 equ $ ; IN [DHT11.INC] return
0669   0008           02697         return
  0000066A            02698 F3_EOF equ $ ; DHT11.INC
066A                  02699 main
                      02700         f@call INT@LBL1
  0000066C            02701 F1_000068 equ $ ; IN [2HUM2TMP.bas] tmp1 = ADIN 0
                      02702         f@call INT@LBL1
066E   3000           02703         movlw 0
                      02704         f@call RD@AD
0671   00D2           02705         movwf tmp1
0672   083C           02706         movf PP7H,W
0673   00D3           02707         movwf tmp1H
                      02708         f@call INT@LBL1
  00000676            02709 F1_000069 equ $ ; IN [2HUM2TMP.bas] tmp1 = (tmp1 * 0.004887) * 100
                      02710         f@call INT@LBL1
0678   0852           02711         movf tmp1,W
0679   00C4           02712         movwf PP_AARG
067A   0853           02713         movf tmp1H,W
067B   00C5           02714         movwf PP_AARGH
                      02715         f@call INT16@TOFL32
067E   3021           02716         movlw 33
067F   00CB           02717         movwf PP_BARGHHH
0680   3023           02718         movlw 35
0681   00CA           02719         movwf PP_BARGHH
0682   3020           02720         movlw 32
0683   00C9           02721         movwf PP_BARGH
0684   3077           02722         movlw 119
0685   00C8           02723         movwf PP_BARG
                      02724         f@call FPM@32
0688   0847           02725         movf PP_AARGHHH,W
0689   00BE           02726         movwf PP7HHH
068A   0846           02727         movf PP_AARGHH,W
068B   00BD           02728         movwf PP7HH
068C   0845           02729         movf PP_AARGH,W
068D   00BC           02730         movwf PP7H
068E   0844           02731         movf PP_AARG,W
068F   00BB           02732         movwf PP7
0690   01C7           02733         clrf PP_AARGHHH
0691   01C6           02734         clrf PP_AARGHH
0692   3048           02735         movlw 72
0693   00C5           02736         movwf PP_AARGH
0694   3085           02737         movlw 133
0695   00C4           02738         movwf PP_AARG
0696   083E           02739         movf PP7HHH,W
0697   00CB           02740         movwf PP_BARGHHH
0698   083D           02741         movf PP7HH,W
0699   00CA           02742         movwf PP_BARGHH
069A   083C           02743         movf PP7H,W
069B   00C9           02744         movwf PP_BARGH
069C   083B           02745         movf PP7,W
069D   00C8           02746         movwf PP_BARG
                      02747         f@call FPM@32
                      02748         f@call FL32@TOINT32
06A2   00D2           02749         movwf tmp1
06A3   0845           02750         movf PP_AARGH,W
06A4   00D3           02751         movwf tmp1H
                      02752         f@call INT@LBL1
  000006A7            02753 F1_000071 equ $ ; IN [2HUM2TMP.bas] tmp2 = ADIN 1
                      02754         f@call INT@LBL1
06A9   3001           02755         movlw 1
                      02756         f@call RD@AD
06AC   00D4           02757         movwf tmp2
06AD   083C           02758         movf PP7H,W
06AE   00D5           02759         movwf tmp2H
                      02760         f@call INT@LBL1
  000006B1            02761 F1_000072 equ $ ; IN [2HUM2TMP.bas] tmp2 = (tmp2 * 0.004887) * 100
                      02762         f@call INT@LBL1
06B3   0854           02763         movf tmp2,W
06B4   00C4           02764         movwf PP_AARG
06B5   0855           02765         movf tmp2H,W
06B6   00C5           02766         movwf PP_AARGH
                      02767         f@call INT16@TOFL32
06B9   3021           02768         movlw 33
06BA   00CB           02769         movwf PP_BARGHHH
06BB   3023           02770         movlw 35
06BC   00CA           02771         movwf PP_BARGHH
06BD   3020           02772         movlw 32
06BE   00C9           02773         movwf PP_BARGH
06BF   3077           02774         movlw 119
06C0   00C8           02775         movwf PP_BARG
                      02776         f@call FPM@32
06C3   0847           02777         movf PP_AARGHHH,W
06C4   00BE           02778         movwf PP7HHH
06C5   0846           02779         movf PP_AARGHH,W
06C6   00BD           02780         movwf PP7HH
06C7   0845           02781         movf PP_AARGH,W
06C8   00BC           02782         movwf PP7H
06C9   0844           02783         movf PP_AARG,W
06CA   00BB           02784         movwf PP7
06CB   01C7           02785         clrf PP_AARGHHH
06CC   01C6           02786         clrf PP_AARGHH
06CD   3048           02787         movlw 72
06CE   00C5           02788         movwf PP_AARGH
06CF   3085           02789         movlw 133
06D0   00C4           02790         movwf PP_AARG
06D1   083E           02791         movf PP7HHH,W
06D2   00CB           02792         movwf PP_BARGHHH
06D3   083D           02793         movf PP7HH,W
06D4   00CA           02794         movwf PP_BARGHH
06D5   083C           02795         movf PP7H,W
06D6   00C9           02796         movwf PP_BARGH
06D7   083B           02797         movf PP7,W
06D8   00C8           02798         movwf PP_BARG
                      02799         f@call FPM@32
                      02800         f@call FL32@TOINT32
06DD   00D4           02801         movwf tmp2
06DE   0845           02802         movf PP_AARGH,W
06DF   00D5           02803         movwf tmp2H
                      02804         f@call INT@LBL1
  000006E2            02805 F1_000074 equ $ ; IN [2HUM2TMP.bas] GOSUB read_DHT11_1
                      02806         f@call read_DHT11_1
                      02807         f@call INT@LBL1
  000006E6            02808 F1_000075 equ $ ; IN [2HUM2TMP.bas] GOSUB read_DHT11_2
                      02809         f@call read_DHT11_2
                      02810         f@call INT@LBL1
  000006EA            02811 F1_000077 equ $ ; IN [2HUM2TMP.bas] if tmp1 != tmp1_alart_l THEN
06EA   08D3           02812         movf tmp1H,F
                      02813         set@page CP@LB2
06ED   1D03           02814         btfss STATUS,2
06EE   2EF5           02815         goto CP@LB2
06EF   0852           02816         movf tmp1,W
06F0   0256           02817         subwf tmp1_alart_l,W
                      02818         set@page BC@LL24
06F3   1903           02819         btfsc STATUS,2
06F4   2F02           02820         goto BC@LL24
06F5                  02821 CP@LB2
                      02822         f@call INT@LBL1
  000006F7            02823 F1_000078 equ $ ; IN [2HUM2TMP.bas] tmp1_rly = 1
                      02824         f@call INT@LBL1
06F9   1407           02825         bsf PORTC,0
                      02826         f@call INT@LBL1
  000006FC            02827 F1_000079 equ $ ; IN [2HUM2TMP.bas] alarm_f = 1
                      02828         f@call INT@LBL1
06FE   14DF           02829         bsf _B#VR1,1
                      02830         F@JUMP BC@LL25
0702                  02831 BC@LL24
  00000702            02832 F1_000080 equ $ ; IN [2HUM2TMP.bas] else
                      02833         f@call INT@LBL1
  00000704            02834 F1_000081 equ $ ; IN [2HUM2TMP.bas] tmp1_rly = 0
                      02835         f@call INT@LBL1
0706   1007           02836         bcf PORTC,0
                      02837         f@call INT@LBL1
  00000709            02838 F1_000082 equ $ ; IN [2HUM2TMP.bas] alarm_f = 0
                      02839         f@call INT@LBL1
070B   10DF           02840         bcf _B#VR1,1
  0000070C            02841 F1_000083 equ $ ; IN [2HUM2TMP.bas] endif
070C                  02842 BC@LL25
                      02843         f@call INT@LBL1
  0000070E            02844 F1_000085 equ $ ; IN [2HUM2TMP.bas] if alarm_f = 1 THEN
                      02845         set@page BC@LL27
0710   1CDF           02846         btfss _B#VR1,1
0711   2F1A           02847         goto BC@LL27
                      02848         f@call INT@LBL1
  00000714            02849 F1_000086 equ $ ; IN [2HUM2TMP.bas] buzzer = 1
                      02850         f@call INT@LBL1
0716   1707           02851         bsf PORTC,6
                      02852         F@JUMP BC@LL28
071A                  02853 BC@LL27
  0000071A            02854 F1_000087 equ $ ; IN [2HUM2TMP.bas] else
                      02855         f@call INT@LBL1
  0000071C            02856 F1_000088 equ $ ; IN [2HUM2TMP.bas] buzzer = 0
                      02857         f@call INT@LBL1
071E   1307           02858         bcf PORTC,6
  0000071F            02859 F1_000089 equ $ ; IN [2HUM2TMP.bas] endif
071F                  02860 BC@LL28
                      02861         f@call INT@LBL1
  00000721            02862 F1_000091 equ $ ; IN [2HUM2TMP.bas] PRINT AT 1,1, DEC3 tmp1, 223, "C"
0721   3080           02863         movlw 128
0722   00A1           02864         movwf BPFH
                      02865         f@call LCD@CRS
0725   3003           02866         movlw 3
0726   00A6           02867         movwf GEN4H
0727   0853           02868         movf tmp1H,W
0728   00B4           02869         movwf PP2H
0729   0852           02870         movf tmp1,W
072A   00B3           02871         movwf PP2
                      02872         f@call OUT@DEC
072D   30DF           02873         movlw 223
                      02874         f@call PRINT
0730   3043           02875         movlw 67
                      02876         f@call PRINT
                      02877         f@call INT@LBL1
  00000735            02878 F1_000092 equ $ ; IN [2HUM2TMP.bas] PRINT AT 2,1, DEC3 tmp2, 223, "C"
0735   3080           02879         movlw 128
0736   00A1           02880         movwf BPFH
0737   30C0           02881         movlw 192
                      02882         f@call LCD@CRS
073A   3003           02883         movlw 3
073B   00A6           02884         movwf GEN4H
073C   0855           02885         movf tmp2H,W
073D   00B4           02886         movwf PP2H
073E   0854           02887         movf tmp2,W
073F   00B3           02888         movwf PP2
                      02889         f@call OUT@DEC
0742   30DF           02890         movlw 223
                      02891         f@call PRINT
0745   3043           02892         movlw 67
                      02893         f@call PRINT
                      02894         f@call INT@LBL1
  0000074A            02895 F1_000094 equ $ ; IN [2HUM2TMP.bas] PRINT AT 1,7, DEC3 humidity1, "%"
074A   3080           02896         movlw 128
074B   00A1           02897         movwf BPFH
074C   3086           02898         movlw 134
                      02899         f@call LCD@CRS
074F   3003           02900         movlw 3
0750   00A6           02901         movwf GEN4H
0751   1683           02902         bsf STATUS,5
  00000001            02903 ram_bank = 1
0752   0823           02904         movf humidity1,W
0753   1283           02905         bcf STATUS,5
  00000000            02906 ram_bank = 0
                      02907         f@call OUT@DECC
0756   3025           02908         movlw 37
                      02909         f@call PRINT
                      02910         f@call INT@LBL1
  0000075B            02911 F1_000095 equ $ ; IN [2HUM2TMP.bas] PRINT AT 1,13, DEC3 humidity2, "%"
075B   3080           02912         movlw 128
075C   00A1           02913         movwf BPFH
075D   308C           02914         movlw 140
                      02915         f@call LCD@CRS
0760   3003           02916         movlw 3
0761   00A6           02917         movwf GEN4H
0762   1683           02918         bsf STATUS,5
  00000001            02919 ram_bank = 1
0763   0825           02920         movf humidity2,W
0764   1283           02921         bcf STATUS,5
  00000000            02922 ram_bank = 0
                      02923         f@call OUT@DECC
0767   3025           02924         movlw 37
                      02925         f@call PRINT
                      02926         f@call INT@LBL1
  0000076C            02927 F1_000097 equ $ ; IN [2HUM2TMP.bas] PRINT AT 2,11, DEC3 mm, ":", DEC2 ss
076C   3080           02928         movlw 128
076D   00A1           02929         movwf BPFH
076E   30CA           02930         movlw 202
                      02931         f@call LCD@CRS
0771   3003           02932         movlw 3
0772   00A6           02933         movwf GEN4H
0773   085B           02934         movf mmH,W
0774   00B4           02935         movwf PP2H
0775   085A           02936         movf mm,W
0776   00B3           02937         movwf PP2
                      02938         f@call OUT@DEC
0779   303A           02939         movlw 58
                      02940         f@call PRINT
077C   3002           02941         movlw 2
077D   00A6           02942         movwf GEN4H
077E   085C           02943         movf ss,W
                      02944         f@call OUT@DECC
                      02945         f@call INT@LBL1
  00000783            02946 F1_000099 equ $ ; IN [2HUM2TMP.bas] if set_key = 1 THEN GOSUB setup
                      02947         set@page BC@LL30
0785   1C06           02948         btfss PORTB,0
0786   2F8C           02949         goto BC@LL30
                      02950         f@call INT@LBL1
                      02951         f@call setup
078C                  02952 BC@LL30
                      02953         f@call INT@LBL1
  0000078E            02954 F1_000101 equ $ ; IN [2HUM2TMP.bas] if t_flag = 1 AND sec_f = 1 THEN
078E   3001           02955         movlw 1
078F   025E           02956         subwf t_flag,W
0790   3001           02957         movlw 1
0791   1D03           02958         btfss STATUS,2
0792   3000           02959         movlw 0
0793   00CC           02960         movwf SP#P9
0794   3000           02961         movlw 0
0795   185F           02962         btfsc _B#VR1,0
0796   3001           02963         movlw 1
0797   05CC           02964         andwf SP#P9,F
                      02965         set@page BC@LL32
079A   1903           02966         btfsc STATUS,2
079B   2FEB           02967         goto BC@LL32
                      02968         f@call INT@LBL1
  0000079E            02969 F1_000102 equ $ ; IN [2HUM2TMP.bas] if ss = 0 THEN ss = 60 : DEC mm
079E   08DC           02970         movf ss,F
                      02971         set@page BC@LL34
07A1   1D03           02972         btfss STATUS,2
07A2   2FAF           02973         goto BC@LL34
                      02974         f@call INT@LBL1
                      02975         f@call INT@LBL1
07A7   303C           02976         movlw 60
07A8   00DC           02977         movwf ss
                      02978         f@call INT@LBL1
07AB   03DA           02979         decf mm,F
07AC   0A5A           02980         incf mm,W
07AD   1903           02981         btfsc STATUS,2
07AE   03DB           02982         decf mmH,F
07AF                  02983 BC@LL34
                      02984         f@call INT@LBL1
  000007B1            02985 F1_000103 equ $ ; IN [2HUM2TMP.bas] DEC ss
07B1   03DC           02986         decf ss,F
                      02987         f@call INT@LBL1
  000007B4            02988 F1_000104 equ $ ; IN [2HUM2TMP.bas] sec_f = 0
                      02989         f@call INT@LBL1
07B6   105F           02990         bcf _B#VR1,0
                      02991         f@call INT@LBL1
  000007B9            02992 F1_000105 equ $ ; IN [2HUM2TMP.bas] if mm = 0 AND ss = 0 THEN
07B9   085B           02993         movf mmH,W
07BA   045A           02994         iorwf mm,W
                      02995         set@page CP@LB3
07BD   1903           02996         btfsc STATUS,2
07BE   2FC1           02997         goto CP@LB3
07BF   0103           02998         clrw
07C0   1D03           02999         btfss STATUS,2
07C1                  03000 CP@LB3
07C1   3001           03001         movlw 1
07C2   00CC           03002         movwf SP#P9
07C3   3001           03003         movlw 1
07C4   08DC           03004         movf ss,F
07C5   1D03           03005         btfss STATUS,2
07C6   3000           03006         movlw 0
07C7   05CC           03007         andwf SP#P9,F
                      03008         set@page BC@LL36
07CA   1903           03009         btfsc STATUS,2
07CB   2FEB           03010         goto BC@LL36
                      03011         f@call INT@LBL1
  000007CE            03012 F1_000106 equ $ ; IN [2HUM2TMP.bas] mm = EREAD 4
                      03013         f@call INT@LBL1
07D0   3004           03014         movlw 4
                      03015         f@call EE@RD
07D3   00DA           03016         movwf mm
                      03017         f@call EE@RD@W
07D6   00DB           03018         movwf mmH
                      03019         f@call INT@LBL1
  000007D9            03020 F1_000107 equ $ ; IN [2HUM2TMP.bas] ss = EREAD 6
                      03021         f@call INT@LBL1
07DB   3006           03022         movlw 6
                      03023         f@call EE@RD
07DE   00DC           03024         movwf ss
                      03025         f@call INT@LBL1
  000007E1            03026 F1_000108 equ $ ; IN [2HUM2TMP.bas] tmr_rly1 = ~tmr_rly1
                      03027         f@call INT@LBL1
07E3   3010           03028         movlw 16
07E4   0687           03029         xorwf PORTC,F
                      03030         f@call INT@LBL1
  000007E7            03031 F1_000109 equ $ ; IN [2HUM2TMP.bas] tmr_rly2 = ~tmr_rly2
                      03032         f@call INT@LBL1
07E9   3020           03033         movlw 32
07EA   0687           03034         xorwf PORTC,F
  000007EB            03035 F1_000110 equ $ ; IN [2HUM2TMP.bas] endif
07EB                  03036 BC@LL36
  000007EB            03037 F1_000111 equ $ ; IN [2HUM2TMP.bas] endif
07EB                  03038 BC@LL32
                      03039         f@call INT@LBL1
  000007ED            03040 F1_000112 equ $ ; IN [2HUM2TMP.bas] goto main
                      03041         F@JUMP main
07EF                  03042 setup
                      03043         f@call INT@LBL1
  000007F1            03044 F1_000115 equ $ ; IN [2HUM2TMP.bas] mm = EREAD 4
                      03045         f@call INT@LBL1
07F3   3004           03046         movlw 4
                      03047         f@call EE@RD
07F6   00DA           03048         movwf mm
                      03049         f@call EE@RD@W
07F9   00DB           03050         movwf mmH
                      03051         f@call INT@LBL1
  000007FC            03052 F1_000116 equ $ ; IN [2HUM2TMP.bas] ss = EREAD 6
                      03053         f@call INT@LBL1
07FE   3006           03054         movlw 6
                      03055         f@call EE@RD
0801   00DC           03056         movwf ss
                      03057         f@call INT@LBL1
  00000804            03058 F1_000117 equ $ ; IN [2HUM2TMP.bas] CLS
                      03059         f@call LCD@CLS
                      03060         f@call INT@LBL1
  00000808            03061 F1_000118 equ $ ; IN [2HUM2TMP.bas] DELAYMS 1000
0808   3003           03062         movlw 3
0809   00B2           03063         movwf PP1H
080A   30E8           03064         movlw 232
                      03065         f@call DLY@W
                      03066         f@call INT@LBL1
  0000080F            03067 F1_000120 equ $ ; IN [2HUM2TMP.bas] PRINT AT 1,1, "TIMER setup:"
080F   3080           03068         movlw 128
0810   00A1           03069         movwf BPFH
                      03070         f@call LCD@CRS
0813   300A           03071         movlw high (STR@LB1)
0814   00A6           03072         movwf GEN4H
0815   30F6           03073         movlw low (STR@LB1)
                      03074         f@call C@STROUT
                      03075         f@call INT@LBL1
  0000081A            03076 F1_000121 equ $ ; IN [2HUM2TMP.bas] while set_key = 0
081A                  03077 BC@LL37
                      03078         set@page BC@LL38
081C   1806           03079         btfsc PORTB,0
081D   2876           03080         goto BC@LL38
                      03081         f@call INT@LBL1
  00000820            03082 F1_000122 equ $ ; IN [2HUM2TMP.bas] PRINT AT 2,1, DEC3 mm, ":", DEC2 ss, "  mm"
0820   3080           03083         movlw 128
0821   00A1           03084         movwf BPFH
0822   30C0           03085         movlw 192
                      03086         f@call LCD@CRS
0825   3003           03087         movlw 3
0826   00A6           03088         movwf GEN4H
0827   085B           03089         movf mmH,W
0828   00B4           03090         movwf PP2H
0829   085A           03091         movf mm,W
082A   00B3           03092         movwf PP2
                      03093         f@call OUT@DEC
082D   303A           03094         movlw 58
                      03095         f@call PRINT
0830   3002           03096         movlw 2
0831   00A6           03097         movwf GEN4H
0832   085C           03098         movf ss,W
                      03099         f@call OUT@DECC
0835   3020           03100         movlw 32
                      03101         f@call PRINT
                      03102         f@call PRINT
083A   304D           03103         movlw 77
                      03104         f@call PRINT
                      03105         f@call PRINT
                      03106         f@call INT@LBL1
  00000841            03107 F1_000124 equ $ ; IN [2HUM2TMP.bas] if up_key = 1 THEN INC mm
                      03108         set@page BC@LL40
0843   1C86           03109         btfss PORTB,1
0844   284A           03110         goto BC@LL40
                      03111         f@call INT@LBL1
0847   0ADA           03112         incf mm,F
0848   1903           03113         btfsc STATUS,2
0849   0ADB           03114         incf mmH,F
084A                  03115 BC@LL40
                      03116         f@call INT@LBL1
  0000084C            03117 F1_000125 equ $ ; IN [2HUM2TMP.bas] if mm > 900 THEN mm = 0
084C   3003           03118         movlw 3
084D   025B           03119         subwf mmH,W
                      03120         set@page BC@LL42
0850   1C03           03121         btfss STATUS,0
0851   2862           03122         goto BC@LL42
                      03123         set@page CP@LB5
0854   1D03           03124         btfss STATUS,2
0855   285C           03125         goto CP@LB5
0856   3085           03126         movlw 133
0857   025A           03127         subwf mm,W
                      03128         set@page BC@LL42
085A   1C03           03129         btfss STATUS,0
085B   2862           03130         goto BC@LL42
085C                  03131 CP@LB5
                      03132         f@call INT@LBL1
                      03133         f@call INT@LBL1
0860   01DB           03134         clrf mmH
0861   01DA           03135         clrf mm
0862                  03136 BC@LL42
                      03137         f@call INT@LBL1
  00000864            03138 F1_000126 equ $ ; IN [2HUM2TMP.bas] if down_key = 1 THEN DEC mm
                      03139         set@page BC@LL44
0866   1F87           03140         btfss PORTC,7
0867   286E           03141         goto BC@LL44
                      03142         f@call INT@LBL1
086A   03DA           03143         decf mm,F
086B   0A5A           03144         incf mm,W
086C   1903           03145         btfsc STATUS,2
086D   03DB           03146         decf mmH,F
086E                  03147 BC@LL44
                      03148         f@call INT@LBL1
  00000870            03149 F1_000128 equ $ ; IN [2HUM2TMP.bas] DELAYMS 200
0870   30C8           03150         movlw 200
                      03151         f@call DL@MS
  00000873            03152 F1_000129 equ $ ; IN [2HUM2TMP.bas] WEND
                      03153         F@JUMP BC@LL37
0876                  03154 BC@LL38
                      03155         f@call INT@LBL1
  00000878            03156 F1_000130 equ $ ; IN [2HUM2TMP.bas] EWRITE 4,[mm]
0878   3004           03157         movlw 4
0879   1703           03158         bsf STATUS,6
  00000002            03159 ram_bank = 2
087A   008D           03160         movwf EEADR
087B   1303           03161         bcf STATUS,6
  00000000            03162 ram_bank = 0
087C   085A           03163         movf mm,W
                      03164         f@call EE@WR
087F   085B           03165         movf mmH,W
                      03166         f@call EE@WR
                      03167         f@call INT@LBL1
  00000884            03168 F1_000131 equ $ ; IN [2HUM2TMP.bas] DELAYMS 500
0884   3001           03169         movlw 1
0885   00B2           03170         movwf PP1H
0886   30F4           03171         movlw 244
                      03172         f@call DLY@W
                      03173         f@call INT@LBL1
  0000088B            03174 F1_000133 equ $ ; IN [2HUM2TMP.bas] while set_key = 0
088B                  03175 BC@LL45
                      03176         set@page BC@LL46
088D   1806           03177         btfsc PORTB,0
088E   28D7           03178         goto BC@LL46
                      03179         f@call INT@LBL1
  00000891            03180 F1_000134 equ $ ; IN [2HUM2TMP.bas] PRINT AT 2,1, DEC3 mm, ":", DEC2 ss, "  ss"
0891   3080           03181         movlw 128
0892   00A1           03182         movwf BPFH
0893   30C0           03183         movlw 192
                      03184         f@call LCD@CRS
0896   3003           03185         movlw 3
0897   00A6           03186         movwf GEN4H
0898   085B           03187         movf mmH,W
0899   00B4           03188         movwf PP2H
089A   085A           03189         movf mm,W
089B   00B3           03190         movwf PP2
                      03191         f@call OUT@DEC
089E   303A           03192         movlw 58
                      03193         f@call PRINT
08A1   3002           03194         movlw 2
08A2   00A6           03195         movwf GEN4H
08A3   085C           03196         movf ss,W
                      03197         f@call OUT@DECC
08A6   3020           03198         movlw 32
                      03199         f@call PRINT
                      03200         f@call PRINT
08AB   3053           03201         movlw 83
                      03202         f@call PRINT
                      03203         f@call PRINT
                      03204         f@call INT@LBL1
  000008B2            03205 F1_000136 equ $ ; IN [2HUM2TMP.bas] if up_key = 1 THEN INC ss
                      03206         set@page BC@LL48
08B4   1C86           03207         btfss PORTB,1
08B5   28B9           03208         goto BC@LL48
                      03209         f@call INT@LBL1
08B8   0ADC           03210         incf ss,F
08B9                  03211 BC@LL48
                      03212         f@call INT@LBL1
  000008BB            03213 F1_000137 equ $ ; IN [2HUM2TMP.bas] if ss > 59 THEN ss = 0
08BB   303C           03214         movlw 60
08BC   025C           03215         subwf ss,W
                      03216         set@page BC@LL50
08BF   1C03           03217         btfss STATUS,0
08C0   28C6           03218         goto BC@LL50
                      03219         f@call INT@LBL1
                      03220         f@call INT@LBL1
08C5   01DC           03221         clrf ss
08C6                  03222 BC@LL50
                      03223         f@call INT@LBL1
  000008C8            03224 F1_000138 equ $ ; IN [2HUM2TMP.bas] if down_key = 1 THEN DEC ss
                      03225         set@page BC@LL52
08CA   1F87           03226         btfss PORTC,7
08CB   28CF           03227         goto BC@LL52
                      03228         f@call INT@LBL1
08CE   03DC           03229         decf ss,F
08CF                  03230 BC@LL52
                      03231         f@call INT@LBL1
  000008D1            03232 F1_000140 equ $ ; IN [2HUM2TMP.bas] DELAYMS 200
08D1   30C8           03233         movlw 200
                      03234         f@call DL@MS
  000008D4            03235 F1_000141 equ $ ; IN [2HUM2TMP.bas] WEND
                      03236         F@JUMP BC@LL45
08D7                  03237 BC@LL46
                      03238         f@call INT@LBL1
  000008D9            03239 F1_000142 equ $ ; IN [2HUM2TMP.bas] EWRITE 6,[ss]
08D9   3006           03240         movlw 6
08DA   1703           03241         bsf STATUS,6
  00000002            03242 ram_bank = 2
08DB   008D           03243         movwf EEADR
08DC   1303           03244         bcf STATUS,6
  00000000            03245 ram_bank = 0
08DD   085C           03246         movf ss,W
                      03247         f@call EE@WR
                      03248         f@call INT@LBL1
  000008E2            03249 F1_000143 equ $ ; IN [2HUM2TMP.bas] DELAYMS 500
08E2   3001           03250         movlw 1
08E3   00B2           03251         movwf PP1H
08E4   30F4           03252         movlw 244
                      03253         f@call DLY@W
                      03254         f@call INT@LBL1
  000008E9            03255 F1_000145 equ $ ; IN [2HUM2TMP.bas] while set_key = 0
08E9                  03256 BC@LL53
                      03257         set@page BC@LL54
08EB   1806           03258         btfsc PORTB,0
08EC   295C           03259         goto BC@LL54
                      03260         f@call INT@LBL1
  000008EF            03261 F1_000146 equ $ ; IN [2HUM2TMP.bas] PRINT AT 2,1, DEC3 mm, ":", DEC2 ss, "  ss"
08EF   3080           03262         movlw 128
08F0   00A1           03263         movwf BPFH
08F1   30C0           03264         movlw 192
                      03265         f@call LCD@CRS
08F4   3003           03266         movlw 3
08F5   00A6           03267         movwf GEN4H
08F6   085B           03268         movf mmH,W
08F7   00B4           03269         movwf PP2H
08F8   085A           03270         movf mm,W
08F9   00B3           03271         movwf PP2
                      03272         f@call OUT@DEC
08FC   303A           03273         movlw 58
                      03274         f@call PRINT
08FF   3002           03275         movlw 2
0900   00A6           03276         movwf GEN4H
0901   085C           03277         movf ss,W
                      03278         f@call OUT@DECC
0904   3020           03279         movlw 32
                      03280         f@call PRINT
                      03281         f@call PRINT
0909   3053           03282         movlw 83
                      03283         f@call PRINT
                      03284         f@call PRINT
                      03285         f@call INT@LBL1
  00000910            03286 F1_000148 equ $ ; IN [2HUM2TMP.bas] if t_flag = 1 THEN
0910   3001           03287         movlw 1
0911   025E           03288         subwf t_flag,W
                      03289         set@page BC@LL56
0914   1D03           03290         btfss STATUS,2
0915   2929           03291         goto BC@LL56
                      03292         f@call INT@LBL1
  00000918            03293 F1_000149 equ $ ; IN [2HUM2TMP.bas] PRINT AT 2,13, "on "
0918   3080           03294         movlw 128
0919   00A1           03295         movwf BPFH
091A   30CC           03296         movlw 204
                      03297         f@call LCD@CRS
091D   304F           03298         movlw 79
                      03299         f@call PRINT
0920   304E           03300         movlw 78
                      03301         f@call PRINT
0923   3020           03302         movlw 32
                      03303         f@call PRINT
                      03304         F@JUMP BC@LL57
0929                  03305 BC@LL56
  00000929            03306 F1_000150 equ $ ; IN [2HUM2TMP.bas] else
                      03307         f@call INT@LBL1
  0000092B            03308 F1_000151 equ $ ; IN [2HUM2TMP.bas] PRINT AT 2,13, "off"
092B   3080           03309         movlw 128
092C   00A1           03310         movwf BPFH
092D   30CC           03311         movlw 204
                      03312         f@call LCD@CRS
0930   304F           03313         movlw 79
                      03314         f@call PRINT
0933   3046           03315         movlw 70
                      03316         f@call PRINT
                      03317         f@call PRINT
  00000938            03318 F1_000152 equ $ ; IN [2HUM2TMP.bas] endif
0938                  03319 BC@LL57
                      03320         f@call INT@LBL1
  0000093A            03321 F1_000154 equ $ ; IN [2HUM2TMP.bas] if up_key = 1 THEN
                      03322         set@page BC@LL59
093C   1C86           03323         btfss PORTB,1
093D   2954           03324         goto BC@LL59
                      03325         f@call INT@LBL1
  00000940            03326 F1_000155 equ $ ; IN [2HUM2TMP.bas] if t_flag = 1 THEN
0940   3001           03327         movlw 1
0941   025E           03328         subwf t_flag,W
                      03329         set@page BC@LL61
0944   1D03           03330         btfss STATUS,2
0945   294E           03331         goto BC@LL61
                      03332         f@call INT@LBL1
  00000948            03333 F1_000156 equ $ ; IN [2HUM2TMP.bas] t_flag = 0
                      03334         f@call INT@LBL1
094A   01DE           03335         clrf t_flag
                      03336         F@JUMP BC@LL62
094E                  03337 BC@LL61
  0000094E            03338 F1_000157 equ $ ; IN [2HUM2TMP.bas] else
                      03339         f@call INT@LBL1
  00000950            03340 F1_000158 equ $ ; IN [2HUM2TMP.bas] t_flag = 1
                      03341         f@call INT@LBL1
0952   3001           03342         movlw 1
0953   00DE           03343         movwf t_flag
  00000954            03344 F1_000159 equ $ ; IN [2HUM2TMP.bas] endif
0954                  03345 BC@LL62
  00000954            03346 F1_000160 equ $ ; IN [2HUM2TMP.bas] endif
0954                  03347 BC@LL59
                      03348         f@call INT@LBL1
  00000956            03349 F1_000162 equ $ ; IN [2HUM2TMP.bas] DELAYMS 200
0956   30C8           03350         movlw 200
                      03351         f@call DL@MS
  00000959            03352 F1_000163 equ $ ; IN [2HUM2TMP.bas] WEND
                      03353         F@JUMP BC@LL53
095C                  03354 BC@LL54
                      03355         f@call INT@LBL1
  0000095E            03356 F1_000164 equ $ ; IN [2HUM2TMP.bas] EWRITE 7,[t_flag]
095E   3007           03357         movlw 7
095F   1703           03358         bsf STATUS,6
  00000002            03359 ram_bank = 2
0960   008D           03360         movwf EEADR
0961   1303           03361         bcf STATUS,6
  00000000            03362 ram_bank = 0
0962   085E           03363         movf t_flag,W
                      03364         f@call EE@WR
                      03365         f@call INT@LBL1
  00000967            03366 F1_000165 equ $ ; IN [2HUM2TMP.bas] DELAYMS 500
0967   3001           03367         movlw 1
0968   00B2           03368         movwf PP1H
0969   30F4           03369         movlw 244
                      03370         f@call DLY@W
                      03371         f@call INT@LBL1
  0000096E            03372 F1_000166 equ $ ; IN [2HUM2TMP.bas] CLS
                      03373         f@call LCD@CLS
                      03374         f@call INT@LBL1
  00000972            03375 F1_000168 equ $ ; IN [2HUM2TMP.bas] PRINT AT 1,1, "TEMP 1 setup:"
0972   3080           03376         movlw 128
0973   00A1           03377         movwf BPFH
                      03378         f@call LCD@CRS
0976   300B           03379         movlw high (STR@LB2)
0977   00A6           03380         movwf GEN4H
0978   3003           03381         movlw low (STR@LB2)
                      03382         f@call C@STROUT
                      03383         f@call INT@LBL1
  0000097D            03384 F1_000169 equ $ ; IN [2HUM2TMP.bas] while set_key = 0
097D                  03385 BC@LL63
                      03386         set@page BC@LL64
097F   1806           03387         btfsc PORTB,0
0980   29BA           03388         goto BC@LL64
                      03389         f@call INT@LBL1
  00000983            03390 F1_000170 equ $ ; IN [2HUM2TMP.bas] PRINT AT 2,1, DEC3 tmp1_alart_l, 223, "C"
0983   3080           03391         movlw 128
0984   00A1           03392         movwf BPFH
0985   30C0           03393         movlw 192
                      03394         f@call LCD@CRS
0988   3003           03395         movlw 3
0989   00A6           03396         movwf GEN4H
098A   0856           03397         movf tmp1_alart_l,W
                      03398         f@call OUT@DECC
098D   30DF           03399         movlw 223
                      03400         f@call PRINT
0990   3043           03401         movlw 67
                      03402         f@call PRINT
                      03403         f@call INT@LBL1
  00000995            03404 F1_000172 equ $ ; IN [2HUM2TMP.bas] if up_key = 1 THEN INC tmp1_alart_l
                      03405         set@page BC@LL66
0997   1C86           03406         btfss PORTB,1
0998   299C           03407         goto BC@LL66
                      03408         f@call INT@LBL1
099B   0AD6           03409         incf tmp1_alart_l,F
099C                  03410 BC@LL66
                      03411         f@call INT@LBL1
  0000099E            03412 F1_000173 equ $ ; IN [2HUM2TMP.bas] if tmp1_alart_l > 100 THEN tmp1_alart_l = 0
099E   3065           03413         movlw 101
099F   0256           03414         subwf tmp1_alart_l,W
                      03415         set@page BC@LL68
09A2   1C03           03416         btfss STATUS,0
09A3   29A9           03417         goto BC@LL68
                      03418         f@call INT@LBL1
                      03419         f@call INT@LBL1
09A8   01D6           03420         clrf tmp1_alart_l
09A9                  03421 BC@LL68
                      03422         f@call INT@LBL1
  000009AB            03423 F1_000174 equ $ ; IN [2HUM2TMP.bas] if down_key = 1 THEN DEC tmp1_alart_l
                      03424         set@page BC@LL70
09AD   1F87           03425         btfss PORTC,7
09AE   29B2           03426         goto BC@LL70
                      03427         f@call INT@LBL1
09B1   03D6           03428         decf tmp1_alart_l,F
09B2                  03429 BC@LL70
                      03430         f@call INT@LBL1
  000009B4            03431 F1_000176 equ $ ; IN [2HUM2TMP.bas] DELAYMS 200
09B4   30C8           03432         movlw 200
                      03433         f@call DL@MS
  000009B7            03434 F1_000177 equ $ ; IN [2HUM2TMP.bas] WEND
                      03435         F@JUMP BC@LL63
09BA                  03436 BC@LL64
                      03437         f@call INT@LBL1
  000009BC            03438 F1_000178 equ $ ; IN [2HUM2TMP.bas] EWRITE 0,[tmp1_alart_l]
09BC   1703           03439         bsf STATUS,6
  00000002            03440 ram_bank = 2
09BD   018D           03441         clrf EEADR
09BE   1303           03442         bcf STATUS,6
  00000000            03443 ram_bank = 0
09BF   0856           03444         movf tmp1_alart_l,W
                      03445         f@call EE@WR
                      03446         f@call INT@LBL1
  000009C4            03447 F1_000179 equ $ ; IN [2HUM2TMP.bas] DELAYMS 500
09C4   3001           03448         movlw 1
09C5   00B2           03449         movwf PP1H
09C6   30F4           03450         movlw 244
                      03451         f@call DLY@W
                      03452         f@call INT@LBL1
  000009CB            03453 F1_000181 equ $ ; IN [2HUM2TMP.bas] PRINT AT 1,1, "TEMP 2 setup:"
09CB   3080           03454         movlw 128
09CC   00A1           03455         movwf BPFH
                      03456         f@call LCD@CRS
09CF   300B           03457         movlw high (STR@LB3)
09D0   00A6           03458         movwf GEN4H
09D1   3011           03459         movlw low (STR@LB3)
                      03460         f@call C@STROUT
                      03461         f@call INT@LBL1
  000009D6            03462 F1_000182 equ $ ; IN [2HUM2TMP.bas] while set_key = 0
09D6                  03463 BC@LL71
                      03464         set@page BC@LL72
09D8   1806           03465         btfsc PORTB,0
09D9   2A13           03466         goto BC@LL72
                      03467         f@call INT@LBL1
  000009DC            03468 F1_000183 equ $ ; IN [2HUM2TMP.bas] PRINT AT 2,1, DEC3 tmp2_alart_l, 223, "C"
09DC   3080           03469         movlw 128
09DD   00A1           03470         movwf BPFH
09DE   30C0           03471         movlw 192
                      03472         f@call LCD@CRS
09E1   3003           03473         movlw 3
09E2   00A6           03474         movwf GEN4H
09E3   0857           03475         movf tmp2_alart_l,W
                      03476         f@call OUT@DECC
09E6   30DF           03477         movlw 223
                      03478         f@call PRINT
09E9   3043           03479         movlw 67
                      03480         f@call PRINT
                      03481         f@call INT@LBL1
  000009EE            03482 F1_000185 equ $ ; IN [2HUM2TMP.bas] if up_key = 1 THEN INC tmp2_alart_l
                      03483         set@page BC@LL74
09F0   1C86           03484         btfss PORTB,1
09F1   29F5           03485         goto BC@LL74
                      03486         f@call INT@LBL1
09F4   0AD7           03487         incf tmp2_alart_l,F
09F5                  03488 BC@LL74
                      03489         f@call INT@LBL1
  000009F7            03490 F1_000186 equ $ ; IN [2HUM2TMP.bas] if tmp2_alart_l > 100 THEN tmp2_alart_l = 0
09F7   3065           03491         movlw 101
09F8   0257           03492         subwf tmp2_alart_l,W
                      03493         set@page BC@LL76
09FB   1C03           03494         btfss STATUS,0
09FC   2A02           03495         goto BC@LL76
                      03496         f@call INT@LBL1
                      03497         f@call INT@LBL1
0A01   01D7           03498         clrf tmp2_alart_l
0A02                  03499 BC@LL76
                      03500         f@call INT@LBL1
  00000A04            03501 F1_000187 equ $ ; IN [2HUM2TMP.bas] if down_key = 1 THEN DEC tmp2_alart_l
                      03502         set@page BC@LL78
0A06   1F87           03503         btfss PORTC,7
0A07   2A0B           03504         goto BC@LL78
                      03505         f@call INT@LBL1
0A0A   03D7           03506         decf tmp2_alart_l,F
0A0B                  03507 BC@LL78
                      03508         f@call INT@LBL1
  00000A0D            03509 F1_000189 equ $ ; IN [2HUM2TMP.bas] DELAYMS 200
0A0D   30C8           03510         movlw 200
                      03511         f@call DL@MS
  00000A10            03512 F1_000190 equ $ ; IN [2HUM2TMP.bas] WEND
                      03513         F@JUMP BC@LL71
0A13                  03514 BC@LL72
                      03515         f@call INT@LBL1
  00000A15            03516 F1_000191 equ $ ; IN [2HUM2TMP.bas] EWRITE 1,[tmp2_alart_l]
0A15   3001           03517         movlw 1
0A16   1703           03518         bsf STATUS,6
  00000002            03519 ram_bank = 2
0A17   008D           03520         movwf EEADR
0A18   1303           03521         bcf STATUS,6
  00000000            03522 ram_bank = 0
0A19   0857           03523         movf tmp2_alart_l,W
                      03524         f@call EE@WR
                      03525         f@call INT@LBL1
  00000A1E            03526 F1_000192 equ $ ; IN [2HUM2TMP.bas] DELAYMS 500
0A1E   3001           03527         movlw 1
0A1F   00B2           03528         movwf PP1H
0A20   30F4           03529         movlw 244
                      03530         f@call DLY@W
                      03531         f@call INT@LBL1
  00000A25            03532 F1_000193 equ $ ; IN [2HUM2TMP.bas] CLS
                      03533         f@call LCD@CLS
                      03534         f@call INT@LBL1
  00000A29            03535 F1_000195 equ $ ; IN [2HUM2TMP.bas] PRINT AT 1,1, "humidity1 setup:"
0A29   3080           03536         movlw 128
0A2A   00A1           03537         movwf BPFH
                      03538         f@call LCD@CRS
0A2D   300B           03539         movlw high (STR@LB4)
0A2E   00A6           03540         movwf GEN4H
0A2F   301F           03541         movlw low (STR@LB4)
                      03542         f@call C@STROUT
                      03543         f@call INT@LBL1
  00000A34            03544 F1_000196 equ $ ; IN [2HUM2TMP.bas] while set_key = 0
0A34                  03545 BC@LL79
                      03546         set@page BC@LL80
0A36   1806           03547         btfsc PORTB,0
0A37   2A6E           03548         goto BC@LL80
                      03549         f@call INT@LBL1
  00000A3A            03550 F1_000197 equ $ ; IN [2HUM2TMP.bas] PRINT AT 2,1, DEC3 hum1_alart_l, "%"
0A3A   3080           03551         movlw 128
0A3B   00A1           03552         movwf BPFH
0A3C   30C0           03553         movlw 192
                      03554         f@call LCD@CRS
0A3F   3003           03555         movlw 3
0A40   00A6           03556         movwf GEN4H
0A41   0858           03557         movf hum1_alart_l,W
                      03558         f@call OUT@DECC
0A44   3025           03559         movlw 37
                      03560         f@call PRINT
                      03561         f@call INT@LBL1
  00000A49            03562 F1_000199 equ $ ; IN [2HUM2TMP.bas] if up_key = 1 THEN INC hum1_alart_l
                      03563         set@page BC@LL82
0A4B   1C86           03564         btfss PORTB,1
0A4C   2A50           03565         goto BC@LL82
                      03566         f@call INT@LBL1
0A4F   0AD8           03567         incf hum1_alart_l,F
0A50                  03568 BC@LL82
                      03569         f@call INT@LBL1
  00000A52            03570 F1_000200 equ $ ; IN [2HUM2TMP.bas] if hum1_alart_l > 100 THEN hum1_alart_l = 0
0A52   3065           03571         movlw 101
0A53   0258           03572         subwf hum1_alart_l,W
                      03573         set@page BC@LL84
0A56   1C03           03574         btfss STATUS,0
0A57   2A5D           03575         goto BC@LL84
                      03576         f@call INT@LBL1
                      03577         f@call INT@LBL1
0A5C   01D8           03578         clrf hum1_alart_l
0A5D                  03579 BC@LL84
                      03580         f@call INT@LBL1
  00000A5F            03581 F1_000201 equ $ ; IN [2HUM2TMP.bas] if down_key = 1 THEN DEC hum1_alart_l
                      03582         set@page BC@LL86
0A61   1F87           03583         btfss PORTC,7
0A62   2A66           03584         goto BC@LL86
                      03585         f@call INT@LBL1
0A65   03D8           03586         decf hum1_alart_l,F
0A66                  03587 BC@LL86
                      03588         f@call INT@LBL1
  00000A68            03589 F1_000203 equ $ ; IN [2HUM2TMP.bas] DELAYMS 200
0A68   30C8           03590         movlw 200
                      03591         f@call DL@MS
  00000A6B            03592 F1_000204 equ $ ; IN [2HUM2TMP.bas] WEND
                      03593         F@JUMP BC@LL79
0A6E                  03594 BC@LL80
                      03595         f@call INT@LBL1
  00000A70            03596 F1_000205 equ $ ; IN [2HUM2TMP.bas] EWRITE 2,[hum1_alart_l]
0A70   3002           03597         movlw 2
0A71   1703           03598         bsf STATUS,6
  00000002            03599 ram_bank = 2
0A72   008D           03600         movwf EEADR
0A73   1303           03601         bcf STATUS,6
  00000000            03602 ram_bank = 0
0A74   0858           03603         movf hum1_alart_l,W
                      03604         f@call EE@WR
                      03605         f@call INT@LBL1
  00000A79            03606 F1_000206 equ $ ; IN [2HUM2TMP.bas] DELAYMS 500
0A79   3001           03607         movlw 1
0A7A   00B2           03608         movwf PP1H
0A7B   30F4           03609         movlw 244
                      03610         f@call DLY@W
                      03611         f@call INT@LBL1
  00000A80            03612 F1_000208 equ $ ; IN [2HUM2TMP.bas] PRINT AT 1,1, "humidity2 setup:"
0A80   3080           03613         movlw 128
0A81   00A1           03614         movwf BPFH
                      03615         f@call LCD@CRS
0A84   300B           03616         movlw high (STR@LB5)
0A85   00A6           03617         movwf GEN4H
0A86   3030           03618         movlw low (STR@LB5)
                      03619         f@call C@STROUT
                      03620         f@call INT@LBL1
  00000A8B            03621 F1_000209 equ $ ; IN [2HUM2TMP.bas] while set_key = 0
0A8B                  03622 BC@LL87
                      03623         set@page BC@LL88
0A8D   1806           03624         btfsc PORTB,0
0A8E   2AC5           03625         goto BC@LL88
                      03626         f@call INT@LBL1
  00000A91            03627 F1_000210 equ $ ; IN [2HUM2TMP.bas] PRINT AT 2,1, DEC3 hum2_alart_l, "%"
0A91   3080           03628         movlw 128
0A92   00A1           03629         movwf BPFH
0A93   30C0           03630         movlw 192
                      03631         f@call LCD@CRS
0A96   3003           03632         movlw 3
0A97   00A6           03633         movwf GEN4H
0A98   0859           03634         movf hum2_alart_l,W
                      03635         f@call OUT@DECC
0A9B   3025           03636         movlw 37
                      03637         f@call PRINT
                      03638         f@call INT@LBL1
  00000AA0            03639 F1_000212 equ $ ; IN [2HUM2TMP.bas] if up_key = 1 THEN INC hum2_alart_l
                      03640         set@page BC@LL90
0AA2   1C86           03641         btfss PORTB,1
0AA3   2AA7           03642         goto BC@LL90
                      03643         f@call INT@LBL1
0AA6   0AD9           03644         incf hum2_alart_l,F
0AA7                  03645 BC@LL90
                      03646         f@call INT@LBL1
  00000AA9            03647 F1_000213 equ $ ; IN [2HUM2TMP.bas] if hum2_alart_l > 100 THEN hum2_alart_l = 0
0AA9   3065           03648         movlw 101
0AAA   0259           03649         subwf hum2_alart_l,W
                      03650         set@page BC@LL92
0AAD   1C03           03651         btfss STATUS,0
0AAE   2AB4           03652         goto BC@LL92
                      03653         f@call INT@LBL1
                      03654         f@call INT@LBL1
0AB3   01D9           03655         clrf hum2_alart_l
0AB4                  03656 BC@LL92
                      03657         f@call INT@LBL1
  00000AB6            03658 F1_000214 equ $ ; IN [2HUM2TMP.bas] if down_key = 1 THEN DEC hum2_alart_l
                      03659         set@page BC@LL94
0AB8   1F87           03660         btfss PORTC,7
0AB9   2ABD           03661         goto BC@LL94
                      03662         f@call INT@LBL1
0ABC   03D9           03663         decf hum2_alart_l,F
0ABD                  03664 BC@LL94
                      03665         f@call INT@LBL1
  00000ABF            03666 F1_000216 equ $ ; IN [2HUM2TMP.bas] DELAYMS 200
0ABF   30C8           03667         movlw 200
                      03668         f@call DL@MS
  00000AC2            03669 F1_000217 equ $ ; IN [2HUM2TMP.bas] WEND
                      03670         F@JUMP BC@LL87
0AC5                  03671 BC@LL88
                      03672         f@call INT@LBL1
  00000AC7            03673 F1_000218 equ $ ; IN [2HUM2TMP.bas] EWRITE 3,[hum2_alart_l]
0AC7   3003           03674         movlw 3
0AC8   1703           03675         bsf STATUS,6
  00000002            03676 ram_bank = 2
0AC9   008D           03677         movwf EEADR
0ACA   1303           03678         bcf STATUS,6
  00000000            03679 ram_bank = 0
0ACB   0859           03680         movf hum2_alart_l,W
                      03681         f@call EE@WR
                      03682         f@call INT@LBL1
  00000AD0            03683 F1_000219 equ $ ; IN [2HUM2TMP.bas] DELAYMS 500
0AD0   3001           03684         movlw 1
0AD1   00B2           03685         movwf PP1H
0AD2   30F4           03686         movlw 244
                      03687         f@call DLY@W
                      03688         f@call INT@LBL1
  00000AD7            03689 F1_000220 equ $ ; IN [2HUM2TMP.bas] CLS
                      03690         f@call LCD@CLS
                      03691         f@call INT@LBL1
  00000ADB            03692 F1_000221 equ $ ; IN [2HUM2TMP.bas] return
0ADB   0008           03693         return
  00000ADC            03694 F1_000223 equ $ ; IN [2HUM2TMP.bas] DISABLE
0ADC                  03695 update
  00000ADC            03696 F1_000225 equ $ ; IN [2HUM2TMP.bas] if TMR2IF = 1 THEN
                      03697         set@page BC@LL96
0ADE   1C8C           03698         btfss PIR1,1
0ADF   2AF0           03699         goto BC@LL96
  00000AE0            03700 F1_000226 equ $ ; IN [2HUM2TMP.bas] TMR2IF = 0
0AE0   108C           03701         bcf PIR1,1
  00000AE1            03702 F1_000227 equ $ ; IN [2HUM2TMP.bas] if t_flag = 1 THEN
0AE1   3001           03703         movlw 1
0AE2   025E           03704         subwf t_flag,W
                      03705         set@page BC@LL98
0AE5   1D03           03706         btfss STATUS,2
0AE6   2AF0           03707         goto BC@LL98
  00000AE7            03708 F1_000228 equ $ ; IN [2HUM2TMP.bas] INC cnt
0AE7   0ADD           03709         incf cnt,F
  00000AE8            03710 F1_000229 equ $ ; IN [2HUM2TMP.bas] if cnt = 10 THEN cnt = 0 : sec_f = 1
0AE8   300A           03711         movlw 10
0AE9   025D           03712         subwf cnt,W
                      03713         set@page BC@LL100
0AEC   1D03           03714         btfss STATUS,2
0AED   2AF0           03715         goto BC@LL100
0AEE   01DD           03716         clrf cnt
0AEF   145F           03717         bsf _B#VR1,0
0AF0                  03718 BC@LL100
  00000AF0            03719 F1_000230 equ $ ; IN [2HUM2TMP.bas] endif
0AF0                  03720 BC@LL98
  00000AF0            03721 F1_000231 equ $ ; IN [2HUM2TMP.bas] endif
0AF0                  03722 BC@LL96
  00000AF0            03723 F1_000232 equ $ ; IN [2HUM2TMP.bas] ENABLE
  00000AF0            03724 F1_000233 equ $ ; IN [2HUM2TMP.bas] RESUME
0AF0   0009           03725         retfie
  00000AF1            03726 F1_EOF equ $ ; 2HUM2TMP.bas
0AF1                  03727 PB@LB102
                      03728         f@call INT@LBL1
                      03729         F@JUMP PB@LB102
0AF6                  03731 STR@LB1
0AF6   0054 0069 006D 03732         de 84,105,109,101,114,32,115,101,116,117,112,58,0
       0065 0072 0020 
       0073 0065 0074 
       0075 0070 003A 
       0000 
0B03                  03733 STR@LB2
0B03   0054 0065 006D 03734         de 84,101,109,112,32,49,32,83,101,116,117,112,58,0
       0070 0020 0031 
       0020 0053 0065 
       0074 0075 0070 
       003A 0000 
0B11                  03735 STR@LB3
0B11   0054 0065 006D 03736         de 84,101,109,112,32,50,32,83,101,116,117,112,58,0
       0070 0020 0032 
       0020 0053 0065 
       0074 0075 0070 
       003A 0000 
0B1F                  03737 STR@LB4
0B1F   0048 0075 006D 03738         de 72,117,109,105,100,105,116,121,49,32,83,101,116,117,112,58,0
       0069 0064 0069 
       0074 0079 0031 
       0020 0053 0065 
       0074 0075 0070 
       003A 0000 
0B30                  03739 STR@LB5
0B30   0048 0075 006D 03740         de 72,117,109,105,100,105,116,121,50,32,83,101,116,117,112,58,0
       0069 0064 0069 
       0074 0079 0032 
       0020 0053 0065 
       0074 0075 0070 
       003A 0000 
0B41                  03741 __EOF
2007   1F3A           03742 __config FOSC_HS&WDTE_OFF&PWRTE_OFF&BOREN_OFF&LVP_OFF&CPD_OFF&WRT_OFF&DEBUG_OFF&CP_ON
                      03743         end
MPASM  5.42                               A.S   1-19-2018  22:31:09         PAGE  2


SYMBOL TABLE
  LABEL                             VALUE 

ACKDT                             00000005
ACKEN                             00000004
ACKSTAT                           00000006
ADCON0                            0000001F
ADCON1                            0000009F
ADCS0                             00000006
ADCS1                             00000007
ADCS2                             00000006
ADDEN                             00000003
ADFM                              00000007
ADIE                              00000006
ADIF                              00000006
ADIN_RES                          0000000A
ADIN_STIME                        00000032
ADIN_TAD                          00000003
ADON                              00000000
ADRESH                            0000001E
ADRESL                            0000009E
ADRESLH                           0000001E
ALARM_F                           _B#VR1,1
BANK0_END                         0X7F
BANK0_START                       0X20
BANK1_END                         0X00EF
BANK1_START                       0X00A0
BANK2_END                         0X016F
BANK2_START                       0X0110
BANK3_END                         0X01EF
BANK3_START                       0X0190
BAS                               000000A1
BC@LL10                           0000038F
BC@LL100                          00000AF0
BC@LL11                           00000399
BC@LL13                           000004F5
BC@LL2                            00000348
BC@LL21                           0000053C
BC@LL22                           00000546
BC@LL24                           00000702
BC@LL25                           0000070C
BC@LL27                           0000071A
BC@LL28                           0000071F
BC@LL30                           0000078C
BC@LL32                           000007EB
BC@LL34                           000007AF
BC@LL36                           000007EB
BC@LL37                           0000081A
BC@LL38                           00000876
BC@LL40                           0000084A
BC@LL42                           00000862
BC@LL44                           0000086E
BC@LL45                           0000088B
BC@LL46                           000008D7
BC@LL48                           000008B9
BC@LL50                           000008C6
BC@LL52                           000008CF
BC@LL53                           000008E9
BC@LL54                           0000095C
BC@LL56                           00000929
BC@LL57                           00000938
BC@LL59                           00000954
BC@LL61                           0000094E
BC@LL62                           00000954
BC@LL63                           0000097D
BC@LL64                           000009BA
BC@LL66                           0000099C
BC@LL68                           000009A9
BC@LL70                           000009B2
BC@LL71                           000009D6
BC@LL72                           00000A13
BC@LL74                           000009F5
BC@LL76                           00000A02
BC@LL78                           00000A0B
BC@LL79                           00000A34
BC@LL80                           00000A6E
BC@LL82                           00000A50
BC@LL84                           00000A5D
BC@LL86                           00000A66
BC@LL87                           00000A8B
BC@LL88                           00000AC5
BC@LL90                           00000AA7
BC@LL92                           00000AB4
BC@LL94                           00000ABD
BC@LL96                           00000AF0
BC@LL98                           00000AF0
BCLIE                             00000003
BCLIF                             00000003
BF                                00000000
BIT_BIT                           
BIT_BYTE                          
BIT_DWORD                         
BIT_WORD                          
BIT_WREG                          
BODEN_OFF                         00003FBF
BODEN_ON                          00003FFF
BOREN_OFF                         00003FBF
BOREN_ON                          00003FFF
BPF                               00000020
BPFH                              00000021
BRGH                              00000002
BUZZER                            PORTC,6
BYTE_BIT                          
BYTE_BYTE                         
BYTE_DWORD                        
BYTE_WORD                         
BYTE_WREG                         
C                                 00000000
C1INV                             00000004
C1OUT                             00000006
C2INV                             00000005
C2OUT                             00000007
C@READ                            000000E2
C@STROUT                          000000CF
C@STROUTLP                        000000D1
C@STROUTW                         000000D0
CCP1CON                           00000017
CCP1IE                            00000002
CCP1IF                            00000002
CCP1M0                            00000000
CCP1M1                            00000001
CCP1M2                            00000002
CCP1M3                            00000003
CCP1X                             00000005
CCP1Y                             00000004
CCP2CON                           0000001D
CCP2IE                            00000000
CCP2IF                            00000000
CCP2M0                            00000000
CCP2M1                            00000001
CCP2M2                            00000002
CCP2M3                            00000003
CCP2X                             00000005
CCP2Y                             00000004
CCPR1H                            00000016
CCPR1L                            00000015
CCPR1LH                           00000016
CCPR2H                            0000001C
CCPR2L                            0000001B
CCPR2LH                           0000001C
CH@SND                            00000095
CHS0                              00000003
CHS1                              00000004
CHS2                              00000005
CIS                               00000003
CKE                               00000006
CKP                               00000004
CLS                               00000007
CM0                               00000000
CM1                               00000001
CM2                               00000002
CMCON                             0000009C
CMIE                              00000006
CMIF                              00000006
CNT                               0000005D
CONFIG_REQ                        1
CP@LB2                            000006F5
CP@LB3                            000007C1
CP@LB5                            0000085C
CPD_OFF                           00003FFF
CPD_ON                            00003EFF
CP_ALL                            00001FFF
CP_OFF                            00003FFF
CP_ON                             00001FFF
CREN                              00000004
CSRC                              00000007
CSTR#CT                           00000022
CT@LB17                           00000511
CT@LB20                           00000549
CT@LB6                            00000364
CT@LB9                            0000039C
CURRENT@PAGE                      00000000
CURS@                             00000011
CVR0                              00000000
CVR1                              00000001
CVR2                              00000002
CVR3                              00000003
CVRCON                            0000009D
CVREN                             00000007
CVROE                             00000006
CVRR                              00000005
D@DIG                             0000002F
D@VD                              0000011F
D@VD2                             00000121
DATA_ADDRESS                      00000005
DC                                00000001
DEBUG_OFF                         00003FFF
DEBUG_ON                          000037FF
DEST@PAGE                         00000000
DHT                               00000060
DHT#0                             00000060
DHT#1                             00000061
DHT#10                            0000006A
DHT#11                            0000006B
DHT#12                            0000006C
DHT#13                            0000006D
DHT#14                            0000006E
DHT#15                            0000006F
DHT#16                            00000070
DHT#17                            00000071
DHT#18                            00000072
DHT#19                            00000073
DHT#2                             00000062
DHT#20                            00000074
DHT#21                            00000075
DHT#22                            00000076
DHT#23                            00000077
DHT#24                            00000078
DHT#25                            00000079
DHT#26                            0000007A
DHT#27                            0000007B
DHT#28                            0000007C
DHT#29                            0000007D
DHT#3                             00000063
DHT#30                            0000007E
DHT#31                            0000007F
DHT#4                             00000064
DHT#5                             00000065
DHT#6                             00000066
DHT#7                             00000067
DHT#8                             00000068
DHT#9                             00000069
DHT11_DIR1                        TRISA,2
DHT11_DIR2                        TRISA,5
DHT11_PIN1                        PORTA,2
DHT11_PIN2                        PORTA,5
DL@MS                             000000FE
DL@US                             0000010B
DLUS@W                            0000010C
DLY@P                             00000100
DLY@W                             000000FF
DOWN_KEY                          PORTC,7
DWORD_BIT                         
DWORD_BYTE                        
DWORD_DWORD                       
DWORD_WORD                        
DWORD_WREG                        
D_A                               00000005
EE@RD                             000000B5
EE@RD@W                           000000B7
EE@WR                             000000BF
EE@WR@W                           000000BF
EEADR                             0000010D
EEADRH                            0000010F
EECON1                            0000018C
EECON2                            0000018D
EEDAT                             0000010C
EEDATA                            0000010C
EEDATH                            0000010E
EEDATL                            0000010C
EEDATLH                           0000010E
EEIE                              00000004
EEIF                              00000004
EEPGD                             00000007
EX@SEND@IT                        00000047
F1_000008                         0000025C
F1_000014                         00000269
F1_000015                         00000271
F1_000016                         00000277
F1_000017                         0000027F
F1_000018                         00000286
F1_000030                         0000028C
F1_000031                         00000296
F1_000032                         000002A0
F1_000033                         000002AA
F1_000034                         000002B4
F1_000051                         000002BE
F1_000052                         000002C6
F1_000053                         000002CE
F1_000054                         000002D6
F1_000055                         000002DE
F1_000056                         000002E9
F1_000057                         000002F1
F1_000059                         000002F9
F1_000060                         000002FE
F1_000062                         00000303
F1_000063                         00000306
F1_000068                         0000066C
F1_000069                         00000676
F1_000071                         000006A7
F1_000072                         000006B1
F1_000074                         000006E2
F1_000075                         000006E6
F1_000077                         000006EA
F1_000078                         000006F7
F1_000079                         000006FC
F1_000080                         00000702
F1_000081                         00000704
F1_000082                         00000709
F1_000083                         0000070C
F1_000085                         0000070E
F1_000086                         00000714
F1_000087                         0000071A
F1_000088                         0000071C
F1_000089                         0000071F
F1_000091                         00000721
F1_000092                         00000735
F1_000094                         0000074A
F1_000095                         0000075B
F1_000097                         0000076C
F1_000099                         00000783
F1_000101                         0000078E
F1_000102                         0000079E
F1_000103                         000007B1
F1_000104                         000007B4
F1_000105                         000007B9
F1_000106                         000007CE
F1_000107                         000007D9
F1_000108                         000007E1
F1_000109                         000007E7
F1_000110                         000007EB
F1_000111                         000007EB
F1_000112                         000007ED
F1_000115                         000007F1
F1_000116                         000007FC
F1_000117                         00000804
F1_000118                         00000808
F1_000120                         0000080F
F1_000121                         0000081A
F1_000122                         00000820
F1_000124                         00000841
F1_000125                         0000084C
F1_000126                         00000864
F1_000128                         00000870
F1_000129                         00000873
F1_000130                         00000878
F1_000131                         00000884
F1_000133                         0000088B
F1_000134                         00000891
F1_000136                         000008B2
F1_000137                         000008BB
F1_000138                         000008C8
F1_000140                         000008D1
F1_000141                         000008D4
F1_000142                         000008D9
F1_000143                         000008E2
F1_000145                         000008E9
F1_000146                         000008EF
F1_000148                         00000910
F1_000149                         00000918
F1_000150                         00000929
F1_000151                         0000092B
F1_000152                         00000938
F1_000154                         0000093A
F1_000155                         00000940
F1_000156                         00000948
F1_000157                         0000094E
F1_000158                         00000950
F1_000159                         00000954
F1_000160                         00000954
F1_000162                         00000956
F1_000163                         00000959
F1_000164                         0000095E
F1_000165                         00000967
F1_000166                         0000096E
F1_000168                         00000972
F1_000169                         0000097D
F1_000170                         00000983
F1_000172                         00000995
F1_000173                         0000099E
F1_000174                         000009AB
F1_000176                         000009B4
F1_000177                         000009B7
F1_000178                         000009BC
F1_000179                         000009C4
F1_000181                         000009CB
F1_000182                         000009D6
F1_000183                         000009DC
F1_000185                         000009EE
F1_000186                         000009F7
F1_000187                         00000A04
F1_000189                         00000A0D
F1_000190                         00000A10
F1_000191                         00000A15
F1_000192                         00000A1E
F1_000193                         00000A25
F1_000195                         00000A29
F1_000196                         00000A34
F1_000197                         00000A3A
F1_000199                         00000A49
F1_000200                         00000A52
F1_000201                         00000A5F
F1_000203                         00000A68
F1_000204                         00000A6B
F1_000205                         00000A70
F1_000206                         00000A79
F1_000208                         00000A80
F1_000209                         00000A8B
F1_000210                         00000A91
F1_000212                         00000AA0
F1_000213                         00000AA9
F1_000214                         00000AB6
F1_000216                         00000ABF
F1_000217                         00000AC2
F1_000218                         00000AC7
F1_000219                         00000AD0
F1_000220                         00000AD7
F1_000221                         00000ADB
F1_000223                         00000ADC
F1_000225                         00000ADC
F1_000226                         00000AE0
F1_000227                         00000AE1
F1_000228                         00000AE7
F1_000229                         00000AE8
F1_000230                         00000AF0
F1_000231                         00000AF0
F1_000232                         00000AF0
F1_000233                         00000AF0
F1_EOF                            00000AF1
F1_SOF                            0000025C
F2_EOF                            0000025C
F2_SOF                            0000025C
F3_000016                         0000030D
F3_000019                         00000312
F3_000020                         00000319
F3_000021                         00000323
F3_000023                         0000032D
F3_000024                         0000033C
F3_000026                         0000034A
F3_000027                         00000350
F3_000028                         00000364
F3_000030                         0000036E
F3_000031                         00000374
F3_000032                         00000383
F3_000033                         0000038F
F3_000034                         00000391
F3_000035                         00000399
F3_000036                         0000039C
F3_000038                         000003A6
F3_000039                         00000431
F3_000040                         000004BC
F3_000043                         000004BF
F3_000044                         000004C6
F3_000045                         000004D0
F3_000047                         000004DA
F3_000048                         000004E9
F3_000050                         000004F7
F3_000051                         000004FD
F3_000052                         00000511
F3_000054                         0000051B
F3_000055                         00000521
F3_000056                         00000530
F3_000057                         0000053C
F3_000058                         0000053E
F3_000059                         00000546
F3_000060                         00000549
F3_000062                         00000553
F3_000063                         000005DE
F3_000064                         00000669
F3_EOF                            0000066A
F3_SOF                            0000030B
F@CALL                            
F@JUMP                            
FERR                              00000002
FI@ASSIGNW                        000001FB
FI@L10                            000001C7
FI@L15                            000001CB
FI@L16                            000001D3
FI@L3                             000001A7
FI@L30                            000001DE
FI@L32                            000001F7
FI@L5                             000001BB
FI@L7                             000001B3
FI@L8                             000001C8
FI@OVERFLOW                       000001F9
FIND@PAGE                         
FL32@TOINT32                      0000019E
FL@ST                             000000A6
FOSC_EXTRC                        00003FFF
FOSC_HS                           00003FFE
FOSC_LP                           00003FFC
FOSC_XT                           00003FFD
FPM@32                            0000013F
FPM@L12                           0000016F
FPM@L14                           0000017E
FPM@L28                           0000018F
FPM@L3                            00000152
FPM@L30                           0000019D
FPM@L8                            00000155
FPM@L9                            00000160
FPM@MANTISSA                      00000196
FPM@OVERFLOW                      00000193
FPM@RES0                          00000191
FPM@SET_SIGN                      0000019A
FPM@UNDERFLOW                     00000190
FR@LB15                           000004FA
FR@LB18                           0000051E
FR@LB4                            0000034D
FR@LB7                            00000371
FSR                               00000004
GCEN                              00000007
GEN                               00000023
GEN3H                             00000024
GEN4                              00000025
GEN4H                             00000026
GIE                               00000007
GO                                00000002
GO_DONE                           00000002
HAUT                              000000A0
HS_OSC                            00003FFE
HUM1_ALART_L                      00000058
HUM1_RLY                          PORTC,2
HUM2_ALART_L                      00000059
HUM2_RLY                          PORTC,3
HUMIDITY1                         000000A3
HUMIDITY2                         000000A5
I2C_DATA                          00000005
I2C_READ                          00000002
I2C_START                         00000003
I2C_STOP                          00000004
I@NT                              0000013B
I@NT2                             0000013C
IF@EXIT                           0000024D
IF@L17                            00000225
IF@L18                            00000243
IF@L20                            0000023F
IF@L22                            0000023E
IF@L24                            0000024B
IF@L4                             00000212
IF@L5                             00000213
IF@L7                             0000022E
INDF                              00000000
INT16@TOFL32                      00000200
INT32@TOFL32                      00000202
INT@LBL1                          00000262
INT@LBL2                          00000267
INTCON                            0000000B
INTE                              00000004
INTEDG                            00000006
INTF                              00000001
IRP                               00000007
JUMP                              
LABEL_WORD                        
LCD#DTPIN                         4
LCD#DTPORT                        PORTB
LCD#ENPIN                         3
LCD#ENPORT                        PORTB
LCD#INTERFACE                     4
LCD#RSPIN                         2
LCD#RSPORT                        PORTB
LCD#TYPE                          0
LCD@CLS                           00000005
LCD@CRS                           0000000F
LP_OSC                            00003FFC
LVP_OFF                           00003F7F
LVP_ON                            00003FFF
M@LB1                             000003B9
M@LB10                            0000057B
M@LB11                            00000590
M@LB12                            000005A5
M@LB13                            000005F1
M@LB14                            00000606
M@LB15                            0000061B
M@LB16                            00000630
M@LB2                             000003CE
M@LB3                             000003E3
M@LB4                             000003F8
M@LB5                             00000444
M@LB6                             00000459
M@LB7                             0000046E
M@LB8                             00000483
M@LB9                             00000566
MAIN                              0000066A
MM                                0000005A
MMH                               0000005B
NOT_A                             00000005
NOT_ADDRESS                       00000005
NOT_BO                            00000000
NOT_BOR                           00000000
NOT_DONE                          00000002
NOT_PD                            00000003
NOT_POR                           00000001
NOT_RBPU                          00000007
NOT_RC8                           00000006
NOT_T1SYNC                        00000002
NOT_TO                            00000004
NOT_TX8                           00000006
NOT_W                             00000002
NOT_WRITE                         00000002
NUM_BIT                           
NUM_BYTE                          
NUM_DWORD                         
NUM_FSR                           
NUM_WORD                          
NUM_WREG                          
NX@LB16                           00000519
NX@LB19                           00000551
NX@LB5                            0000036C
NX@LB8                            000003A4
OERR                              00000001
OPTION_REG                        00000081
OUT@DEC                           00000019
OUT@DECB                          00000016
OUT@DECC                          00000017
P@IN                              00000098
PB@LB102                          00000AF1
PBP#VAR0                          00000027
PBP#VAR1                          00000028
PBP#VAR2                          00000029
PBP#VAR3                          0000002A
PBP#VAR4                          0000002B
PBP#VAR5                          0000002C
PBP#VAR6                          0000002D
PBP#VAR7                          0000002E
PCFG0                             00000000
PCFG1                             00000001
PCFG2                             00000002
PCFG3                             00000003
PCL                               00000002
PCLATH                            0000000A
PCON                              0000008E
PDESTINATION@PAGE                 00000000
PEIE                              00000006
PEN                               00000002
PIE1                              0000008C
PIE2                              0000008D
PIR1                              0000000C
PIR2                              0000000D
PORTA                             00000005
PORTB                             00000006
PORTC                             00000007
PP0                               0000002F
PP0H                              00000030
PP1                               00000031
PP1H                              00000032
PP2                               00000033
PP2H                              00000034
PP3                               00000035
PP3H                              00000036
PP4                               00000037
PP5                               00000038
PP6                               00000039
PP6H                              0000003A
PP7                               0000003B
PP7H                              0000003C
PP7HH                             0000003D
PP7HHH                            0000003E
PP8                               0000003F
PP8H                              00000040
PPZ                               00000041
PPZH                              00000042
PPZHH                             00000043
PP_AARG                           00000044
PP_AARGH                          00000045
PP_AARGHH                         00000046
PP_AARGHHH                        00000047
PP_ACKDT                          00000005
PP_ACKEN                          00000004
PP_ACKSTAT                        00000006
PP_BARG                           00000048
PP_BARGH                          00000049
PP_BARGHH                         0000004A
PP_BARGHHH                        0000004B
PP_BF                             00000000
PP_CREN                           00000004
PP_EEPGD                          00000007
PP_GO_DONE                        00000002
PP_OERR                           00000001
PP_PEN                            00000002
PP_RCEN                           00000003
PP_RCIF                           00000005
PP_RD                             00000000
PP_RSEN                           00000001
PP_R_W                            00000002
PP_SEN                            00000000
PP_T2CKPS0                        00000000
PP_T2CKPS1                        00000001
PP_TMR2ON                         00000002
PP_TXIF                           00000004
PP_WR                             00000001
PP_WREN                           00000002
PP_WRERR                          00000003
PR2                               00000092
PR@EX                             00000093
PR@LP                             00000086
PRINT                             00000048
PRIT@SKP                          00000080
PROTON#CODE#START                 00000000
PROTON#MAIN#START                 00000258
PRT@1                             00000072
PRT@C                             00000071
PRT@S                             00000085
PS0                               00000000
PS1                               00000001
PS2                               00000002
PSA                               00000003
PWRTE_OFF                         00003FFF
PWRTE_ON                          00003FF7
R@B                               
RAM_BANK                          00000000
RAM_BANKS                         4
RBIE                              00000003
RBIF                              00000000
RC8_9                             00000006
RC9                               00000006
RCD8                              00000000
RCEN                              00000003
RCIE                              00000005
RCIF                              00000005
RCREG                             0000001A
RCSTA                             00000018
RC_OSC                            00003FFF
RD                                00000000
RD@AD                             000000EB
READ_DHT11_1                      00000310
READ_DHT11_2                      000004BD
READ_WRITE                        00000002
RP0                               00000005
RP1                               00000006
RSEN                              00000001
RX9                               00000006
RX9D                              00000000
R_W                               00000002
S@B                               
SEC_F                             _B#VR1,0
SEN                               00000000
SEND@IT                           00000036
SET@PAGE                          
SETUP                             000007EF
SET_KEY                           PORTB,0
SMP                               00000007
SP#P9                             0000004C
SPBRG                             00000099
SPEN                              00000007
SREN                              00000005
SS                                0000005C
SSPADD                            00000093
SSPBUF                            00000013
SSPCON                            00000014
SSPCON2                           00000091
SSPEN                             00000005
SSPIE                             00000003
SSPIF                             00000003
SSPM0                             00000000
SSPM1                             00000001
SSPM2                             00000002
SSPM3                             00000003
SSPOV                             00000006
SSPSTAT                           00000094
STATUS                            00000003
STR@LB1                           00000AF6
STR@LB2                           00000B03
STR@LB3                           00000B11
STR@LB4                           00000B1F
STR@LB5                           00000B30
SYNC                              00000004
T0CS                              00000005
T0IE                              00000005
T0IF                              00000002
T0SE                              00000004
T1CKPS0                           00000004
T1CKPS1                           00000005
T1CON                             00000010
T1INSYNC                          00000002
T1OSCEN                           00000003
T1SYNC                            00000002
T2CKPS0                           00000000
T2CKPS1                           00000001
T2CON                             00000012
TEMP1                             000000A2
TEMP2                             000000A4
TMP1                              00000052
TMP1H                             00000053
TMP1_ALART_L                      00000056
TMP1_RLY                          PORTC,0
TMP2                              00000054
TMP2H                             00000055
TMP2_ALART_L                      00000057
TMP2_RLY                          PORTC,1
TMR0                              00000001
TMR0IE                            00000005
TMR0IF                            00000002
TMR1CS                            00000001
TMR1H                             0000000F
TMR1IE                            00000000
TMR1IF                            00000000
TMR1L                             0000000E
TMR1LH                            0000000F
TMR1ON                            00000000
TMR2                              00000011
TMR2IE                            PIE1,1
TMR2IF                            PIR1,1
TMR2ON                            00000002
TMR_RLY1                          PORTC,4
TMR_RLY2                          PORTC,5
TOUTPS0                           00000003
TOUTPS1                           00000004
TOUTPS2                           00000005
TOUTPS3                           00000006
TRISA                             00000085
TRISB                             00000086
TRISC                             00000087
TRMT                              00000001
TX8_9                             00000006
TX9                               00000006
TX9D                              00000000
TXD8                              00000000
TXEN                              00000005
TXIE                              00000004
TXIF                              00000004
TXREG                             00000019
TXSTA                             00000098
T_FLAG                            0000005E
UA                                00000001
UPDATE                            00000ADC
UP_KEY                            PORTB,1
WCOL                              00000007
WDTE_OFF                          00003FFB
WDTE_ON                           00003FFF
WDT_OFF                           00003FFB
WDT_ON                            00003FFF
WORD_BIT                          
WORD_BYTE                         
WORD_DWORD                        
WORD_WORD                         
WORD_WREG                         
WR                                00000001
WREG_BIT                          
WREG_BYTE                         
WREG_DWORD                        
WREG_WORD                         
WREN                              00000002
WRERR                             00000003
WRT_1FOURTH                       00003BFF
WRT_256                           00003DFF
WRT_HALF                          000039FF
WRT_OFF                           00003FFF
XTAL                              8
XT_OSC                            00003FFD
Z                                 00000002
_ADC                              5
_ADC_RES                          10
_AEXP                             0000004D
_B#VR1                            0000005F
_BANKS                            3
_BEXP                             0000004E
_CORE                             14
_CWRITE_BLOCK                     8
_EEPROM                           256
_FLASH                            1
_FP_FLAGS                         0000004F
_FP_TEMP                          00000050
_I2C_SCL_PIN                      00000003
_I2C_SCL_PORT                     00000087
_I2C_SDA_PIN                      00000004
_I2C_SDA_PORT                     00000087
_MAXMEM                           8192
_MAXRAM                           368
_PAGES                            4
_RAM_END                          0X0170
_SIGN                             00000051
_SYSTEM_VARIABLE_COUNT            50
_USART                            1
_USB                              0
_X                                000000A6
__16F876A                         1
__EOF                             00000B41
__LCD_DTPIN                       4
__LCD_DTPORT                      PORTB
__LCD_ENPIN                       3
__LCD_ENPORT                      PORTB
__LCD_INTERFACE                   4
__LCD_RSPIN                       2
__LCD_RSPORT                      PORTB
__XTAL                            8


MEMORY USAGE MAP ('X' = USED,  '-' = UNUSED)

0000 : XXXXXXXXXXXXXXXX XXXXXXXXXXXXXXXX XXXXXXXXXXXXXXXX XXXXXXXXXXXXXXXX
0040 : XXXXXXXXXXXXXXXX XXXXXXXXXXXXXXXX XXXXXXXXXXXXXXXX XXXXXXXXXXXXXXXX
0080 : XXXXXXXXXXXXXXXX XXXXXXXXXXXXXXXX XXXXXXXXXXXXXXXX XXXXXXXXXXXXXXXX
00C0 : XXXXXXXXXXXXXXXX XXXXXXXXXXXXXXXX XXXXXXXXXXXXXXXX XXXXXXXXXXXXXXXX
0100 : XXXXXXXXXXXXXXXX XXXXXXXXXXXXXXXX XXXXXXXXXXXXXXXX XXXXXXXXXXXXXXXX
0140 : XXXXXXXXXXXXXXXX XXXXXXXXXXXXXXXX XXXXXXXXXXXXXXXX XXXXXXXXXXXXXXXX
0180 : XXXXXXXXXXXXXXXX XXXXXXXXXXXXXXXX XXXXXXXXXXXXXXXX XXXXXXXXXXXXXXXX
01C0 : XXXXXXXXXXXXXXXX XXXXXXXXXXXXXXXX XXXXXXXXXXXXXXXX XXXXXXXXXXXXXXXX
0200 : XXXXXXXXXXXXXXXX XXXXXXXXXXXXXXXX XXXXXXXXXXXXXXXX XXXXXXXXXXXXXXXX
0240 : XXXXXXXXXXXXXXXX XXXXXXXXXXXXXXXX XXXXXXXXXXXXXXXX XXXXXXXXXXXXXXXX
0280 : XXXXXXXXXXXXXXXX XXXXXXXXXXXXXXXX XXXXXXXXXXXXXXXX XXXXXXXXXXXXXXXX
02C0 : XXXXXXXXXXXXXXXX XXXXXXXXXXXXXXXX XXXXXXXXXXXXXXXX XXXXXXXXXXXXXXXX
0300 : XXXXXXXXXXXXXXXX XXXXXXXXXXXXXXXX XXXXXXXXXXXXXXXX XXXXXXXXXXXXXXXX
0340 : XXXXXXXXXXXXXXXX XXXXXXXXXXXXXXXX XXXXXXXXXXXXXXXX XXXXXXXXXXXXXXXX
0380 : XXXXXXXXXXXXXXXX XXXXXXXXXXXXXXXX XXXXXXXXXXXXXXXX XXXXXXXXXXXXXXXX
03C0 : XXXXXXXXXXXXXXXX XXXXXXXXXXXXXXXX XXXXXXXXXXXXXXXX XXXXXXXXXXXXXXXX
0400 : XXXXXXXXXXXXXXXX XXXXXXXXXXXXXXXX XXXXXXXXXXXXXXXX XXXXXXXXXXXXXXXX
0440 : XXXXXXXXXXXXXXXX XXXXXXXXXXXXXXXX XXXXXXXXXXXXXXXX XXXXXXXXXXXXXXXX
0480 : XXXXXXXXXXXXXXXX XXXXXXXXXXXXXXXX XXXXXXXXXXXXXXXX XXXXXXXXXXXXXXXX
04C0 : XXXXXXXXXXXXXXXX XXXXXXXXXXXXXXXX XXXXXXXXXXXXXXXX XXXXXXXXXXXXXXXX
0500 : XXXXXXXXXXXXXXXX XXXXXXXXXXXXXXXX XXXXXXXXXXXXXXXX XXXXXXXXXXXXXXXX
0540 : XXXXXXXXXXXXXXXX XXXXXXXXXXXXXXXX XXXXXXXXXXXXXXXX XXXXXXXXXXXXXXXX
0580 : XXXXXXXXXXXXXXXX XXXXXXXXXXXXXXXX XXXXXXXXXXXXXXXX XXXXXXXXXXXXXXXX
05C0 : XXXXXXXXXXXXXXXX XXXXXXXXXXXXXXXX XXXXXXXXXXXXXXXX XXXXXXXXXXXXXXXX
0600 : XXXXXXXXXXXXXXXX XXXXXXXXXXXXXXXX XXXXXXXXXXXXXXXX XXXXXXXXXXXXXXXX
0640 : XXXXXXXXXXXXXXXX XXXXXXXXXXXXXXXX XXXXXXXXXXXXXXXX XXXXXXXXXXXXXXXX
0680 : XXXXXXXXXXXXXXXX XXXXXXXXXXXXXXXX XXXXXXXXXXXXXXXX XXXXXXXXXXXXXXXX
06C0 : XXXXXXXXXXXXXXXX XXXXXXXXXXXXXXXX XXXXXXXXXXXXXXXX XXXXXXXXXXXXXXXX
0700 : XXXXXXXXXXXXXXXX XXXXXXXXXXXXXXXX XXXXXXXXXXXXXXXX XXXXXXXXXXXXXXXX
0740 : XXXXXXXXXXXXXXXX XXXXXXXXXXXXXXXX XXXXXXXXXXXXXXXX XXXXXXXXXXXXXXXX
0780 : XXXXXXXXXXXXXXXX XXXXXXXXXXXXXXXX XXXXXXXXXXXXXXXX XXXXXXXXXXXXXXXX
07C0 : XXXXXXXXXXXXXXXX XXXXXXXXXXXXXXXX XXXXXXXXXXXXXXXX XXXXXXXXXXXXXXXX
0800 : XXXXXXXXXXXXXXXX XXXXXXXXXXXXXXXX XXXXXXXXXXXXXXXX XXXXXXXXXXXXXXXX
0840 : XXXXXXXXXXXXXXXX XXXXXXXXXXXXXXXX XXXXXXXXXXXXXXXX XXXXXXXXXXXXXXXX
0880 : XXXXXXXXXXXXXXXX XXXXXXXXXXXXXXXX XXXXXXXXXXXXXXXX XXXXXXXXXXXXXXXX
08C0 : XXXXXXXXXXXXXXXX XXXXXXXXXXXXXXXX XXXXXXXXXXXXXXXX XXXXXXXXXXXXXXXX
0900 : XXXXXXXXXXXXXXXX XXXXXXXXXXXXXXXX XXXXXXXXXXXXXXXX XXXXXXXXXXXXXXXX
0940 : XXXXXXXXXXXXXXXX XXXXXXXXXXXXXXXX XXXXXXXXXXXXXXXX XXXXXXXXXXXXXXXX
0980 : XXXXXXXXXXXXXXXX XXXXXXXXXXXXXXXX XXXXXXXXXXXXXXXX XXXXXXXXXXXXXXXX
09C0 : XXXXXXXXXXXXXXXX XXXXXXXXXXXXXXXX XXXXXXXXXXXXXXXX XXXXXXXXXXXXXXXX
0A00 : XXXXXXXXXXXXXXXX XXXXXXXXXXXXXXXX XXXXXXXXXXXXXXXX XXXXXXXXXXXXXXXX
0A40 : XXXXXXXXXXXXXXXX XXXXXXXXXXXXXXXX XXXXXXXXXXXXXXXX XXXXXXXXXXXXXXXX
0A80 : XXXXXXXXXXXXXXXX XXXXXXXXXXXXXXXX XXXXXXXXXXXXXXXX XXXXXXXXXXXXXXXX
0AC0 : XXXXXXXXXXXXXXXX XXXXXXXXXXXXXXXX XXXXXXXXXXXXXXXX XXXXXXXXXXXXXXXX
0B00 : XXXXXXXXXXXXXXXX XXXXXXXXXXXXXXXX XXXXXXXXXXXXXXXX XXXXXXXXXXXXXXXX
0B40 : X--------------- ---------------- ---------------- ----------------
2000 : -------X-------- ---------------- ---------------- ----------------

ALL OTHER MEMORY BLOCKS UNUSED.

PROGRAM MEMORY WORDS USED:  2881
PROGRAM MEMORY WORDS FREE:  5311


ERRORS   :     0
WARNINGS :     0 REPORTED,  2767 SUPPRESSED
MESSAGES :     1 REPORTED,   252 SUPPRESSED


