MPASM  5.42                               A.S   5-18-2018  21:50:31         PAGE  1


LOC  OBJECT CODE     LINE SOURCE TEXT
  VALUE


                      00002         list
                      00003 ;{
                      00004 ;FILE F1 = C:\USERS\ANTOR\GOOGLE~1\EMBEDD~1\TANVIR~1\PROJECTS\342B99~1.TIM\TIME MANAGEMENT.BAS
                      00005 ;FILE F2 = C:\USERS\ANTOR\GOOGLE~1\EMBEDD~1\TANVIR~1\PROJECTS\342B99~1.TIM\TIME MANAGEMENT.PRP
                      00006 ;FILE F3 = C:\USERS\ANTOR\GOOGLE DRIVE\EMBEDDED PROJECTS\TANVIR BHAI\PROJECTS\34. TIME MANAGEMENT\KEYPAD
                            4X4.INC
                      00007 ;}
                      00008 ;[Variable Listing]
                      00009 ;X,0039,DT_BYTE,1
                      00010 ;temp,003A,DT_BYTE,3
                      00011 ;second,003D,DT_BYTE,1
                      00012 ;minute,003E,DT_WORD,2
                      00013 ;a_sec_r2,0040,DT_WORD,2
                      00014 ;a_sec_r3,0042,DT_WORD,2
                      00015 ;a_sec_r4,0044,DT_WORD,2
                      00016 ;m_sec_r1,0046,DT_WORD,2
                      00017 ;m_sec_r2,0048,DT_WORD,2
                      00018 ;m_sec_r3,004A,DT_WORD,2
                      00019 ;m_sec_r4,004C,DT_WORD,2
                      00020 ;g_sec_r1,004E,DT_WORD,2
                      00021 ;g_sec_r2,0050,DT_WORD,2
                      00022 ;g_sec_r3,0052,DT_WORD,2
                      00023 ;g_sec_r4,0054,DT_WORD,2
                      00024 ;mode,0056,DT_BYTE,1
                      00025 ;msg,0058,DT_BYTE,20
                      00026 ;key,006C,DT_BYTE,1
                      00027 ;key_value,006D,DT_BYTE,1
                      00028 ;rly1,0005.3,DT_BIT
                      00029 ;rly2,0005.2,DT_BIT
                      00030 ;rly3,0005.1,DT_BIT
                      00031 ;rly4,0005.0,DT_BIT
                      00032 ;t_stop,0057.0,DT_BIT
                      00033 ;r1_done,0057.1,DT_BIT
                      00034 ;r2_done,0057.2,DT_BIT
                      00035 ;r3_done,0057.3,DT_BIT
                      00036 ;r4_done,0057.4,DT_BIT
                      00037 ;col_1,0007.3,DT_BIT
                      00038 ;col_2,0007.2,DT_BIT
                      00039 ;col_3,0007.1,DT_BIT
                      00040 ;col_4,0007.0,DT_BIT
                      00041 ;row_4,0007.4,DT_BIT
                      00042 ;row_3,0007.5,DT_BIT
                      00043 ;row_2,0006.0,DT_BIT
                      00044 ;row_1,0006.1,DT_BIT
                      00045 ;[End Listing]
                      00046 ;[TOTAL VARS] 78

                      00048 #define CONFIG_REQ 1
MESSAGE[308]: WARNING LEVEL SUPERSEDED BY COMMAND LINE VALUE. (2)
                      00049  LIST  P = 16C73B, F = INHX8M, W = 2, X = ON, R = DEC, MM = ON, N = 0, C = 255
  00000000            00050 INDF equ 0X0000
  00000001            00051 TMR0 equ 0X0001
  00000002            00052 PCL equ 0X0002
  00000003            00053 STATUS equ 0X0003
  00000004            00054 FSR equ 0X0004
  00000005            00055 PORTA equ 0X0005
  00000006            00056 PORTB equ 0X0006
  00000007            00057 PORTC equ 0X0007
  0000000A            00058 PCLATH equ 0X000A
  0000000B            00059 INTCON equ 0X000B
  0000000C            00060 PIR1 equ 0X000C
  0000000D            00061 PIR2 equ 0X000D
  0000000E            00062 TMR1L equ 0X000E
  0000000F            00063 TMR1LH equ 0X000F
  0000000F            00064 TMR1H equ 0X000F
  00000010            00065 T1CON equ 0X0010
  00000011            00066 TMR2 equ 0X0011
  00000012            00067 T2CON equ 0X0012
  00000013            00068 SSPBUF equ 0X0013
  00000014            00069 SSPCON equ 0X0014
  00000015            00070 CCPR1L equ 0X0015
  00000016            00071 CCPR1LH equ 0X0016
  00000016            00072 CCPR1H equ 0X0016
  00000017            00073 CCP1CON equ 0X0017
  00000018            00074 RCSTA equ 0X0018
  00000019            00075 TXREG equ 0X0019
  0000001A            00076 RCREG equ 0X001A
  0000001B            00077 CCPR2L equ 0X001B
  0000001C            00078 CCPR2LH equ 0X001C
  0000001C            00079 CCPR2H equ 0X001C
  0000001D            00080 CCP2CON equ 0X001D
  0000001E            00081 ADRES equ 0X001E
  0000001F            00082 ADCON0 equ 0X001F
  00000081            00083 OPTION_REG equ 0X0081
  00000085            00084 TRISA equ 0X0085
  00000086            00085 TRISB equ 0X0086
  00000087            00086 TRISC equ 0X0087
  0000008C            00087 PIE1 equ 0X008C
  0000008D            00088 PIE2 equ 0X008D
  0000008E            00089 PCON equ 0X008E
  00000092            00090 PR2 equ 0X0092
  00000093            00091 SSPADD equ 0X0093
  00000094            00092 SSPSTAT equ 0X0094
  00000098            00093 TXSTA equ 0X0098
  00000099            00094 SPBRG equ 0X0099
  0000009F            00095 ADCON1 equ 0X009F
  00000087            00096 _I2C_SCL_PORT=TRISC
  00000003            00097 _I2C_SCL_PIN=3
  00000087            00098 _I2C_SDA_PORT=TRISC
  00000004            00099 _I2C_SDA_PIN=4
  00000007            00100 IRP=7
  00000006            00101 RP1=6
  00000005            00102 RP0=5
  00000004            00103 NOT_TO=4
  00000003            00104 NOT_PD=3
  00000002            00105 Z=2
  00000001            00106 DC=1
  00000000            00107 C=0
  00000007            00108 GIE=7
  00000006            00109 PEIE=6
  00000005            00110 T0IE=5
  00000004            00111 INTE=4
  00000003            00112 RBIE=3
  00000002            00113 T0IF=2
  00000001            00114 INTF=1
  00000000            00115 RBIF=0
  00000006            00116 ADIF=6
  00000005            00117 RCIF=5
  00000005            00118 PP_RCIF=5
  00000004            00119 TXIF=4
  00000004            00120 PP_TXIF=4
  00000003            00121 SSPIF=3
  00000002            00122 CCP1IF=2
  00000001            00123 TMR2IF=1
  00000000            00124 TMR1IF=0
  00000000            00125 CCP2IF=0
  00000005            00126 T1CKPS1=5
  00000004            00127 T1CKPS0=4
  00000003            00128 T1OSCEN=3
  00000002            00129 NOT_T1SYNC=2
  00000002            00130 T1INSYNC=2
  00000001            00131 TMR1CS=1
  00000000            00132 TMR1ON=0
  00000006            00133 TOUTPS3=6
  00000005            00134 TOUTPS2=5
  00000004            00135 TOUTPS1=4
  00000003            00136 TOUTPS0=3
  00000002            00137 TMR2ON=2
  00000002            00138 PP_TMR2ON=2
  00000001            00139 T2CKPS1=1
  00000001            00140 PP_T2CKPS1=1
  00000000            00141 T2CKPS0=0
  00000000            00142 PP_T2CKPS0=0
  00000007            00143 WCOL=7
  00000006            00144 SSPOV=6
  00000005            00145 SSPEN=5
  00000004            00146 CKP=4
  00000003            00147 SSPM3=3
  00000002            00148 SSPM2=2
  00000001            00149 SSPM1=1
  00000000            00150 SSPM0=0
  00000005            00151 CCP1X=5
  00000004            00152 CCP1Y=4
  00000003            00153 CCP1M3=3
  00000002            00154 CCP1M2=2
  00000001            00155 CCP1M1=1
  00000000            00156 CCP1M0=0
  00000007            00157 SPEN=7
  00000006            00158 RX9=6
  00000006            00159 RC9=6
  00000006            00160 NOT_RC8=6
  00000006            00161 RC8_9=6
  00000005            00162 SREN=5
  00000004            00163 CREN=4
  00000004            00164 PP_CREN=4
  00000002            00165 FERR=2
  00000001            00166 OERR=1
  00000001            00167 PP_OERR=1
  00000000            00168 RX9D=0
  00000000            00169 RCD8=0
  00000005            00170 CCP2X=5
  00000004            00171 CCP2Y=4
  00000003            00172 CCP2M3=3
  00000002            00173 CCP2M2=2
  00000001            00174 CCP2M1=1
  00000000            00175 CCP2M0=0
  00000007            00176 ADCS1=7
  00000006            00177 ADCS0=6
  00000005            00178 CHS2=5
  00000004            00179 CHS1=4
  00000003            00180 CHS0=3
  00000002            00181 GO=2
  00000002            00182 NOT_DONE=2
  00000002            00183 GO_DONE=2
  00000002            00184 PP_GO_DONE=2
  00000000            00185 ADON=0
  00000007            00186 NOT_RBPU=7
  00000006            00187 INTEDG=6
  00000005            00188 T0CS=5
  00000004            00189 T0SE=4
  00000003            00190 PSA=3
  00000002            00191 PS2=2
  00000001            00192 PS1=1
  00000000            00193 PS0=0
  00000006            00194 ADIE=6
  00000005            00195 RCIE=5
  00000004            00196 TXIE=4
  00000003            00197 SSPIE=3
  00000002            00198 CCP1IE=2
  00000001            00199 TMR2IE=1
  00000000            00200 TMR1IE=0
  00000000            00201 CCP2IE=0
  00000001            00202 NOT_POR=1
  00000000            00203 NOT_BO=0
  00000000            00204 NOT_BOR=0
  00000007            00205 SMP=7
  00000006            00206 CKE=6
  00000005            00207 I2C_DATA=5
  00000005            00208 NOT_A=5
  00000005            00209 NOT_ADDRESS=5
  00000005            00210 D_A=5
  00000005            00211 DATA_ADDRESS=5
  00000004            00212 I2C_STOP=4
  00000003            00213 I2C_START=3
  00000002            00214 I2C_READ=2
  00000002            00215 NOT_W=2
  00000002            00216 NOT_WRITE=2
  00000002            00217 R_W=2
  00000002            00218 PP_R_W=2
  00000002            00219 READ_WRITE=2
  00000001            00220 UA=1
  00000000            00221 BF=0
  00000000            00222 PP_BF=0
  00000007            00223 CSRC=7
  00000006            00224 TX9=6
  00000006            00225 NOT_TX8=6
  00000006            00226 TX8_9=6
  00000005            00227 TXEN=5
  00000004            00228 SYNC=4
  00000002            00229 BRGH=2
  00000001            00230 TRMT=1
  00000000            00231 TX9D=0
  00000000            00232 TXD8=0
  00000002            00233 PCFG2=2
  00000001            00234 PCFG1=1
  00000000            00235 PCFG0=0
  000000FF            00236   __MAXRAM 0XFF
                      00237   __BADRAM 0X08-0X09
                      00238   __BADRAM 0X88-0X89, 0X8F-0X91, 0X95-0X97, 0X9A-0X9E
  00003FFF            00239 BODEN_ON equ 0X3FFF
  00003FBF            00240 BODEN_OFF equ 0X3FBF
  000000CF            00241 CP_ALL equ 0X00CF
  000015DF            00242 CP_75 equ 0X15DF
  00002AEF            00243 CP_50 equ 0X2AEF
  00003FFF            00244 CP_OFF equ 0X3FFF
  00003FFF            00245 PWRTE_OFF equ 0X3FFF
  00003FF7            00246 PWRTE_ON equ 0X3FF7
  00003FFF            00247 WDT_ON equ 0X3FFF
  00003FFB            00248 WDT_OFF equ 0X3FFB
  00003FFC            00249 LP_OSC equ 0X3FFC
  00003FFD            00250 XT_OSC equ 0X3FFD
  00003FFE            00251 HS_OSC equ 0X3FFE
  00003FFF            00252 RC_OSC equ 0X3FFF
  00003FBF            00253 BOREN_OFF equ 0X3FBF
  00003FFF            00254 BOREN_ON equ 0X3FFF
  00003FFE            00255 FOSC_HS equ 0X3FFE
  00003FFC            00256 FOSC_LP equ 0X3FFC
  00003FFF            00257 FOSC_RC equ 0X3FFF
  00003FFD            00258 FOSC_XT equ 0X3FFD
  00003FFB            00259 WDTE_OFF equ 0X3FFB
  00003FFF            00260 WDTE_ON equ 0X3FFF

                      00264 #define __16C73B 1
                      00265 #define XTAL 20
                      00266 #define _CORE 14
                      00267 #define _MAXRAM 192
                      00268 #define _RAM_END 0X00C0
                      00269 #define _MAXMEM 4096
                      00270 #define _ADC 5
                      00271 #define _ADC_RES 8
                      00272 #define _EEPROM 0
                      00273 #define _PAGES 2
                      00274 #define _BANKS 2
                      00275 #define RAM_BANKS 2
                      00276 #define _USART 1
                      00277 #define _USB 0
                      00278 #define _FLASH 0
                      00279 #define _CWRITE_BLOCK 0
                      00280 #define BANK0_START 0X20
                      00281 #define BANK0_END 0X7F
                      00282 #define BANK1_START 0X00A0
                      00283 #define BANK1_END 0X00FF
                      00284 #define _SYSTEM_VARIABLE_COUNT 25
  00000000            00285 ram_bank = 0
  00000000            00286 CURRENT@PAGE = 0
  00000000            00287 DEST@PAGE = 0
                      00288 #define LCD#DTPORT PORTB
                      00289 #define LCD#DTPIN 4
                      00290 #define LCD#RSPORT PORTB
                      00291 #define LCD#RSPIN 2
                      00292 #define LCD#ENPORT PORTB
                      00293 #define LCD#ENPIN 3
                      00294 #define LCD#INTERFACE 4
                      00295 #define LCD#TYPE 0
                      00297 f@call macro PDEST
                      00298 if(PDEST < 1)
                      00299 if((PDEST & 2048) == 0)
                      00300         bcf 10,3
                      00301 else
                      00302         bsf 10,3
                      00303 endif
                      00304 else
                      00305 if(PDEST > $)
                      00306 if((PDEST & 2048) == 0)
                      00307         bcf 10,3
                      00308 else
                      00309         bsf 10,3
                      00310 endif
                      00311 else
                      00312 if((PDEST & 6144) == 0)
                      00313         clrf 10
                      00314 else
                      00315 if((PDEST & 2048) == 0)
                      00316         bcf 10,3
                      00317 else
                      00318         bsf 10,3
                      00319 endif
                      00320 endif
                      00321 endif
                      00322 endif
                      00323         call PDEST
                      00324         endm
                      00325 F@JUMP macro PDEST
                      00326 if(PDEST < 1)
                      00327 if((PDEST & 2048) == 0)
                      00328         bcf 10,3
                      00329 else
                      00330         bsf 10,3
                      00331 endif
                      00332 else
                      00333 if(PDEST > $)
                      00334 if((PDEST & 2048) == 0)
                      00335         bcf 10,3
                      00336 else
                      00337         bsf 10,3
                      00338 endif
                      00339 else
                      00340 if((PDEST & 6144) == 0)
                      00341         clrf 10
                      00342 else
                      00343 if((PDEST & 2048) == 0)
                      00344         bcf 10,3
                      00345 else
                      00346         bsf 10,3
                      00347 endif
                      00348 endif
                      00349 endif
                      00350 endif
                      00351         goto PDEST
                      00352         endm
                      00353 set@page macro PDEST
                      00354 if((PDEST & 2048) == 0)
                      00355         bcf 10,3
                      00356 else
                      00357         bsf 10,3
                      00358 endif
                      00359         endm
                      00360 s@b     macro pVarin
                      00361 if((pVarin & 384) == 0)
                      00362 if(ram_bank == 1)
                      00363         bcf 3,5
                      00364 endif
                      00365 if(ram_bank == 2)
                      00366         bcf 3,6
                      00367 endif
                      00368 if(ram_bank == 3)
                      00369         bcf 3,5
                      00370         bcf 3,6
                      00371 endif
                      00372 ram_bank = 0
                      00373 endif
                      00374 if((pVarin & 384) == 128)
                      00375 if(ram_bank == 0)
                      00376         bsf 3,5
                      00377 endif
                      00378 if(ram_bank == 2)
                      00379         bsf 3,5
                      00380         bcf 3,6
                      00381 endif
                      00382 if(ram_bank == 3)
                      00383         bcf 3,6
                      00384 endif
                      00385 ram_bank = 1
                      00386 endif
                      00387 if((pVarin & 384) == 256)
                      00388 if(ram_bank == 0)
                      00389         bsf 3,6
                      00390 endif
                      00391 if(ram_bank == 1)
                      00392         bcf 3,5
                      00393         bsf 3,6
                      00394 endif
                      00395 if(ram_bank == 3)
                      00396         bcf 3,5
                      00397 endif
                      00398 ram_bank = 2
                      00399 endif
                      00400         endm
                      00401 r@b     macro
                      00402 if((ram_bank & 1) != 0)
                      00403         bcf 3,5
                      00404 endif
                      00405 if((ram_bank & 2) != 0)
                      00406         bcf 3,6
                      00407 endif
                      00408 ram_bank = 0
                      00409         endm
                      00410 jump macro PLABEL
                      00411     goto PLABEL
                      00412     endm
                      00413 wreg_byte macro pByteOut
                      00414     s@b pByteOut
                      00415     movwf pByteOut
                      00416     r@b
                      00417     endm
                      00418 wreg_bit macro pVarOut,pBitout
                      00419     s@b pVarOut
                      00420     andlw 1
                      00421     btfsc STATUS,2
                      00422     bcf pVarOut,pBitout
                      00423     btfss STATUS,2
                      00424     bsf pVarOut,pBitout
                      00425     r@b
                      00426     endm
                      00427 wreg_word macro pWordOut
                      00428     s@b pWordOut
                      00429     movwf pWordOut
                      00430     s@b pWordOut+1
                      00431     clrf pWordOut+1
                      00432     r@b
                      00433     endm
                      00434 wreg_dword macro pDwordOut
                      00435     s@b pDwordOut+3
                      00436     clrf pDwordOut+3
                      00437     s@b pDwordOut+2
                      00438     clrf pDwordOut+2
                      00439     s@b pDwordOut+1
                      00440     clrf pDwordOut+1
                      00441     s@b pDwordOut
                      00442     movwf pDwordOut
                      00443     r@b
                      00444     endm
                      00445 byte_wreg macro pByteIn
                      00446     s@b pByteIn
                      00447     movf pByteIn,W
                      00448     r@b
                      00449     endm
                      00450 num_wreg macro pNumIn
                      00451     movlw (pNumIn & 255)
                      00452     endm
                      00453 num_byte macro pNumIn,pByteOut
                      00454     s@b pByteOut
                      00455 if(pNumIn == 0)
                      00456     clrf pByteOut
                      00457 else
                      00458     movlw (pNumIn & 255)
                      00459     movwf pByteOut
                      00460 endif
                      00461     r@b
                      00462     endm
                      00463 num_bit macro pNumIn,pVarOut,pBitout
                      00464     s@b pVarOut
                      00465 if((pNumIn & 1) == 1)
                      00466     bsf pVarOut,pBitout
                      00467 else
                      00468     bcf pVarOut,pBitout
                      00469 endif
                      00470     r@b
                      00471     endm
                      00472 num_word macro pNumIn,pWordOut
                      00473 if((pNumIn & 255) == 0)
                      00474     s@b pWordOut
                      00475     clrf pWordOut
                      00476 else
                      00477     s@b pWordOut
                      00478     movlw low (pNumIn)
                      00479     movwf pWordOut
                      00480 endif
                      00481 if(((pNumIn >> 8) & 255) == 0)
                      00482     s@b pWordOut+1
                      00483     clrf pWordOut+1
                      00484 else
                      00485     s@b pWordOut+1
                      00486     movlw high (pNumIn)
                      00487     movwf pWordOut+1
                      00488 endif
                      00489     r@b
                      00490     endm
                      00491 num_dword macro pNumIn,pDwordOut
                      00492 if ((pNumIn >> 24 & 255) == 0)
                      00493     s@b pDwordOut+3
                      00494     clrf pDwordOut+3
                      00495 else
                      00496     s@b pDwordOut+3
                      00497     movlw ((pNumIn >> 24) & 255)
                      00498     movwf pDwordOut+3
                      00499 endif
                      00500 if( ((pNumIn >> 16) & 255) == 0)
                      00501     s@b pDwordOut+2
                      00502     clrf pDwordOut+2
                      00503 else
                      00504     s@b pDwordOut+2
                      00505     movlw ((pNumIn >> 16) & 255)
                      00506     movwf pDwordOut+2
                      00507 endif
                      00508 if( ((pNumIn >> 8) & 255) == 0)
                      00509     s@b pDwordOut+1
                      00510     clrf pDwordOut+1
                      00511 else
                      00512     s@b pDwordOut+1
                      00513     movlw high (pNumIn)
                      00514     movwf pDwordOut+1
                      00515 endif
                      00516 if((pNumIn & 255) == 0)
                      00517     s@b pDwordOut
                      00518     clrf pDwordOut
                      00519 else
                      00520     s@b pDwordOut
                      00521     movlw low (pNumIn)
                      00522     movwf pDwordOut
                      00523 endif
                      00524     r@b
                      00525     endm
                      00526 bit_wreg macro pVarin,pBitIn
                      00527     s@b pVarin
                      00528     clrw
                      00529     btfsc pVarin,pBitIn
                      00530     movlw 1
                      00531     r@b
                      00532     endm
                      00533 bit_byte macro pVarin,pBitIn,pByteOut
                      00534     s@b pVarin
                      00535     clrw
                      00536     btfsc pVarin,pBitIn
                      00537     movlw 1
                      00538     s@b pByteOut
                      00539     movwf pByteOut
                      00540     r@b
                      00541     endm
                      00542 bit_bit macro pVarin,pBitIn,pVarOut,pBitout
                      00543 if((pVarin & 65408) == (pVarOut & 65408))
                      00544     s@b pVarOut
                      00545     btfsc pVarin,pBitIn
                      00546     bsf pVarOut,pBitout
                      00547     btfss pVarin,pBitIn
                      00548     bcf pVarOut,pBitout
                      00549 else
                      00550     s@b pVarin
                      00551     clrdc
                      00552     btfsc pVarin,pBitIn
                      00553     setdc
                      00554     s@b pVarOut
                      00555     skpndc
                      00556     bsf pVarOut,pBitout
                      00557     skpdc
                      00558     bcf pVarOut,pBitout
                      00559 endif
                      00560     endm
                      00561 bit_word macro pVarin,pBitIn,pWordOut
                      00562     s@b pWordOut+1
                      00563     clrf pWordOut+1
                      00564     bit_byte pVarin,pBitIn,pWordOut
                      00565     endm
                      00566 bit_dword macro pVarin,pBitIn,pDwordOut
                      00567     s@b pDwordOut+3
                      00568     clrf pDwordOut+3
                      00569     s@b pDwordOut+2
                      00570     clrf pDwordOut+2
                      00571     s@b pDwordOut+1
                      00572     clrf pDwordOut+1
                      00573     bit_byte pVarin,pBitIn,pDwordOut
                      00574     endm
                      00575 word_wreg macro pWordIn
                      00576     byte_wreg pWordIn
                      00577     endm
                      00578 word_byte macro pWordIn,pByteOut
                      00579     byte_byte pWordIn,pByteOut
                      00580     endm
                      00581 word_bit macro pWordIn,pVarOut,pBitout
                      00582     byte_bit pWordIn, pVarOut, pBitout
                      00583     endm
                      00584 word_word macro pWordIn,pWordOut
                      00585     s@b pWordIn+1
                      00586     movf pWordIn+1,W
                      00587     s@b pWordOut+1
                      00588     movwf pWordOut+1
                      00589     byte_byte pWordIn,pWordOut
                      00590     endm
                      00591 word_dword macro pWordIn,pDwordOut
                      00592     s@b pDwordOut+3
                      00593     clrf pDwordOut+3
                      00594     s@b pDwordOut+2
                      00595     clrf pDwordOut+2
                      00596     byte_byte pWordIn+1,pDwordOut+1
                      00597     byte_byte pWordIn,pDwordOut
                      00598     endm
                      00599 byte_byte macro pByteIn,pByteOut
                      00600     s@b pByteIn
                      00601     movf pByteIn,W
                      00602     s@b pByteOut
                      00603     movwf pByteOut
                      00604     r@b
                      00605     endm
                      00606 byte_word macro pByteIn,pWordOut
                      00607     s@b pWordOut+1
                      00608     clrf pWordOut+1
                      00609     byte_byte pByteIn,pWordOut
                      00610     endm
                      00611 byte_dword macro pByteIn,pDwordOut
                      00612     s@b pDwordOut+3
                      00613     clrf pDwordOut+3
                      00614     s@b pDwordOut+2
                      00615     clrf pDwordOut+2
                      00616     s@b pDwordOut+1
                      00617     clrf pDwordOut+1
                      00618     byte_byte pByteIn,pDwordOut
                      00619     endm
                      00620     byte_bit macro pByteIn,pVarOut,pBitout
                      00621 if((pByteIn & 65408) == (pVarOut & 65408))
                      00622     s@b pByteIn
                      00623     btfsc pByteIn,0
                      00624     bsf pVarOut,pBitout
                      00625     btfss pByteIn,0
                      00626     bcf pVarOut,pBitout
                      00627 else
                      00628     s@b pByteIn
                      00629     rrf pByteIn,W
                      00630     s@b pVarOut
                      00631     skpnc
                      00632     bsf pVarOut,pBitout
                      00633     skpc
                      00634     bcf pVarOut,pBitout
                      00635 endif
                      00636     r@b
                      00637     endm
                      00638 dword_wreg macro pDwordIn
                      00639     byte_wreg pDwordIn
                      00640     endm
                      00641 dword_byte macro pDwordIn,pByteOut
                      00642     byte_byte pDwordIn,pByteOut
                      00643     endm
                      00644 dword_word macro pDwordIn,pWordOut
                      00645     s@b pDwordIn+1
                      00646     movf pDwordIn+1,W
                      00647     s@b pWordOut+1
                      00648     movwf pWordOut+1
                      00649     byte_byte pDwordIn,pWordOut
                      00650     endm
                      00651 dword_dword macro pDwordIn,pDwordOut
                      00652     byte_byte pDwordIn+3,pDwordOut+3
                      00653     byte_byte pDwordIn+2,pDwordOut+2
                      00654     byte_byte pDwordIn+1,pDwordOut+1
                      00655     byte_byte pDwordIn,pDwordOut
                      00656     endm
                      00657 dword_bit macro pDwordIn,pVarOut,pBitout
                      00658     byte_bit pDwordIn,pVarOut,pBitout
                      00659     endm
  0000                00660 variable CURRENT@PAGE = 0
  0000                00661 variable PDESTINATION@PAGE = 0
                      00662 FIND@PAGE macro pLabelIn
                      00663 local CURRENT_ADDR = $
                      00664 local DEST_ADDR = pLabelIn
                      00665 if((CURRENT_ADDR >= 0X1800) && (CURRENT_ADDR <= 0X2000))
                      00666     CURRENT@PAGE = 3
                      00667 endif
                      00668 if((CURRENT_ADDR >= 0X1000) && (CURRENT_ADDR <= 0X1800))
                      00669     CURRENT@PAGE = 2
                      00670 endif
                      00671 if((CURRENT_ADDR >= 0X0800) && (CURRENT_ADDR <= 0X1000))
                      00672     CURRENT@PAGE = 1
                      00673 endif
                      00674 if((CURRENT_ADDR >= 0) && (CURRENT_ADDR <= 0X0800))
                      00675     CURRENT@PAGE = 0
                      00676 endif
                      00677 if((DEST_ADDR >= 0X1800) && (DEST_ADDR <= 0X2000))
                      00678     PDESTINATION@PAGE = 3
                      00679 endif
                      00680 if((DEST_ADDR >= 0X1000) && (DEST_ADDR <= 0X1800))
                      00681     PDESTINATION@PAGE = 2
                      00682 endif
                      00683 if((DEST_ADDR >= 0X0800) && (DEST_ADDR <= 0X1000))
                      00684     PDESTINATION@PAGE = 1
                      00685 endif
                      00686 if((DEST_ADDR >= 0) && (DEST_ADDR <= 0X0800))
                      00687     PDESTINATION@PAGE = 0
                      00688 endif
                      00689     endm
                      00690 NUM_FSR macro pNumIn
                      00691     num_byte pNumIn, FSR
                      00692 if (((pNumIn >> 8) & 255) == 1)
                      00693     bsf STATUS,7
                      00694 else
                      00695     bcf STATUS,7
                      00696 endif
                      00697     endm
                      00698 label_word macro pLabelIn,pWordOut
                      00699     movlw low (pLabelIn)
                      00700     s@b pWordOut
                      00701     movwf pWordOut
                      00702     movlw high (pLabelIn)
                      00703     s@b pWordOut
                      00704     movwf pWordOut+1
                      00705     r@b
                      00706     endm
  00000020            00709 BPF = 32
  00000021            00710 BPFH = 33
  00000022            00711 GEN = 34
  00000023            00712 GEN4 = 35
  00000024            00713 GEN4H = 36
  00000025            00714 GENH = 37
  00000026            00715 PBP#VAR0 = 38
  00000027            00716 PBP#VAR1 = 39
  00000028            00717 PBP#VAR2 = 40
  00000029            00718 PP0 = 41
  0000002A            00719 PP0H = 42
  0000002B            00720 PP1 = 43
  0000002C            00721 PP1H = 44
  0000002D            00722 PP2 = 45
  0000002E            00723 PP2H = 46
  0000002F            00724 PP3 = 47
  00000030            00725 PP3H = 48
  00000031            00726 PP4 = 49
  00000032            00727 PP5 = 50
  00000033            00728 PP6 = 51
  00000034            00729 PP6H = 52
  00000035            00730 PP7 = 53
  00000036            00731 PP7H = 54
  00000037            00732 PP8 = 55
  00000038            00733 PP8H = 56
  00000039            00734 _X = 57
  0000003A            00735 temp = 58
  003A                00736 variable temp#0=58,temp#1=59,temp#2=60
  0000003D            00737 second = 61
  0000003E            00738 minute = 62
  0000003F            00739 minuteH = 63
  00000040            00740 a_sec_r2 = 64
  00000041            00741 a_sec_r2H = 65
  00000042            00742 a_sec_r3 = 66
  00000043            00743 a_sec_r3H = 67
  00000044            00744 a_sec_r4 = 68
  00000045            00745 a_sec_r4H = 69
  00000046            00746 m_sec_r1 = 70
  00000047            00747 m_sec_r1H = 71
  00000048            00748 m_sec_r2 = 72
  00000049            00749 m_sec_r2H = 73
  0000004A            00750 m_sec_r3 = 74
  0000004B            00751 m_sec_r3H = 75
  0000004C            00752 m_sec_r4 = 76
  0000004D            00753 m_sec_r4H = 77
  0000004E            00754 g_sec_r1 = 78
  0000004F            00755 g_sec_r1H = 79
  00000050            00756 g_sec_r2 = 80
  00000051            00757 g_sec_r2H = 81
  00000052            00758 g_sec_r3 = 82
  00000053            00759 g_sec_r3H = 83
  00000054            00760 g_sec_r4 = 84
  00000055            00761 g_sec_r4H = 85
  00000056            00762 mode = 86
  00000057            00763 _B#VR1 = 87
  00000058            00764 msg = 88
  0058                00765 variable msg#0=88,msg#1=89,msg#2=90,msg#3=91
  005C                00766 variable msg#4=92,msg#5=93,msg#6=94,msg#7=95
  0060                00767 variable msg#8=96,msg#9=97,msg#10=98,msg#11=99
  0064                00768 variable msg#12=100,msg#13=101,msg#14=102,msg#15=103
  0068                00769 variable msg#16=104,msg#17=105,msg#18=106,msg#19=107
  0000006C            00770 key = 108
  0000006D            00771 key_value = 109
                      00772 #define __LCD_RSPORT PORTB
                      00773 #define __LCD_ENPORT PORTB
                      00774 #define __LCD_DTPORT PORTB
                      00775 #define rly1 PORTA,3
                      00776 #define rly2 PORTA,2
                      00777 #define rly3 PORTA,1
                      00778 #define rly4 PORTA,0
                      00779 #define t_stop _B#VR1,0
                      00780 #define r1_done _B#VR1,1
                      00781 #define r2_done _B#VR1,2
                      00782 #define r3_done _B#VR1,3
                      00783 #define r4_done _B#VR1,4
                      00784 #define col_1 PORTC,3
                      00785 #define col_2 PORTC,2
                      00786 #define col_3 PORTC,1
                      00787 #define col_4 PORTC,0
                      00788 #define row_4 PORTC,4
                      00789 #define row_3 PORTC,5
                      00790 #define row_2 PORTB,0
                      00791 #define row_1 PORTB,1
                      00792 #define __XTAL 20
                      00793 #define __LCD_RSPIN 2
                      00794 #define __LCD_ENPIN 3
                      00795 #define __LCD_DTPIN 4
                      00796 #define __LCD_INTERFACE 4
                      00797 #define __HSERIAL_BAUD 49664
                      00798 #define __HSERIAL_RCSTA 144
                      00799 #define __HSERIAL_TXSTA 36
                      00800 #define a_r1_sec 10
                      00801 #define a_r2_sec 10
                      00802 #define a_r3_sec 10
                      00803 #define a_r4_sec 10
  0000000A            00804 HSERIAL_SPBRG = 10
  00000024            00805 HSERIAL_TXSTA = 36
  00000090            00806 HSERIAL_RCSTA = 144
  0001C200            00807 HSERIAL_BAUD = 115200
0000                  00808 proton#code#start
0000                  00809         org 0
0000   2934           00810         goto proton#main#start
0001                  00811 LCD@CLS
0001   3080           00812         movlw 128
0002   00A1           00813         movwf 33
0003                  00814 CLS
0003   30FE           00815         movlw 254
0004   20D6           00816         call CH@SND
0005   3001           00817         movlw 1
0006   20D6           00818         call CH@SND
0007   3075           00819         movlw 117
0008   00AA           00820         movwf 42
0009   3030           00821         movlw 48
000A   28EF           00822         goto DLUS@W
000B                  00823 LCD@CUR
000B   01A1           00824         clrf 33
000C   17A1           00825         bsf 33,7
000D                  00826 CURSOR
000D   00B2           00827         movwf 50
000E   08B2           00828         tstf 50
000F   1D03           00829         skpz
0010   2813           00830         goto $ + 3
0011   0103           00831         clrw
0012   2814           00832         goto $ + 2
0013   3001           00833         movlw 1
0014   02B2           00834         subwf 50,F
0015   1003           00835         bcf 3,0
0016   0CA2           00836         rrf 34,F
0017   0CA2           00837         rrf 34,F
0018   0CA2           00838         rrf 34,F
0019   30C0           00839         movlw 192
001A   0522           00840         andwf 34,W
001B   3E40           00841         addlw 64
001C   07B2           00842         addwf 50,F
001D   30FE           00843         movlw 254
001E   20D6           00844         call CH@SND
001F   0832           00845         movf 50,W
0020   28D6           00846         goto CH@SND
0021                  00847 LCD@CRS
0021   01A1           00848         clrf 33
0022   17A1           00849         bsf 33,7
0023                  00850 CURS@
0023   00B2           00851         movwf 50
0024   30FE           00852         movlw 254
0025   20D6           00853         call CH@SND
0026   0832           00854         movf 50,W
0027   28D6           00855         goto CH@SND
0028                  00856 OUT@DECB
0028   01A4           00857         clrf 36
0029                  00858 OUT@DECC
0029   00AD           00859         movwf 45
002A   01AE           00860         clrf 46
002B                  00861 OUT@DEC
002B   11A0           00862         bcf 32,3
002C   0824           00863         movf 36,W
002D   1903           00864         skpnz
002E   15A0           00865         bsf 32,3
002F   3005           00866         movlw 5
0030   00A3           00867         movwf 35
0031   3027           00868         movlw 39
0032   00AC           00869         movwf 44
0033   3010           00870         movlw 16
0034   2041           00871         call D@DIG
0035   3003           00872         movlw 3
0036   00AC           00873         movwf 44
0037   30E8           00874         movlw 232
0038   2041           00875         call D@DIG
0039   01AC           00876         clrf 44
003A   3064           00877         movlw 100
003B   2041           00878         call D@DIG
003C   01AC           00879         clrf 44
003D   300A           00880         movlw 10
003E   2041           00881         call D@DIG
003F   082D           00882         movf 45,W
0040   2848           00883         goto SEND@IT
0041                  00884 D@DIG
0041   00AB           00885         movwf 43
0042   082E           00886         movf 46,W
0043   00AA           00887         movwf 42
0044   082D           00888         movf 45,W
0045   00A9           00889         movwf 41
0046   20FE           00890         call D@VD
0047   0829           00891         movf 41,W
0048                  00892 SEND@IT
0048   00A9           00893         movwf 41
0049   03A3           00894         decf 35,F
004A   1903           00895         skpnz
004B   11A0           00896         bcf 32,3
004C   0824           00897         movf 36,W
004D   1903           00898         skpnz
004E   2852           00899         goto $ + 4
004F   0223           00900         subwf 35,W
0050   1803           00901         skpnc
0051   2859           00902         goto EX@SEND@IT
0052   0829           00903         movf 41,W
0053   1D03           00904         skpz
0054   11A0           00905         bcf 32,3
0055   19A0           00906         btfsc 32,3
0056   2859           00907         goto EX@SEND@IT
0057   3E30           00908         addlw 48
0058   28D6           00909         goto CH@SND
0059                  00910 EX@SEND@IT
0059   0008           00911         return
005A                  00912 PRINT
005A   00B0           00913         movwf 48
005B   1186           00914         bcf PORTB,3
005C   1106           00915         bcf PORTB,2
005D   1683           00916         bsf 3,5
005E   1186           00917         bcf PORTB,3
005F   1106           00918         bcf PORTB,2
0060   300F           00919         movlw 15
0061   0586           00920         andwf PORTB,F
0062   1283           00921         bcf 3,5
0063   0830           00922         movf 48,W
0064   18A0           00923         btfsc 32,1
0065   2884           00924         goto PRT@1
0066   303E           00925         movlw 62
0067   00AA           00926         movwf 42
0068   3080           00927         movlw 128
0069   20EF           00928         call DLUS@W
006A   3033           00929         movlw 51
006B   00AF           00930         movwf 47
006C   2098           00931         call PR@LP
006D   3013           00932         movlw 19
006E   00AA           00933         movwf 42
006F   3088           00934         movlw 136
0070   20EF           00935         call DLUS@W
0071   2098           00936         call PR@LP
0072   3064           00937         movlw 100
0073   20EE           00938         call DL@US
0074   2098           00939         call PR@LP
0075   3064           00940         movlw 100
0076   20EE           00941         call DL@US
0077   3022           00942         movlw 34
0078   00AF           00943         movwf 47
0079   2098           00944         call PR@LP
007A   3028           00945         movlw 40
007B   2083           00946         call PRT@C
007C   300C           00947         movlw 12
007D   2083           00948         call PRT@C
007E   3006           00949         movlw 6
007F   2083           00950         call PRT@C
0080   14A0           00951         bsf 32,1
0081   0830           00952         movf 48,W
0082   2884           00953         goto PRT@1
0083                  00954 PRT@C
0083   1420           00955         bsf 32,0
0084                  00956 PRT@1
0084   00AF           00957         movwf 47
0085   1C20           00958         btfss 32,0
0086   2892           00959         goto PRIT@SKP
0087   1106           00960         bcf PORTB,2
0088   3C03           00961         sublw 3
0089   1C03           00962         skpc
008A   2897           00963         goto PRT@S
008B   2097           00964         call PRT@S
008C   3007           00965         movlw 7
008D   00AA           00966         movwf 42
008E   30D0           00967         movlw 208
008F   20EF           00968         call DLUS@W
0090   1403           00969         bsf 3,0
0091   0008           00970         return
0092                  00971 PRIT@SKP
0092   1420           00972         bsf 32,0
0093   3CFE           00973         sublw 254
0094   1903           00974         skpnz
0095   28A7           00975         goto PR@EX
0096   1506           00976         bsf PORTB,2
0097                  00977 PRT@S
0097   1C20           00978         btfss 32,0
0098                  00979 PR@LP
0098   1020           00980         bcf 32,0
0099   1586           00981         bsf PORTB,3
009A   300F           00982         movlw 15
009B   0586           00983         andwf PORTB,F
009C   082F           00984         movf 47,W
009D   39F0           00985         andlw 240
009E   0486           00986         iorwf PORTB,F
009F   0000           00987         nop
00A0   1186           00988         bcf PORTB,3
00A1   0EAF           00989         swapf 47,F
00A2   0000           00990         nop
00A3   1820           00991         btfsc 32,0
00A4   2898           00992         goto PR@LP
00A5   3032           00993         movlw 50
00A6   20EE           00994         call DL@US
00A7                  00995 PR@EX
00A7   0830           00996         movf 48,W
00A8   2930           00997         goto I@NT
00A9                  00998 HRSIN2
00A9   1898           00999         btfsc 24,PP_OERR
00AA   1218           01000         bcf 24,PP_CREN
00AB   1618           01001         bsf 24,PP_CREN
00AC   0822           01002         movf 34,W
00AD   00A9           01003         movwf 41
00AE   0825           01004         movf 37,W
00AF   00AA           01005         movwf 42
00B0   01AB           01006         clrf 43
00B1   01AC           01007         clrf 44
00B2   28B3           01008         goto $ + 1
00B3   28B4           01009         goto $ + 1
00B4                  01010 HRSIN@LPT
00B4   0000           01011         nop
00B5   1A8C           01012         btfsc 12,PP_RCIF
00B6   28CE           01013         goto H@RSIN
00B7   30FF           01014         movlw 255
00B8   07AB           01015         addwf 43,F
00B9   1C03           01016         skpc
00BA   07AC           01017         addwf 44,F
00BB   1C03           01018         skpc
00BC   07A9           01019         addwf 41,F
00BD   1C03           01020         skpc
00BE   07AA           01021         addwf 42,F
00BF   1C03           01022         skpc
00C0   2930           01023         goto I@NT
00C1   0F2B           01024         incfsz 43,W
00C2   28B2           01025         goto $ - 16
00C3   0F2C           01026         incfsz 44,W
00C4   28B3           01027         goto $ - 17
00C5   30FA           01028         movlw 250
00C6   00AB           01029         movwf 43
00C7   01AC           01030         clrf 44
00C8   28B4           01031         goto HRSIN@LPT
00C9                  01032 HRSIN
00C9   1898           01033         btfsc 24,PP_OERR
00CA   1218           01034         bcf 24,PP_CREN
00CB   1618           01035         bsf 24,PP_CREN
00CC   1E8C           01036         btfss 12,PP_RCIF
00CD   28CC           01037         goto $ - 1
00CE                  01038 H@RSIN
00CE   081A           01039         movf 26,W
00CF   1403           01040         bsf 3,0
00D0   2930           01041         goto I@NT
00D1                  01042 HRSOUT
00D1   1E0C           01043         btfss 12,PP_TXIF
00D2   28D1           01044         goto $ - 1
00D3   0099           01045         movwf 25
00D4   1403           01046         bsf 3,0
00D5   2930           01047         goto I@NT
00D6                  01048 CH@SND
00D6   1BA1           01049         btfsc 33,7
00D7   285A           01050         goto PRINT
00D8   1921           01051         btfsc 33,2
00D9   28D1           01052         goto HRSOUT
00DA   0008           01053         return
00DB                  01054 CL@R
00DB   0180           01055         clrf 0
00DC   0A84           01056         incf 4,F
00DD   3EFF           01057         addlw 255
00DE   1D03           01058         skpz
00DF   28DB           01059         goto $ - 4
00E0   2930           01060         goto I@NT
00E1                  01061 DL@MS
00E1   01AC           01062         clrf 44
00E2                  01063 DLY@W
00E2   00AB           01064         movwf 43
00E3                  01065 DLY@P
00E3   30FF           01066         movlw 255
00E4   07AB           01067         addwf 43,F
00E5   1C03           01068         skpc
00E6   07AC           01069         addwf 44,F
00E7   1C03           01070         skpc
00E8   2930           01071         goto I@NT
00E9   3003           01072         movlw 3
00EA   00AA           01073         movwf 42
00EB   30E6           01074         movlw 230
00EC   20EF           01075         call DLUS@W
00ED   28E3           01076         goto DLY@P
00EE                  01077 DL@US
00EE   01AA           01078         clrf 42
00EF                  01079 DLUS@W
00EF   3EFC           01080         addlw 252
00F0   00A9           01081         movwf 41
00F1   09AA           01082         comf 42,F
00F2   1C03           01083         skpc
00F3   28FA           01084         goto $ + 7
00F4   30FF           01085         movlw 255
00F5   0000           01086         nop
00F6   07A9           01087         addwf 41,F
00F7   1803           01088         skpnc
00F8   28F5           01089         goto $ - 3
00F9   07A9           01090         addwf 41,F
00FA   0000           01091         nop
00FB   0FAA           01092         incfsz 42,F
00FC   28F4           01093         goto $ - 8
00FD   0008           01094         return
00FE                  01095 D@VD
00FE   01AE           01096         clrf 46
00FF   01AD           01097         clrf 45
0100                  01098 D@VD2
0100   3010           01099         movlw 16
0101   00AF           01100         movwf 47
0102   0D2A           01101         rlf 42,W
0103   0DAD           01102         rlf 45,F
0104   0DAE           01103         rlf 46,F
0105   082B           01104         movf 43,W
0106   02AD           01105         subwf 45,F
0107   082C           01106         movf 44,W
0108   1C03           01107         skpc
0109   0F2C           01108         incfsz 44,W
010A   02AE           01109         subwf 46,F
010B   1803           01110         skpnc
010C   2914           01111         goto $ + 8
010D   082B           01112         movf 43,W
010E   07AD           01113         addwf 45,F
010F   082C           01114         movf 44,W
0110   1803           01115         skpnc
0111   0F2C           01116         incfsz 44,W
0112   07AE           01117         addwf 46,F
0113   1003           01118         bcf 3,0
0114   0DA9           01119         rlf 41,F
0115   0DAA           01120         rlf 42,F
0116   0BAF           01121         decfsz 47,F
0117   2902           01122         goto $ - 21
0118   0829           01123         movf 41,W
0119   0008           01124         return
011A                  01125 M@PY
011A   3010           01126         movlw 16
011B   00B4           01127         movwf 52
011C   01AA           01128         clrf 42
011D   01A9           01129         clrf 41
011E   0CB0           01130         rrf 48,F
011F   0CAF           01131         rrf 47,F
0120   1C03           01132         skpc
0121   2928           01133         goto $ + 7
0122   082B           01134         movf 43,W
0123   07A9           01135         addwf 41,F
0124   082C           01136         movf 44,W
0125   1803           01137         skpnc
0126   0F2C           01138         incfsz 44,W
0127   07AA           01139         addwf 42,F
0128   0CAA           01140         rrf 42,F
0129   0CA9           01141         rrf 41,F
012A   0CAE           01142         rrf 46,F
012B   0CAD           01143         rrf 45,F
012C   0BB4           01144         decfsz 52,F
012D   291E           01145         goto $ - 15
012E   082D           01146         movf 45,W
012F   0008           01147         return
0130                  01148 I@NT
0130   1383           01149         bcf 3,7
0131                  01150 I@NT2
0131   1283           01151         bcf 3,5
0132   1303           01152         bcf 3,6
0133   0008           01153         return
0134                  01154 proton#main#start
0134   0183           01155         clrf 3
0135   1683           01156         bsf 3,5
0136   300A           01157         movlw 10
0137   0099           01158         movwf 153
0138   3024           01159         movlw 36
0139   0098           01160         movwf 152
013A   1283           01161         bcf 3,5
013B   3090           01162         movlw 144
013C   0098           01163         movwf 24
013D   01A0           01164         clrf 32

  0000013E            01167 F2_SOF equ $ ; TIME MANAGEMENT.PRP
  0000013E            01168 F2_EOF equ $ ; TIME MANAGEMENT.PRP
  0000013E            01169 F1_SOF equ $ ; TIME MANAGEMENT.BAS
  0000013E            01170 F1_000020 equ $ ; IN [TIME MANAGEMENT.BAS] CLS
                      01171         f@call LCD@CLS
  00000140            01172 F1_000022 equ $ ; IN [TIME MANAGEMENT.BAS] ADCON1 = 7
0140   3007           01173         movlw 7
0141   1683           01174         bsf STATUS,5
  00000001            01175 ram_bank = 1
0142   009F           01176         movwf ADCON1
  00000143            01177 F1_000023 equ $ ; IN [TIME MANAGEMENT.BAS] TRISA = 0 : PORTA = 0
0143   0185           01178         clrf TRISA
0144   1283           01179         bcf STATUS,5
  00000000            01180 ram_bank = 0
0145   0185           01181         clrf PORTA
  00000146            01182 F1_000052 equ $ ; IN [TIME MANAGEMENT.BAS] CLEAR
0146   3020           01183         movlw 32
0147   0084           01184         movwf FSR
0148   3060           01185         movlw 96
                      01186         f@call CL@R
014B   30A0           01187         movlw 160
014C   0084           01188         movwf FSR
014D   3060           01189         movlw 96
                      01190         f@call CL@R
  00000150            01191 F1_000060 equ $ ; IN [TIME MANAGEMENT.BAS] a_sec_r2 = a_r2_sec + a_r1_sec
0150   01C1           01192         clrf a_sec_r2H
0151   3014           01193         movlw 20
0152   00C0           01194         movwf a_sec_r2
  00000153            01195 F1_000061 equ $ ; IN [TIME MANAGEMENT.BAS] a_sec_r3 = a_r3_sec + a_sec_r2
0153   300A           01196         movlw 10
0154   0740           01197         addwf a_sec_r2,W
0155   00C2           01198         movwf a_sec_r3
0156   0841           01199         movf a_sec_r2H,W
0157   1803           01200         btfsc STATUS,0
0158   3E01           01201         addlw 1
0159   00C3           01202         movwf a_sec_r3H
  0000015A            01203 F1_000062 equ $ ; IN [TIME MANAGEMENT.BAS] a_sec_r4 = a_r4_sec + a_sec_r3
015A   300A           01204         movlw 10
015B   0742           01205         addwf a_sec_r3,W
015C   00C4           01206         movwf a_sec_r4
015D   0843           01207         movf a_sec_r3H,W
015E   1803           01208         btfsc STATUS,0
015F   3E01           01209         addlw 1
0160   00C5           01210         movwf a_sec_r4H
  00000161            01211 F1_000064 equ $ ; IN [TIME MANAGEMENT.BAS] PRINT $FE, $48, 0,17,10,4,10,17,0,0
0161   30FE           01212         movlw 254
                      01213         f@call PRINT
0164   3048           01214         movlw 72
                      01215         f@call PRINT
0167   3000           01216         movlw 0
                      01217         f@call PRINT
016A   3011           01218         movlw 17
                      01219         f@call PRINT
016D   300A           01220         movlw 10
                      01221         f@call PRINT
0170   3004           01222         movlw 4
                      01223         f@call PRINT
0173   300A           01224         movlw 10
                      01225         f@call PRINT
0176   3011           01226         movlw 17
                      01227         f@call PRINT
0179   3000           01228         movlw 0
                      01229         f@call PRINT
017C   3000           01230         movlw 0
                      01231         f@call PRINT
  0000017F            01232 F1_000065 equ $ ; IN [TIME MANAGEMENT.BAS] PRINT $FE, $40, 1,2,20,9,2,20,8,0
017F   30FE           01233         movlw 254
                      01234         f@call PRINT
0182   3040           01235         movlw 64
                      01236         f@call PRINT
0185   3001           01237         movlw 1
                      01238         f@call PRINT
0188   3002           01239         movlw 2
                      01240         f@call PRINT
018B   3014           01241         movlw 20
                      01242         f@call PRINT
018E   3009           01243         movlw 9
                      01244         f@call PRINT
0191   3002           01245         movlw 2
                      01246         f@call PRINT
0194   3014           01247         movlw 20
                      01248         f@call PRINT
0197   3008           01249         movlw 8
                      01250         f@call PRINT
019A   3000           01251         movlw 0
                      01252         f@call PRINT
019D                  01253 Gsm_init
  0000019D            01254 F1_000068 equ $ ; IN [TIME MANAGEMENT.BAS] PRINT AT 1,1, "WAITING FOR GSM"
019D   3080           01255         movlw 128
019E   00A1           01256         movwf BPFH
                      01257         f@call LCD@CRS
01A1   3057           01258         movlw 87
                      01259         f@call PRINT
01A4   3061           01260         movlw 97
                      01261         f@call PRINT
01A7   3069           01262         movlw 105
                      01263         f@call PRINT
01AA   3074           01264         movlw 116
                      01265         f@call PRINT
01AD   3069           01266         movlw 105
                      01267         f@call PRINT
01B0   306E           01268         movlw 110
                      01269         f@call PRINT
01B3   3067           01270         movlw 103
                      01271         f@call PRINT
01B6   3020           01272         movlw 32
                      01273         f@call PRINT
01B9   3066           01274         movlw 102
                      01275         f@call PRINT
01BC   306F           01276         movlw 111
                      01277         f@call PRINT
01BF   3072           01278         movlw 114
                      01279         f@call PRINT
01C2   3020           01280         movlw 32
                      01281         f@call PRINT
01C5   3047           01282         movlw 71
                      01283         f@call PRINT
01C8   3053           01284         movlw 83
                      01285         f@call PRINT
01CB   304D           01286         movlw 77
                      01287         f@call PRINT
  000001CE            01288 F1_000069 equ $ ; IN [TIME MANAGEMENT.BAS] DELAYMS 10000
01CE   3027           01289         movlw 39
01CF   00AC           01290         movwf PP1H
01D0   3010           01291         movlw 16
                      01292         f@call DLY@W
  000001D3            01293 F1_000070 equ $ ; IN [TIME MANAGEMENT.BAS] PRINT AT 2,1, "."
01D3   3080           01294         movlw 128
01D4   00A1           01295         movwf BPFH
01D5   30C0           01296         movlw 192
                      01297         f@call LCD@CRS
01D8   302E           01298         movlw 46
                      01299         f@call PRINT
  000001DB            01300 F1_000071 equ $ ; IN [TIME MANAGEMENT.BAS] HSEROUT["AT", 13, 10]
01DB   3041           01301         movlw 65
                      01302         f@call HRSOUT
01DE   3054           01303         movlw 84
                      01304         f@call HRSOUT
01E1   300D           01305         movlw 13
                      01306         f@call HRSOUT
01E4   300A           01307         movlw 10
                      01308         f@call HRSOUT
  000001E7            01309 F1_000072 equ $ ; IN [TIME MANAGEMENT.BAS] HSERIN 1000, Gsm_init,[WAIT("OK")]
01E7   3003           01310         movlw 3
01E8   00A5           01311         movwf GENH
01E9   30E8           01312         movlw 232
01EA   00A2           01313         movwf GEN
01EB                  01314 PB@LB2
                      01315         f@call HRSIN2
                      01316         set@page Gsm_init
01EE   1C03           01317         btfss STATUS,0
01EF   299D           01318         goto Gsm_init
01F0   3C4F           01319         sublw 79
                      01320         set@page PB@LB2
01F2   1D03           01321         btfss STATUS,2
01F3   29EB           01322         goto PB@LB2
                      01323         f@call HRSIN2
                      01324         set@page Gsm_init
01F7   1C03           01325         btfss STATUS,0
01F8   299D           01326         goto Gsm_init
01F9   3C4B           01327         sublw 75
                      01328         set@page PB@LB2
01FB   1D03           01329         btfss STATUS,2
01FC   29EB           01330         goto PB@LB2
  000001FD            01331 F1_000073 equ $ ; IN [TIME MANAGEMENT.BAS] PRINT AT 2,2, "."
01FD   3080           01332         movlw 128
01FE   00A1           01333         movwf BPFH
01FF   30C1           01334         movlw 193
                      01335         f@call LCD@CRS
0202   302E           01336         movlw 46
                      01337         f@call PRINT
  00000205            01338 F1_000074 equ $ ; IN [TIME MANAGEMENT.BAS] HSEROUT["ATE0", 13, 10]
0205   3041           01339         movlw 65
                      01340         f@call HRSOUT
0208   3054           01341         movlw 84
                      01342         f@call HRSOUT
020B   3045           01343         movlw 69
                      01344         f@call HRSOUT
020E   3030           01345         movlw 48
                      01346         f@call HRSOUT
0211   300D           01347         movlw 13
                      01348         f@call HRSOUT
0214   300A           01349         movlw 10
                      01350         f@call HRSOUT
  00000217            01351 F1_000075 equ $ ; IN [TIME MANAGEMENT.BAS] DELAYMS 1000
0217   3003           01352         movlw 3
0218   00AC           01353         movwf PP1H
0219   30E8           01354         movlw 232
                      01355         f@call DLY@W
  0000021C            01356 F1_000076 equ $ ; IN [TIME MANAGEMENT.BAS] PRINT AT 2,3, "."
021C   3080           01357         movlw 128
021D   00A1           01358         movwf BPFH
021E   30C2           01359         movlw 194
                      01360         f@call LCD@CRS
0221   302E           01361         movlw 46
                      01362         f@call PRINT
  00000224            01363 F1_000077 equ $ ; IN [TIME MANAGEMENT.BAS] HSEROUT["AT+CSDH=1", 13, 10]
0224   3041           01364         movlw 65
                      01365         f@call HRSOUT
0227   3054           01366         movlw 84
                      01367         f@call HRSOUT
022A   302B           01368         movlw 43
                      01369         f@call HRSOUT
022D   3043           01370         movlw 67
                      01371         f@call HRSOUT
0230   3053           01372         movlw 83
                      01373         f@call HRSOUT
0233   3044           01374         movlw 68
                      01375         f@call HRSOUT
0236   3048           01376         movlw 72
                      01377         f@call HRSOUT
0239   303D           01378         movlw 61
                      01379         f@call HRSOUT
023C   3031           01380         movlw 49
                      01381         f@call HRSOUT
023F   300D           01382         movlw 13
                      01383         f@call HRSOUT
0242   300A           01384         movlw 10
                      01385         f@call HRSOUT
  00000245            01386 F1_000078 equ $ ; IN [TIME MANAGEMENT.BAS] DELAYMS 1000
0245   3003           01387         movlw 3
0246   00AC           01388         movwf PP1H
0247   30E8           01389         movlw 232
                      01390         f@call DLY@W
  0000024A            01391 F1_000079 equ $ ; IN [TIME MANAGEMENT.BAS] PRINT AT 2,4, "."
024A   3080           01392         movlw 128
024B   00A1           01393         movwf BPFH
024C   30C3           01394         movlw 195
                      01395         f@call LCD@CRS
024F   302E           01396         movlw 46
                      01397         f@call PRINT
  00000252            01398 F1_000080 equ $ ; IN [TIME MANAGEMENT.BAS] HSEROUT["AT+CMGF=1", 13, 10]
0252   3041           01399         movlw 65
                      01400         f@call HRSOUT
0255   3054           01401         movlw 84
                      01402         f@call HRSOUT
0258   302B           01403         movlw 43
                      01404         f@call HRSOUT
025B   3043           01405         movlw 67
                      01406         f@call HRSOUT
025E   304D           01407         movlw 77
                      01408         f@call HRSOUT
0261   3047           01409         movlw 71
                      01410         f@call HRSOUT
0264   3046           01411         movlw 70
                      01412         f@call HRSOUT
0267   303D           01413         movlw 61
                      01414         f@call HRSOUT
026A   3031           01415         movlw 49
                      01416         f@call HRSOUT
026D   300D           01417         movlw 13
                      01418         f@call HRSOUT
0270   300A           01419         movlw 10
                      01420         f@call HRSOUT
  00000273            01421 F1_000081 equ $ ; IN [TIME MANAGEMENT.BAS] DELAYMS 1000
0273   3003           01422         movlw 3
0274   00AC           01423         movwf PP1H
0275   30E8           01424         movlw 232
                      01425         f@call DLY@W
  00000278            01426 F1_000082 equ $ ; IN [TIME MANAGEMENT.BAS] PRINT AT 2,4, "."
0278   3080           01427         movlw 128
0279   00A1           01428         movwf BPFH
027A   30C3           01429         movlw 195
                      01430         f@call LCD@CRS
027D   302E           01431         movlw 46
                      01432         f@call PRINT
  00000280            01433 F1_000083 equ $ ; IN [TIME MANAGEMENT.BAS] HSEROUT["AT+CNMI=1,2,0,0,0", 13, 10]
0280   3041           01434         movlw 65
                      01435         f@call HRSOUT
0283   3054           01436         movlw 84
                      01437         f@call HRSOUT
0286   302B           01438         movlw 43
                      01439         f@call HRSOUT
0289   3043           01440         movlw 67
                      01441         f@call HRSOUT
028C   304E           01442         movlw 78
                      01443         f@call HRSOUT
028F   304D           01444         movlw 77
                      01445         f@call HRSOUT
0292   3049           01446         movlw 73
                      01447         f@call HRSOUT
0295   303D           01448         movlw 61
                      01449         f@call HRSOUT
0298   3031           01450         movlw 49
                      01451         f@call HRSOUT
029B   302C           01452         movlw 44
                      01453         f@call HRSOUT
029E   3032           01454         movlw 50
                      01455         f@call HRSOUT
02A1   302C           01456         movlw 44
                      01457         f@call HRSOUT
02A4   3030           01458         movlw 48
                      01459         f@call HRSOUT
02A7   302C           01460         movlw 44
                      01461         f@call HRSOUT
02AA   3030           01462         movlw 48
                      01463         f@call HRSOUT
02AD   302C           01464         movlw 44
                      01465         f@call HRSOUT
02B0   3030           01466         movlw 48
                      01467         f@call HRSOUT
02B3   300D           01468         movlw 13
                      01469         f@call HRSOUT
02B6   300A           01470         movlw 10
                      01471         f@call HRSOUT
  000002B9            01472 F1_000084 equ $ ; IN [TIME MANAGEMENT.BAS] DELAYMS 1000
02B9   3003           01473         movlw 3
02BA   00AC           01474         movwf PP1H
02BB   30E8           01475         movlw 232
                      01476         f@call DLY@W
  000002BE            01477 F1_000085 equ $ ; IN [TIME MANAGEMENT.BAS] PRINT AT 2,5, "."
02BE   3080           01478         movlw 128
02BF   00A1           01479         movwf BPFH
02C0   30C4           01480         movlw 196
                      01481         f@call LCD@CRS
02C3   302E           01482         movlw 46
                      01483         f@call PRINT
  000002C6            01484 F1_000086 equ $ ; IN [TIME MANAGEMENT.BAS] HSEROUT["AT+CMGD=4", 13, 10]
02C6   3041           01485         movlw 65
                      01486         f@call HRSOUT
02C9   3054           01487         movlw 84
                      01488         f@call HRSOUT
02CC   302B           01489         movlw 43
                      01490         f@call HRSOUT
02CF   3043           01491         movlw 67
                      01492         f@call HRSOUT
02D2   304D           01493         movlw 77
                      01494         f@call HRSOUT
02D5   3047           01495         movlw 71
                      01496         f@call HRSOUT
02D8   3044           01497         movlw 68
                      01498         f@call HRSOUT
02DB   303D           01499         movlw 61
                      01500         f@call HRSOUT
02DE   3034           01501         movlw 52
                      01502         f@call HRSOUT
02E1   300D           01503         movlw 13
                      01504         f@call HRSOUT
02E4   300A           01505         movlw 10
                      01506         f@call HRSOUT
  000002E7            01507 F1_000087 equ $ ; IN [TIME MANAGEMENT.BAS] DELAYMS 1000
02E7   3003           01508         movlw 3
02E8   00AC           01509         movwf PP1H
02E9   30E8           01510         movlw 232
                      01511         f@call DLY@W
  000002EC            01512 F1_000088 equ $ ; IN [TIME MANAGEMENT.BAS] PRINT AT 2,4, "."
02EC   3080           01513         movlw 128
02ED   00A1           01514         movwf BPFH
02EE   30C3           01515         movlw 195
                      01516         f@call LCD@CRS
02F1   302E           01517         movlw 46
                      01518         f@call PRINT
  000002F4            01519 F1_000089 equ $ ; IN [TIME MANAGEMENT.BAS] DELAYMS 1000
02F4   3003           01520         movlw 3
02F5   00AC           01521         movwf PP1H
02F6   30E8           01522         movlw 232
                      01523         f@call DLY@W
  000002F9            01524 F1_000090 equ $ ; IN [TIME MANAGEMENT.BAS] CLS
                      01525         f@call LCD@CLS
  000002FB            01526 F3_SOF equ $ ; KEYPAD4X4.INC
02FB                  01527 checking
  000002FB            01528 F3_000022 equ $ ; IN [KEYPAD4X4.INC] INPUT row_1 : INPUT row_2 : INPUT row_3 : INPUT row_4
02FB   1683           01529         bsf STATUS,5
  00000001            01530 ram_bank = 1
02FC   1486           01531         bsf TRISB,1
02FD   1406           01532         bsf TRISB,0
02FE   1687           01533         bsf TRISC,5
02FF   1607           01534         bsf TRISC,4
  00000300            01535 F3_000023 equ $ ; IN [KEYPAD4X4.INC] OUTPUT col_1 : OUTPUT col_2 : OUTPUT col_3 : OUTPUT col_4
0300   1187           01536         bcf TRISC,3
0301   1107           01537         bcf TRISC,2
0302   1087           01538         bcf TRISC,1
0303   1007           01539         bcf TRISC,0
  00000304            01540 F3_000026 equ $ ; IN [KEYPAD4X4.INC] goto main
0304   1283           01541         bcf STATUS,5
  00000000            01542 ram_bank = 0
                      01543         F@JUMP main
0307                  01544 capture_key
  00000307            01545 F3_000029 equ $ ; IN [KEYPAD4X4.INC] key_value = 0 : key = 0
0307   01ED           01546         clrf key_value
0308   01EC           01547         clrf key
  00000309            01548 F3_000030 equ $ ; IN [KEYPAD4X4.INC] col_1 = 1 : col_2 = 0 : col_3 = 0 : col_4 = 0
0309   1587           01549         bsf PORTC,3
030A   1107           01550         bcf PORTC,2
030B   1087           01551         bcf PORTC,1
030C   1007           01552         bcf PORTC,0
  0000030D            01553 F3_000031 equ $ ; IN [KEYPAD4X4.INC] DELAYMS 1
030D   3001           01554         movlw 1
                      01555         f@call DL@MS
  00000310            01556 F3_000032 equ $ ; IN [KEYPAD4X4.INC] if row_1 = 1 THEN
                      01557         set@page BC@LL3
0311   1C86           01558         btfss PORTB,1
0312   2B19           01559         goto BC@LL3
  00000313            01560 F3_000033 equ $ ; IN [KEYPAD4X4.INC] key = 1 : GOSUB get_code
0313   3001           01561         movlw 1
0314   00EC           01562         movwf key
                      01563         f@call get_code
                      01564         F@JUMP BC@LL2
  00000319            01565 F3_000034 equ $ ; IN [KEYPAD4X4.INC] ELSEIF row_2 = 1 THEN
0319                  01566 BC@LL3
                      01567         set@page BC@LL4
031A   1C06           01568         btfss PORTB,0
031B   2B22           01569         goto BC@LL4
  0000031C            01570 F3_000035 equ $ ; IN [KEYPAD4X4.INC] key = 2 : GOSUB get_code
031C   3002           01571         movlw 2
031D   00EC           01572         movwf key
                      01573         f@call get_code
                      01574         F@JUMP BC@LL2
  00000322            01575 F3_000036 equ $ ; IN [KEYPAD4X4.INC] ELSEIF row_3 = 1 THEN
0322                  01576 BC@LL4
                      01577         set@page BC@LL5
0323   1E87           01578         btfss PORTC,5
0324   2B2B           01579         goto BC@LL5
  00000325            01580 F3_000037 equ $ ; IN [KEYPAD4X4.INC] key = 3 : GOSUB get_code
0325   3003           01581         movlw 3
0326   00EC           01582         movwf key
                      01583         f@call get_code
                      01584         F@JUMP BC@LL2
  0000032B            01585 F3_000038 equ $ ; IN [KEYPAD4X4.INC] ELSEIF row_4 = 1 THEN
032B                  01586 BC@LL5
                      01587         set@page BC@LL6
032C   1E07           01588         btfss PORTC,4
032D   2B32           01589         goto BC@LL6
  0000032E            01590 F3_000039 equ $ ; IN [KEYPAD4X4.INC] key = 4 : GOSUB get_code
032E   3004           01591         movlw 4
032F   00EC           01592         movwf key
                      01593         f@call get_code
  00000332            01594 F3_000040 equ $ ; IN [KEYPAD4X4.INC] endif
0332                  01595 BC@LL6
0332                  01596 BC@LL2
  00000332            01597 F3_000041 equ $ ; IN [KEYPAD4X4.INC] col_1 = 0 : col_2 = 1 : col_3 = 0 : col_4 = 0
0332   1187           01598         bcf PORTC,3
0333   1507           01599         bsf PORTC,2
0334   1087           01600         bcf PORTC,1
0335   1007           01601         bcf PORTC,0
  00000336            01602 F3_000042 equ $ ; IN [KEYPAD4X4.INC] DELAYMS 1
0336   3001           01603         movlw 1
                      01604         f@call DL@MS
  00000339            01605 F3_000043 equ $ ; IN [KEYPAD4X4.INC] if row_1 = 1 THEN
                      01606         set@page BC@LL8
033A   1C86           01607         btfss PORTB,1
033B   2B42           01608         goto BC@LL8
  0000033C            01609 F3_000044 equ $ ; IN [KEYPAD4X4.INC] key = 5 : GOSUB get_code
033C   3005           01610         movlw 5
033D   00EC           01611         movwf key
                      01612         f@call get_code
                      01613         F@JUMP BC@LL7
  00000342            01614 F3_000045 equ $ ; IN [KEYPAD4X4.INC] ELSEIF row_2 = 1 THEN
0342                  01615 BC@LL8
                      01616         set@page BC@LL9
0343   1C06           01617         btfss PORTB,0
0344   2B4B           01618         goto BC@LL9
  00000345            01619 F3_000046 equ $ ; IN [KEYPAD4X4.INC] key = 6 : GOSUB get_code
0345   3006           01620         movlw 6
0346   00EC           01621         movwf key
                      01622         f@call get_code
                      01623         F@JUMP BC@LL7
  0000034B            01624 F3_000047 equ $ ; IN [KEYPAD4X4.INC] ELSEIF row_3 = 1 THEN
034B                  01625 BC@LL9
                      01626         set@page BC@LL10
034C   1E87           01627         btfss PORTC,5
034D   2B54           01628         goto BC@LL10
  0000034E            01629 F3_000048 equ $ ; IN [KEYPAD4X4.INC] key = 7 : GOSUB get_code
034E   3007           01630         movlw 7
034F   00EC           01631         movwf key
                      01632         f@call get_code
                      01633         F@JUMP BC@LL7
  00000354            01634 F3_000049 equ $ ; IN [KEYPAD4X4.INC] ELSEIF row_4 = 1 THEN
0354                  01635 BC@LL10
                      01636         set@page BC@LL11
0355   1E07           01637         btfss PORTC,4
0356   2B5B           01638         goto BC@LL11
  00000357            01639 F3_000050 equ $ ; IN [KEYPAD4X4.INC] key = 8 : GOSUB get_code
0357   3008           01640         movlw 8
0358   00EC           01641         movwf key
                      01642         f@call get_code
  0000035B            01643 F3_000051 equ $ ; IN [KEYPAD4X4.INC] endif
035B                  01644 BC@LL11
035B                  01645 BC@LL7
  0000035B            01646 F3_000052 equ $ ; IN [KEYPAD4X4.INC] col_1 = 0 : col_2 = 0 : col_3 = 1 : col_4 = 0
035B   1187           01647         bcf PORTC,3
035C   1107           01648         bcf PORTC,2
035D   1487           01649         bsf PORTC,1
035E   1007           01650         bcf PORTC,0
  0000035F            01651 F3_000053 equ $ ; IN [KEYPAD4X4.INC] DELAYMS 1
035F   3001           01652         movlw 1
                      01653         f@call DL@MS
  00000362            01654 F3_000054 equ $ ; IN [KEYPAD4X4.INC] if row_1 = 1 THEN
                      01655         set@page BC@LL13
0363   1C86           01656         btfss PORTB,1
0364   2B6B           01657         goto BC@LL13
  00000365            01658 F3_000055 equ $ ; IN [KEYPAD4X4.INC] key = 9 : GOSUB get_code
0365   3009           01659         movlw 9
0366   00EC           01660         movwf key
                      01661         f@call get_code
                      01662         F@JUMP BC@LL12
  0000036B            01663 F3_000056 equ $ ; IN [KEYPAD4X4.INC] ELSEIF row_2 = 1 THEN
036B                  01664 BC@LL13
                      01665         set@page BC@LL14
036C   1C06           01666         btfss PORTB,0
036D   2B74           01667         goto BC@LL14
  0000036E            01668 F3_000057 equ $ ; IN [KEYPAD4X4.INC] key = 10 : GOSUB get_code
036E   300A           01669         movlw 10
036F   00EC           01670         movwf key
                      01671         f@call get_code
                      01672         F@JUMP BC@LL12
  00000374            01673 F3_000058 equ $ ; IN [KEYPAD4X4.INC] ELSEIF row_3 = 1 THEN
0374                  01674 BC@LL14
                      01675         set@page BC@LL15
0375   1E87           01676         btfss PORTC,5
0376   2B7D           01677         goto BC@LL15
  00000377            01678 F3_000059 equ $ ; IN [KEYPAD4X4.INC] key = 11 : GOSUB get_code
0377   300B           01679         movlw 11
0378   00EC           01680         movwf key
                      01681         f@call get_code
                      01682         F@JUMP BC@LL12
  0000037D            01683 F3_000060 equ $ ; IN [KEYPAD4X4.INC] ELSEIF row_4 = 1 THEN
037D                  01684 BC@LL15
                      01685         set@page BC@LL16
037E   1E07           01686         btfss PORTC,4
037F   2B84           01687         goto BC@LL16
  00000380            01688 F3_000061 equ $ ; IN [KEYPAD4X4.INC] key = 12 : GOSUB get_code
0380   300C           01689         movlw 12
0381   00EC           01690         movwf key
                      01691         f@call get_code
  00000384            01692 F3_000062 equ $ ; IN [KEYPAD4X4.INC] endif
0384                  01693 BC@LL16
0384                  01694 BC@LL12
  00000384            01695 F3_000063 equ $ ; IN [KEYPAD4X4.INC] col_1 = 0 : col_2 = 0 : col_3 = 0 : col_4 = 1
0384   1187           01696         bcf PORTC,3
0385   1107           01697         bcf PORTC,2
0386   1087           01698         bcf PORTC,1
0387   1407           01699         bsf PORTC,0
  00000388            01700 F3_000064 equ $ ; IN [KEYPAD4X4.INC] DELAYMS 1
0388   3001           01701         movlw 1
                      01702         f@call DL@MS
  0000038B            01703 F3_000065 equ $ ; IN [KEYPAD4X4.INC] if row_1 = 1 THEN
                      01704         set@page BC@LL18
038C   1C86           01705         btfss PORTB,1
038D   2B94           01706         goto BC@LL18
  0000038E            01707 F3_000066 equ $ ; IN [KEYPAD4X4.INC] key = 13 : GOSUB get_code
038E   300D           01708         movlw 13
038F   00EC           01709         movwf key
                      01710         f@call get_code
                      01711         F@JUMP BC@LL17
  00000394            01712 F3_000067 equ $ ; IN [KEYPAD4X4.INC] ELSEIF row_2 = 1 THEN
0394                  01713 BC@LL18
                      01714         set@page BC@LL19
0395   1C06           01715         btfss PORTB,0
0396   2B9D           01716         goto BC@LL19
  00000397            01717 F3_000068 equ $ ; IN [KEYPAD4X4.INC] key = 14 : GOSUB get_code
0397   300E           01718         movlw 14
0398   00EC           01719         movwf key
                      01720         f@call get_code
                      01721         F@JUMP BC@LL17
  0000039D            01722 F3_000069 equ $ ; IN [KEYPAD4X4.INC] ELSEIF row_3 = 1 THEN
039D                  01723 BC@LL19
                      01724         set@page BC@LL20
039E   1E87           01725         btfss PORTC,5
039F   2BA6           01726         goto BC@LL20
  000003A0            01727 F3_000070 equ $ ; IN [KEYPAD4X4.INC] key = 15 : GOSUB get_code
03A0   300F           01728         movlw 15
03A1   00EC           01729         movwf key
                      01730         f@call get_code
                      01731         F@JUMP BC@LL17
  000003A6            01732 F3_000071 equ $ ; IN [KEYPAD4X4.INC] ELSEIF row_4 = 1 THEN
03A6                  01733 BC@LL20
                      01734         set@page BC@LL21
03A7   1E07           01735         btfss PORTC,4
03A8   2BAD           01736         goto BC@LL21
  000003A9            01737 F3_000072 equ $ ; IN [KEYPAD4X4.INC] key = 16 : GOSUB get_code
03A9   3010           01738         movlw 16
03AA   00EC           01739         movwf key
                      01740         f@call get_code
  000003AD            01741 F3_000073 equ $ ; IN [KEYPAD4X4.INC] endif
03AD                  01742 BC@LL21
03AD                  01743 BC@LL17
  000003AD            01744 F3_000074 equ $ ; IN [KEYPAD4X4.INC] return
03AD   0008           01745         return
03AE                  01746 read_key
  000003AE            01747 F3_000077 equ $ ; IN [KEYPAD4X4.INC] REPEAT
03AE                  01748 BC@LL22
  000003AE            01749 F3_000078 equ $ ; IN [KEYPAD4X4.INC] GOSUB capture_key
                      01750         f@call capture_key
03B0                  01751 BC@LL24
  000003B0            01752 F3_000079 equ $ ; IN [KEYPAD4X4.INC] UNTIL key != 0
03B0   08EC           01753         movf key,F
                      01754         set@page BC@LL22
03B2   1903           01755         btfsc STATUS,2
03B3   2BAE           01756         goto BC@LL22
03B4                  01757 BC@LL23
  000003B4            01758 F3_000080 equ $ ; IN [KEYPAD4X4.INC] return
03B4   0008           01759         return
03B5                  01760 get_code
  000003B5            01761 F3_000083 equ $ ; IN [KEYPAD4X4.INC] SELECT key
  000003B5            01762 F3_000084 equ $ ; IN [KEYPAD4X4.INC] CASE 0 : key_value = 0 : return
03B5   08EC           01763         movf key,F
                      01764         set@page BC@LL26
03B7   1D03           01765         btfss STATUS,2
03B8   2BBD           01766         goto BC@LL26
  00000000            01767 ram_bank = 0
03B9   01ED           01768         clrf key_value
03BA   0008           01769         return
                      01770         F@JUMP BC@LL25
03BD                  01771 BC@LL26
  000003BD            01772 F3_000085 equ $ ; IN [KEYPAD4X4.INC] CASE 1 : key_value = "1" : DELAYMS 500
03BD   3001           01773         movlw 1
03BE   026C           01774         subwf key,W
                      01775         set@page BC@LL29
03C0   1D03           01776         btfss STATUS,2
03C1   2BCB           01777         goto BC@LL29
  00000000            01778 ram_bank = 0
03C2   3031           01779         movlw 49
03C3   00ED           01780         movwf key_value
03C4   3001           01781         movlw 1
03C5   00AC           01782         movwf PP1H
03C6   30F4           01783         movlw 244
                      01784         f@call DLY@W
                      01785         F@JUMP BC@LL25
03CB                  01786 BC@LL29
  000003CB            01787 F3_000086 equ $ ; IN [KEYPAD4X4.INC] CASE 2 : key_value = "4" : DELAYMS 500
03CB   3002           01788         movlw 2
03CC   026C           01789         subwf key,W
                      01790         set@page BC@LL31
03CE   1D03           01791         btfss STATUS,2
03CF   2BD9           01792         goto BC@LL31
  00000000            01793 ram_bank = 0
03D0   3034           01794         movlw 52
03D1   00ED           01795         movwf key_value
03D2   3001           01796         movlw 1
03D3   00AC           01797         movwf PP1H
03D4   30F4           01798         movlw 244
                      01799         f@call DLY@W
                      01800         F@JUMP BC@LL25
03D9                  01801 BC@LL31
  000003D9            01802 F3_000087 equ $ ; IN [KEYPAD4X4.INC] CASE 3 : key_value = "7" : DELAYMS 500
03D9   3003           01803         movlw 3
03DA   026C           01804         subwf key,W
                      01805         set@page BC@LL33
03DC   1D03           01806         btfss STATUS,2
03DD   2BE7           01807         goto BC@LL33
  00000000            01808 ram_bank = 0
03DE   3037           01809         movlw 55
03DF   00ED           01810         movwf key_value
03E0   3001           01811         movlw 1
03E1   00AC           01812         movwf PP1H
03E2   30F4           01813         movlw 244
                      01814         f@call DLY@W
                      01815         F@JUMP BC@LL25
03E7                  01816 BC@LL33
  000003E7            01817 F3_000088 equ $ ; IN [KEYPAD4X4.INC] CASE 4 : key_value = "*" : DELAYMS 500
03E7   3004           01818         movlw 4
03E8   026C           01819         subwf key,W
                      01820         set@page BC@LL35
03EA   1D03           01821         btfss STATUS,2
03EB   2BF5           01822         goto BC@LL35
  00000000            01823 ram_bank = 0
03EC   302A           01824         movlw 42
03ED   00ED           01825         movwf key_value
03EE   3001           01826         movlw 1
03EF   00AC           01827         movwf PP1H
03F0   30F4           01828         movlw 244
                      01829         f@call DLY@W
                      01830         F@JUMP BC@LL25
03F5                  01831 BC@LL35
  000003F5            01832 F3_000089 equ $ ; IN [KEYPAD4X4.INC] CASE 5 : key_value = "2" : DELAYMS 500
03F5   3005           01833         movlw 5
03F6   026C           01834         subwf key,W
                      01835         set@page BC@LL37
03F8   1D03           01836         btfss STATUS,2
03F9   2C03           01837         goto BC@LL37
  00000000            01838 ram_bank = 0
03FA   3032           01839         movlw 50
03FB   00ED           01840         movwf key_value
03FC   3001           01841         movlw 1
03FD   00AC           01842         movwf PP1H
03FE   30F4           01843         movlw 244
                      01844         f@call DLY@W
                      01845         F@JUMP BC@LL25
0403                  01846 BC@LL37
  00000403            01847 F3_000090 equ $ ; IN [KEYPAD4X4.INC] CASE 6 : key_value = "5" : DELAYMS 500
0403   3006           01848         movlw 6
0404   026C           01849         subwf key,W
                      01850         set@page BC@LL39
0406   1D03           01851         btfss STATUS,2
0407   2C11           01852         goto BC@LL39
  00000000            01853 ram_bank = 0
0408   3035           01854         movlw 53
0409   00ED           01855         movwf key_value
040A   3001           01856         movlw 1
040B   00AC           01857         movwf PP1H
040C   30F4           01858         movlw 244
                      01859         f@call DLY@W
                      01860         F@JUMP BC@LL25
0411                  01861 BC@LL39
  00000411            01862 F3_000091 equ $ ; IN [KEYPAD4X4.INC] CASE 7 : key_value = "8" : DELAYMS 500
0411   3007           01863         movlw 7
0412   026C           01864         subwf key,W
                      01865         set@page BC@LL41
0414   1D03           01866         btfss STATUS,2
0415   2C1F           01867         goto BC@LL41
  00000000            01868 ram_bank = 0
0416   3038           01869         movlw 56
0417   00ED           01870         movwf key_value
0418   3001           01871         movlw 1
0419   00AC           01872         movwf PP1H
041A   30F4           01873         movlw 244
                      01874         f@call DLY@W
                      01875         F@JUMP BC@LL25
041F                  01876 BC@LL41
  0000041F            01877 F3_000092 equ $ ; IN [KEYPAD4X4.INC] CASE 8 : key_value = "0" : DELAYMS 500
041F   3008           01878         movlw 8
0420   026C           01879         subwf key,W
                      01880         set@page BC@LL43
0422   1D03           01881         btfss STATUS,2
0423   2C2D           01882         goto BC@LL43
  00000000            01883 ram_bank = 0
0424   3030           01884         movlw 48
0425   00ED           01885         movwf key_value
0426   3001           01886         movlw 1
0427   00AC           01887         movwf PP1H
0428   30F4           01888         movlw 244
                      01889         f@call DLY@W
                      01890         F@JUMP BC@LL25
042D                  01891 BC@LL43
  0000042D            01892 F3_000093 equ $ ; IN [KEYPAD4X4.INC] CASE 9 : key_value = "3" : DELAYMS 500
042D   3009           01893         movlw 9
042E   026C           01894         subwf key,W
                      01895         set@page BC@LL45
0430   1D03           01896         btfss STATUS,2
0431   2C3B           01897         goto BC@LL45
  00000000            01898 ram_bank = 0
0432   3033           01899         movlw 51
0433   00ED           01900         movwf key_value
0434   3001           01901         movlw 1
0435   00AC           01902         movwf PP1H
0436   30F4           01903         movlw 244
                      01904         f@call DLY@W
                      01905         F@JUMP BC@LL25
043B                  01906 BC@LL45
  0000043B            01907 F3_000094 equ $ ; IN [KEYPAD4X4.INC] CASE 10 : key_value = "6" : DELAYMS 500
043B   300A           01908         movlw 10
043C   026C           01909         subwf key,W
                      01910         set@page BC@LL47
043E   1D03           01911         btfss STATUS,2
043F   2C49           01912         goto BC@LL47
  00000000            01913 ram_bank = 0
0440   3036           01914         movlw 54
0441   00ED           01915         movwf key_value
0442   3001           01916         movlw 1
0443   00AC           01917         movwf PP1H
0444   30F4           01918         movlw 244
                      01919         f@call DLY@W
                      01920         F@JUMP BC@LL25
0449                  01921 BC@LL47
  00000449            01922 F3_000095 equ $ ; IN [KEYPAD4X4.INC] CASE 11 : key_value = "9" : DELAYMS 500
0449   300B           01923         movlw 11
044A   026C           01924         subwf key,W
                      01925         set@page BC@LL49
044C   1D03           01926         btfss STATUS,2
044D   2C57           01927         goto BC@LL49
  00000000            01928 ram_bank = 0
044E   3039           01929         movlw 57
044F   00ED           01930         movwf key_value
0450   3001           01931         movlw 1
0451   00AC           01932         movwf PP1H
0452   30F4           01933         movlw 244
                      01934         f@call DLY@W
                      01935         F@JUMP BC@LL25
0457                  01936 BC@LL49
  00000457            01937 F3_000096 equ $ ; IN [KEYPAD4X4.INC] CASE 12 : key_value = "#" : DELAYMS 500
0457   300C           01938         movlw 12
0458   026C           01939         subwf key,W
                      01940         set@page BC@LL51
045A   1D03           01941         btfss STATUS,2
045B   2C65           01942         goto BC@LL51
  00000000            01943 ram_bank = 0
045C   3023           01944         movlw 35
045D   00ED           01945         movwf key_value
045E   3001           01946         movlw 1
045F   00AC           01947         movwf PP1H
0460   30F4           01948         movlw 244
                      01949         f@call DLY@W
                      01950         F@JUMP BC@LL25
0465                  01951 BC@LL51
  00000465            01952 F3_000097 equ $ ; IN [KEYPAD4X4.INC] CASE 13 : key_value = "A" : DELAYMS 500
0465   300D           01953         movlw 13
0466   026C           01954         subwf key,W
                      01955         set@page BC@LL53
0468   1D03           01956         btfss STATUS,2
0469   2C73           01957         goto BC@LL53
  00000000            01958 ram_bank = 0
046A   3041           01959         movlw 65
046B   00ED           01960         movwf key_value
046C   3001           01961         movlw 1
046D   00AC           01962         movwf PP1H
046E   30F4           01963         movlw 244
                      01964         f@call DLY@W
                      01965         F@JUMP BC@LL25
0473                  01966 BC@LL53
  00000473            01967 F3_000098 equ $ ; IN [KEYPAD4X4.INC] CASE 14 : key_value = "B" : DELAYMS 500
0473   300E           01968         movlw 14
0474   026C           01969         subwf key,W
                      01970         set@page BC@LL55
0476   1D03           01971         btfss STATUS,2
0477   2C81           01972         goto BC@LL55
  00000000            01973 ram_bank = 0
0478   3042           01974         movlw 66
0479   00ED           01975         movwf key_value
047A   3001           01976         movlw 1
047B   00AC           01977         movwf PP1H
047C   30F4           01978         movlw 244
                      01979         f@call DLY@W
                      01980         F@JUMP BC@LL25
0481                  01981 BC@LL55
  00000481            01982 F3_000099 equ $ ; IN [KEYPAD4X4.INC] CASE 15 : key_value = "C" : DELAYMS 500
0481   300F           01983         movlw 15
0482   026C           01984         subwf key,W
                      01985         set@page BC@LL57
0484   1D03           01986         btfss STATUS,2
0485   2C8F           01987         goto BC@LL57
  00000000            01988 ram_bank = 0
0486   3043           01989         movlw 67
0487   00ED           01990         movwf key_value
0488   3001           01991         movlw 1
0489   00AC           01992         movwf PP1H
048A   30F4           01993         movlw 244
                      01994         f@call DLY@W
                      01995         F@JUMP BC@LL25
048F                  01996 BC@LL57
  0000048F            01997 F3_000100 equ $ ; IN [KEYPAD4X4.INC] CASE 16 : key_value = "D" : DELAYMS 500
048F   3010           01998         movlw 16
0490   026C           01999         subwf key,W
                      02000         set@page BC@LL59
0492   1D03           02001         btfss STATUS,2
0493   2C9D           02002         goto BC@LL59
  00000000            02003 ram_bank = 0
0494   3044           02004         movlw 68
0495   00ED           02005         movwf key_value
0496   3001           02006         movlw 1
0497   00AC           02007         movwf PP1H
0498   30F4           02008         movlw 244
                      02009         f@call DLY@W
  0000049B            02010 F3_000101 equ $ ; IN [KEYPAD4X4.INC] CASE else : key_value = 0 : return
                      02011         F@JUMP BC@LL61
049D                  02012 BC@LL59
049D   01ED           02013         clrf key_value
049E   0008           02014         return
  0000049F            02015 F3_000102 equ $ ; IN [KEYPAD4X4.INC] ENDSELECT
049F                  02016 BC@LL61
049F                  02017 BC@LL25
  0000049F            02018 F3_000103 equ $ ; IN [KEYPAD4X4.INC] return
049F   0008           02019         return
  000004A0            02020 F3_EOF equ $ ; KEYPAD4X4.INC
04A0                  02021 main
  000004A0            02022 F1_000095 equ $ ; IN [TIME MANAGEMENT.BAS] PRINT AT 1,1,"TIME MANAGEMENT."
04A0   3080           02023         movlw 128
04A1   00A1           02024         movwf BPFH
                      02025         f@call LCD@CRS
04A4   3054           02026         movlw 84
                      02027         f@call PRINT
04A7   3069           02028         movlw 105
                      02029         f@call PRINT
04AA   306D           02030         movlw 109
                      02031         f@call PRINT
04AD   3065           02032         movlw 101
                      02033         f@call PRINT
04B0   3020           02034         movlw 32
                      02035         f@call PRINT
04B3   304D           02036         movlw 77
                      02037         f@call PRINT
04B6   3061           02038         movlw 97
                      02039         f@call PRINT
04B9   306E           02040         movlw 110
                      02041         f@call PRINT
04BC   3061           02042         movlw 97
                      02043         f@call PRINT
04BF   3067           02044         movlw 103
                      02045         f@call PRINT
04C2   3065           02046         movlw 101
                      02047         f@call PRINT
04C5   306D           02048         movlw 109
                      02049         f@call PRINT
04C8   3065           02050         movlw 101
                      02051         f@call PRINT
04CB   306E           02052         movlw 110
                      02053         f@call PRINT
04CE   3074           02054         movlw 116
                      02055         f@call PRINT
04D1   302E           02056         movlw 46
                      02057         f@call PRINT
  000004D4            02058 F1_000096 equ $ ; IN [TIME MANAGEMENT.BAS] PRINT AT 2,1, DEC2 minute, ":", DEC2 second
04D4   3080           02059         movlw 128
04D5   00A1           02060         movwf BPFH
04D6   30C0           02061         movlw 192
                      02062         f@call LCD@CRS
04D9   3002           02063         movlw 2
04DA   00A4           02064         movwf GEN4H
04DB   083F           02065         movf minuteH,W
04DC   00AE           02066         movwf PP2H
04DD   083E           02067         movf minute,W
04DE   00AD           02068         movwf PP2
                      02069         f@call OUT@DEC
04E1   303A           02070         movlw 58
                      02071         f@call PRINT
04E4   3002           02072         movlw 2
04E5   00A4           02073         movwf GEN4H
04E6   083D           02074         movf second,W
                      02075         f@call OUT@DECC
  000004E9            02076 F1_000097 equ $ ; IN [TIME MANAGEMENT.BAS] if second = 60 THEN
04E9   303C           02077         movlw 60
04EA   023D           02078         subwf second,W
                      02079         set@page BC@LL63
04EC   1D03           02080         btfss STATUS,2
04ED   2CF2           02081         goto BC@LL63
  000004EE            02082 F1_000098 equ $ ; IN [TIME MANAGEMENT.BAS] second = 0
04EE   01BD           02083         clrf second
  000004EF            02084 F1_000099 equ $ ; IN [TIME MANAGEMENT.BAS] INC minute
04EF   0ABE           02085         incf minute,F
04F0   1903           02086         btfsc STATUS,2
04F1   0ABF           02087         incf minuteH,F
  000004F2            02088 F1_000100 equ $ ; IN [TIME MANAGEMENT.BAS] endif
04F2                  02089 BC@LL63
  000004F2            02090 F1_000101 equ $ ; IN [TIME MANAGEMENT.BAS] if rly1 = 0 THEN PRINT AT 2,7, 1 : else : PRINT AT 2,7, 0
                      02091         set@page BC@LL65
04F3   1985           02092         btfsc PORTA,3
04F4   2CFF           02093         goto BC@LL65
04F5   3080           02094         movlw 128
04F6   00A1           02095         movwf BPFH
04F7   30C6           02096         movlw 198
                      02097         f@call LCD@CRS
04FA   3001           02098         movlw 1
                      02099         f@call PRINT
                      02100         F@JUMP BC@LL66
04FF                  02101 BC@LL65
04FF   3080           02102         movlw 128
0500   00A1           02103         movwf BPFH
0501   30C6           02104         movlw 198
                      02105         f@call LCD@CRS
0504   3000           02106         movlw 0
                      02107         f@call PRINT
0507                  02108 BC@LL66
  00000507            02109 F1_000102 equ $ ; IN [TIME MANAGEMENT.BAS] if rly2 = 0 THEN PRINT AT 2,8, 1 : else : PRINT AT 2,8, 0
                      02110         set@page BC@LL68
0508   1905           02111         btfsc PORTA,2
0509   2D14           02112         goto BC@LL68
050A   3080           02113         movlw 128
050B   00A1           02114         movwf BPFH
050C   30C7           02115         movlw 199
                      02116         f@call LCD@CRS
050F   3001           02117         movlw 1
                      02118         f@call PRINT
                      02119         F@JUMP BC@LL69
0514                  02120 BC@LL68
0514   3080           02121         movlw 128
0515   00A1           02122         movwf BPFH
0516   30C7           02123         movlw 199
                      02124         f@call LCD@CRS
0519   3000           02125         movlw 0
                      02126         f@call PRINT
051C                  02127 BC@LL69
  0000051C            02128 F1_000103 equ $ ; IN [TIME MANAGEMENT.BAS] if rly3 = 0 THEN PRINT AT 2,9, 1 : else : PRINT AT 2,9, 0
                      02129         set@page BC@LL71
051D   1885           02130         btfsc PORTA,1
051E   2D29           02131         goto BC@LL71
051F   3080           02132         movlw 128
0520   00A1           02133         movwf BPFH
0521   30C8           02134         movlw 200
                      02135         f@call LCD@CRS
0524   3001           02136         movlw 1
                      02137         f@call PRINT
                      02138         F@JUMP BC@LL72
0529                  02139 BC@LL71
0529   3080           02140         movlw 128
052A   00A1           02141         movwf BPFH
052B   30C8           02142         movlw 200
                      02143         f@call LCD@CRS
052E   3000           02144         movlw 0
                      02145         f@call PRINT
0531                  02146 BC@LL72
  00000531            02147 F1_000104 equ $ ; IN [TIME MANAGEMENT.BAS] if rly4 = 0 THEN PRINT AT 2,10, 1 : else : PRINT AT 2,10, 0
                      02148         set@page BC@LL74
0532   1805           02149         btfsc PORTA,0
0533   2D3E           02150         goto BC@LL74
0534   3080           02151         movlw 128
0535   00A1           02152         movwf BPFH
0536   30C9           02153         movlw 201
                      02154         f@call LCD@CRS
0539   3001           02155         movlw 1
                      02156         f@call PRINT
                      02157         F@JUMP BC@LL75
053E                  02158 BC@LL74
053E   3080           02159         movlw 128
053F   00A1           02160         movwf BPFH
0540   30C9           02161         movlw 201
                      02162         f@call LCD@CRS
0543   3000           02163         movlw 0
                      02164         f@call PRINT
0546                  02165 BC@LL75
  00000546            02166 F1_000105 equ $ ; IN [TIME MANAGEMENT.BAS] if mode = 0 THEN
0546   08D6           02167         movf mode,F
                      02168         set@page BC@LL77
0548   1D03           02169         btfss STATUS,2
0549   2D9A           02170         goto BC@LL77
  0000054A            02171 F1_000106 equ $ ; IN [TIME MANAGEMENT.BAS] PRINT AT 2,12, "AUTO "
054A   3080           02172         movlw 128
054B   00A1           02173         movwf BPFH
054C   30CB           02174         movlw 203
                      02175         f@call LCD@CRS
054F   3041           02176         movlw 65
                      02177         f@call PRINT
0552   3055           02178         movlw 85
                      02179         f@call PRINT
0555   3054           02180         movlw 84
                      02181         f@call PRINT
0558   304F           02182         movlw 79
                      02183         f@call PRINT
055B   3020           02184         movlw 32
                      02185         f@call PRINT
  0000055E            02186 F1_000107 equ $ ; IN [TIME MANAGEMENT.BAS] if second = a_r1_sec THEN rly1 = 0 : rly2 = 0 : rly3 = 0 : rly4 = 1
055E   300A           02187         movlw 10
055F   023D           02188         subwf second,W
                      02189         set@page BC@LL79
0561   1D03           02190         btfss STATUS,2
0562   2D67           02191         goto BC@LL79
0563   1185           02192         bcf PORTA,3
0564   1105           02193         bcf PORTA,2
0565   1085           02194         bcf PORTA,1
0566   1405           02195         bsf PORTA,0
0567                  02196 BC@LL79
  00000567            02197 F1_000108 equ $ ; IN [TIME MANAGEMENT.BAS] if second = a_sec_r2 THEN rly1 = 0 : rly2 = 0 : rly3 = 1 : rly4 = 1
0567   08C1           02198         movf a_sec_r2H,F
                      02199         set@page BC@LL81
0569   1D03           02200         btfss STATUS,2
056A   2D74           02201         goto BC@LL81
056B   0840           02202         movf a_sec_r2,W
056C   023D           02203         subwf second,W
                      02204         set@page BC@LL81
056E   1D03           02205         btfss STATUS,2
056F   2D74           02206         goto BC@LL81
0570   1185           02207         bcf PORTA,3
0571   1105           02208         bcf PORTA,2
0572   1485           02209         bsf PORTA,1
0573   1405           02210         bsf PORTA,0
0574                  02211 BC@LL81
  00000574            02212 F1_000109 equ $ ; IN [TIME MANAGEMENT.BAS] if second = a_sec_r3 THEN rly1 = 0 : rly2 = 1 : rly3 = 1 : rly4 = 1
0574   08C3           02213         movf a_sec_r3H,F
                      02214         set@page BC@LL83
0576   1D03           02215         btfss STATUS,2
0577   2D81           02216         goto BC@LL83
0578   0842           02217         movf a_sec_r3,W
0579   023D           02218         subwf second,W
                      02219         set@page BC@LL83
057B   1D03           02220         btfss STATUS,2
057C   2D81           02221         goto BC@LL83
057D   1185           02222         bcf PORTA,3
057E   1505           02223         bsf PORTA,2
057F   1485           02224         bsf PORTA,1
0580   1405           02225         bsf PORTA,0
0581                  02226 BC@LL83
  00000581            02227 F1_000110 equ $ ; IN [TIME MANAGEMENT.BAS] if second = a_sec_r4 THEN rly1 = 1 : rly2 = 1 : rly3 = 1 : rly4 = 1
0581   08C5           02228         movf a_sec_r4H,F
                      02229         set@page BC@LL85
0583   1D03           02230         btfss STATUS,2
0584   2D8E           02231         goto BC@LL85
0585   0844           02232         movf a_sec_r4,W
0586   023D           02233         subwf second,W
                      02234         set@page BC@LL85
0588   1D03           02235         btfss STATUS,2
0589   2D8E           02236         goto BC@LL85
058A   1585           02237         bsf PORTA,3
058B   1505           02238         bsf PORTA,2
058C   1485           02239         bsf PORTA,1
058D   1405           02240         bsf PORTA,0
058E                  02241 BC@LL85
  0000058E            02242 F1_000111 equ $ ; IN [TIME MANAGEMENT.BAS] if second = 50 THEN rly1 = 0 : rly2 = 0 : rly3 = 0 : rly4 = 0 : second = 0
058E   3032           02243         movlw 50
058F   023D           02244         subwf second,W
                      02245         set@page BC@LL87
0591   1D03           02246         btfss STATUS,2
0592   2D98           02247         goto BC@LL87
0593   1185           02248         bcf PORTA,3
0594   1105           02249         bcf PORTA,2
0595   1085           02250         bcf PORTA,1
0596   1005           02251         bcf PORTA,0
0597   01BD           02252         clrf second
0598                  02253 BC@LL87
                      02254         F@JUMP BC@LL76
  0000059A            02255 F1_000112 equ $ ; IN [TIME MANAGEMENT.BAS] ELSEIF mode = 1 THEN
059A                  02256 BC@LL77
059A   3001           02257         movlw 1
059B   0256           02258         subwf mode,W
                      02259         set@page BC@LL88
059D   1D03           02260         btfss STATUS,2
059E   2DE7           02261         goto BC@LL88
  0000059F            02262 F1_000113 equ $ ; IN [TIME MANAGEMENT.BAS] PRINT AT 2,12, "MAN. "
059F   3080           02263         movlw 128
05A0   00A1           02264         movwf BPFH
05A1   30CB           02265         movlw 203
                      02266         f@call LCD@CRS
05A4   304D           02267         movlw 77
                      02268         f@call PRINT
05A7   3061           02269         movlw 97
                      02270         f@call PRINT
05AA   306E           02271         movlw 110
                      02272         f@call PRINT
05AD   302E           02273         movlw 46
                      02274         f@call PRINT
05B0   3020           02275         movlw 32
                      02276         f@call PRINT
  000005B3            02277 F1_000114 equ $ ; IN [TIME MANAGEMENT.BAS] if second = m_sec_r1 THEN rly1 = 1
05B3   08C7           02278         movf m_sec_r1H,F
                      02279         set@page BC@LL90
05B5   1D03           02280         btfss STATUS,2
05B6   2DBD           02281         goto BC@LL90
05B7   0846           02282         movf m_sec_r1,W
05B8   023D           02283         subwf second,W
                      02284         set@page BC@LL90
05BA   1D03           02285         btfss STATUS,2
05BB   2DBD           02286         goto BC@LL90
05BC   1585           02287         bsf PORTA,3
05BD                  02288 BC@LL90
  000005BD            02289 F1_000115 equ $ ; IN [TIME MANAGEMENT.BAS] if second = m_sec_r2 THEN rly2 = 1
05BD   08C9           02290         movf m_sec_r2H,F
                      02291         set@page BC@LL92
05BF   1D03           02292         btfss STATUS,2
05C0   2DC7           02293         goto BC@LL92
05C1   0848           02294         movf m_sec_r2,W
05C2   023D           02295         subwf second,W
                      02296         set@page BC@LL92
05C4   1D03           02297         btfss STATUS,2
05C5   2DC7           02298         goto BC@LL92
05C6   1505           02299         bsf PORTA,2
05C7                  02300 BC@LL92
  000005C7            02301 F1_000116 equ $ ; IN [TIME MANAGEMENT.BAS] if second = m_sec_r3 THEN rly3 = 1
05C7   08CB           02302         movf m_sec_r3H,F
                      02303         set@page BC@LL94
05C9   1D03           02304         btfss STATUS,2
05CA   2DD1           02305         goto BC@LL94
05CB   084A           02306         movf m_sec_r3,W
05CC   023D           02307         subwf second,W
                      02308         set@page BC@LL94
05CE   1D03           02309         btfss STATUS,2
05CF   2DD1           02310         goto BC@LL94
05D0   1485           02311         bsf PORTA,1
05D1                  02312 BC@LL94
  000005D1            02313 F1_000117 equ $ ; IN [TIME MANAGEMENT.BAS] if second = m_sec_r4 THEN
05D1   08CD           02314         movf m_sec_r4H,F
                      02315         set@page BC@LL96
05D3   1D03           02316         btfss STATUS,2
05D4   2DE5           02317         goto BC@LL96
05D5   084C           02318         movf m_sec_r4,W
05D6   023D           02319         subwf second,W
                      02320         set@page BC@LL96
05D8   1D03           02321         btfss STATUS,2
05D9   2DE5           02322         goto BC@LL96
  000005DA            02323 F1_000118 equ $ ; IN [TIME MANAGEMENT.BAS] rly4 = 1
05DA   1405           02324         bsf PORTA,0
  000005DB            02325 F1_000119 equ $ ; IN [TIME MANAGEMENT.BAS] DELAYMS 2000
05DB   3007           02326         movlw 7
05DC   00AC           02327         movwf PP1H
05DD   30D0           02328         movlw 208
                      02329         f@call DLY@W
  000005E0            02330 F1_000120 equ $ ; IN [TIME MANAGEMENT.BAS] rly1 = 0 : rly2 = 0 : rly3 = 0 : rly4 = 0 : second = 0
05E0   1185           02331         bcf PORTA,3
05E1   1105           02332         bcf PORTA,2
05E2   1085           02333         bcf PORTA,1
05E3   1005           02334         bcf PORTA,0
05E4   01BD           02335         clrf second
  000005E5            02336 F1_000121 equ $ ; IN [TIME MANAGEMENT.BAS] endif
05E5                  02337 BC@LL96
                      02338         F@JUMP BC@LL76
  000005E7            02339 F1_000122 equ $ ; IN [TIME MANAGEMENT.BAS] ELSEIF mode = 2 THEN
05E7                  02340 BC@LL88
05E7   3002           02341         movlw 2
05E8   0256           02342         subwf mode,W
                      02343         set@page BC@LL97
05EA   1D03           02344         btfss STATUS,2
05EB   2E32           02345         goto BC@LL97
  000005EC            02346 F1_000123 equ $ ; IN [TIME MANAGEMENT.BAS] PRINT AT 2,12, "GSM. "
05EC   3080           02347         movlw 128
05ED   00A1           02348         movwf BPFH
05EE   30CB           02349         movlw 203
                      02350         f@call LCD@CRS
05F1   3047           02351         movlw 71
                      02352         f@call PRINT
05F4   3053           02353         movlw 83
                      02354         f@call PRINT
05F7   304D           02355         movlw 77
                      02356         f@call PRINT
05FA   302E           02357         movlw 46
                      02358         f@call PRINT
05FD   3020           02359         movlw 32
                      02360         f@call PRINT
  00000600            02361 F1_000124 equ $ ; IN [TIME MANAGEMENT.BAS] if second = g_sec_r1 THEN rly1 = 1
0600   08CF           02362         movf g_sec_r1H,F
                      02363         set@page BC@LL99
0602   1D03           02364         btfss STATUS,2
0603   2E0A           02365         goto BC@LL99
0604   084E           02366         movf g_sec_r1,W
0605   023D           02367         subwf second,W
                      02368         set@page BC@LL99
0607   1D03           02369         btfss STATUS,2
0608   2E0A           02370         goto BC@LL99
0609   1585           02371         bsf PORTA,3
060A                  02372 BC@LL99
  0000060A            02373 F1_000125 equ $ ; IN [TIME MANAGEMENT.BAS] if second = g_sec_r2 THEN rly2 = 1
060A   08D1           02374         movf g_sec_r2H,F
                      02375         set@page BC@LL101
060C   1D03           02376         btfss STATUS,2
060D   2E14           02377         goto BC@LL101
060E   0850           02378         movf g_sec_r2,W
060F   023D           02379         subwf second,W
                      02380         set@page BC@LL101
0611   1D03           02381         btfss STATUS,2
0612   2E14           02382         goto BC@LL101
0613   1505           02383         bsf PORTA,2
0614                  02384 BC@LL101
  00000614            02385 F1_000126 equ $ ; IN [TIME MANAGEMENT.BAS] if second = g_sec_r3 THEN rly3 = 1
0614   08D3           02386         movf g_sec_r3H,F
                      02387         set@page BC@LL103
0616   1D03           02388         btfss STATUS,2
0617   2E1E           02389         goto BC@LL103
0618   0852           02390         movf g_sec_r3,W
0619   023D           02391         subwf second,W
                      02392         set@page BC@LL103
061B   1D03           02393         btfss STATUS,2
061C   2E1E           02394         goto BC@LL103
061D   1485           02395         bsf PORTA,1
061E                  02396 BC@LL103
  0000061E            02397 F1_000127 equ $ ; IN [TIME MANAGEMENT.BAS] if second = g_sec_r4 THEN
061E   08D5           02398         movf g_sec_r4H,F
                      02399         set@page BC@LL105
0620   1D03           02400         btfss STATUS,2
0621   2E32           02401         goto BC@LL105
0622   0854           02402         movf g_sec_r4,W
0623   023D           02403         subwf second,W
                      02404         set@page BC@LL105
0625   1D03           02405         btfss STATUS,2
0626   2E32           02406         goto BC@LL105
  00000627            02407 F1_000128 equ $ ; IN [TIME MANAGEMENT.BAS] rly4 = 1
0627   1405           02408         bsf PORTA,0
  00000628            02409 F1_000129 equ $ ; IN [TIME MANAGEMENT.BAS] DELAYMS 2000
0628   3007           02410         movlw 7
0629   00AC           02411         movwf PP1H
062A   30D0           02412         movlw 208
                      02413         f@call DLY@W
  0000062D            02414 F1_000130 equ $ ; IN [TIME MANAGEMENT.BAS] rly1 = 0 : rly2 = 0 : rly3 = 0 : rly4 = 0 : second = 0
062D   1185           02415         bcf PORTA,3
062E   1105           02416         bcf PORTA,2
062F   1085           02417         bcf PORTA,1
0630   1005           02418         bcf PORTA,0
0631   01BD           02419         clrf second
  00000632            02420 F1_000131 equ $ ; IN [TIME MANAGEMENT.BAS] endif
0632                  02421 BC@LL105
  00000632            02422 F1_000132 equ $ ; IN [TIME MANAGEMENT.BAS] endif
0632                  02423 BC@LL97
0632                  02424 BC@LL76
  00000632            02425 F1_000133 equ $ ; IN [TIME MANAGEMENT.BAS] GOSUB capture_key
                      02426         f@call capture_key
  00000634            02427 F1_000134 equ $ ; IN [TIME MANAGEMENT.BAS] if key_value = "A" THEN
0634   3041           02428         movlw 65
0635   026D           02429         subwf key_value,W
                      02430         set@page BC@LL107
0637   1D03           02431         btfss STATUS,2
0638   2E3E           02432         goto BC@LL107
  00000639            02433 F1_000135 equ $ ; IN [TIME MANAGEMENT.BAS] mode = 0
0639   01D6           02434         clrf mode
  0000063A            02435 F1_000136 equ $ ; IN [TIME MANAGEMENT.BAS] rly1 = 0 : rly2 = 0 : rly3 = 0 : rly4 = 0
063A   1185           02436         bcf PORTA,3
063B   1105           02437         bcf PORTA,2
063C   1085           02438         bcf PORTA,1
063D   1005           02439         bcf PORTA,0
  0000063E            02440 F1_000137 equ $ ; IN [TIME MANAGEMENT.BAS] endif
063E                  02441 BC@LL107
  0000063E            02442 F1_000138 equ $ ; IN [TIME MANAGEMENT.BAS] if key_value = "B" THEN
063E   3042           02443         movlw 66
063F   026D           02444         subwf key_value,W
                      02445         set@page BC@LL109
0641   1D03           02446         btfss STATUS,2
0642   2E4B           02447         goto BC@LL109
  00000643            02448 F1_000139 equ $ ; IN [TIME MANAGEMENT.BAS] mode = 1
0643   3001           02449         movlw 1
0644   00D6           02450         movwf mode
  00000645            02451 F1_000140 equ $ ; IN [TIME MANAGEMENT.BAS] rly1 = 0 : rly2 = 0 : rly3 = 0 : rly4 = 0
0645   1185           02452         bcf PORTA,3
0646   1105           02453         bcf PORTA,2
0647   1085           02454         bcf PORTA,1
0648   1005           02455         bcf PORTA,0
  00000649            02456 F1_000141 equ $ ; IN [TIME MANAGEMENT.BAS] GOSUB manual_set
                      02457         f@call manual_set
  0000064B            02458 F1_000142 equ $ ; IN [TIME MANAGEMENT.BAS] endif
064B                  02459 BC@LL109
  0000064B            02460 F1_000143 equ $ ; IN [TIME MANAGEMENT.BAS] if t_stop = 0 THEN INC second
                      02461         set@page BC@LL111
064C   1857           02462         btfsc _B#VR1,0
064D   2E4F           02463         goto BC@LL111
064E   0ABD           02464         incf second,F
064F                  02465 BC@LL111
  0000064F            02466 F1_000144 equ $ ; IN [TIME MANAGEMENT.BAS] GOSUB Receive_SMS
                      02467         f@call Receive_SMS
  00000651            02468 F1_000145 equ $ ; IN [TIME MANAGEMENT.BAS] goto main
                      02469         F@JUMP main
0653                  02470 Receive_SMS
  00000653            02471 F1_000148 equ $ ; IN [TIME MANAGEMENT.BAS] CLEAR msg
0653   3014           02472         movlw 20
0654   00A9           02473         movwf PP0
0655   3058           02474         movlw 88
0656   0084           02475         movwf FSR
0657                  02476 PB@LB113
0657   0180           02477         clrf INDF
0658   0A84           02478         incf FSR,F
0659   03A9           02479         decf PP0,F
                      02480         set@page PB@LB113
065B   1D03           02481         btfss STATUS,2
065C   2E57           02482         goto PB@LB113
  0000065D            02483 F1_000149 equ $ ; IN [TIME MANAGEMENT.BAS] HSERIN 1000, over,[WAIT("+CMT"), WAIT(13,10), STR msg]
065D   3003           02484         movlw 3
065E   00A5           02485         movwf GENH
065F   30E8           02486         movlw 232
0660   00A2           02487         movwf GEN
0661                  02488 PB@LB114
                      02489         f@call HRSIN2
                      02490         set@page over
0664   1C03           02491         btfss STATUS,0
0665   2834           02492         goto over
0666   3C2B           02493         sublw 43
                      02494         set@page PB@LB114
0668   1D03           02495         btfss STATUS,2
0669   2E61           02496         goto PB@LB114
                      02497         f@call HRSIN2
                      02498         set@page over
066D   1C03           02499         btfss STATUS,0
066E   2834           02500         goto over
066F   3C43           02501         sublw 67
                      02502         set@page PB@LB114
0671   1D03           02503         btfss STATUS,2
0672   2E61           02504         goto PB@LB114
                      02505         f@call HRSIN2
                      02506         set@page over
0676   1C03           02507         btfss STATUS,0
0677   2834           02508         goto over
0678   3C4D           02509         sublw 77
                      02510         set@page PB@LB114
067A   1D03           02511         btfss STATUS,2
067B   2E61           02512         goto PB@LB114
                      02513         f@call HRSIN2
                      02514         set@page over
067F   1C03           02515         btfss STATUS,0
0680   2834           02516         goto over
0681   3C54           02517         sublw 84
                      02518         set@page PB@LB114
0683   1D03           02519         btfss STATUS,2
0684   2E61           02520         goto PB@LB114
0685                  02521 PB@LB115
                      02522         f@call HRSIN2
                      02523         set@page over
0688   1C03           02524         btfss STATUS,0
0689   2834           02525         goto over
068A   3C0D           02526         sublw 13
                      02527         set@page PB@LB115
068C   1D03           02528         btfss STATUS,2
068D   2E85           02529         goto PB@LB115
                      02530         f@call HRSIN2
                      02531         set@page over
0691   1C03           02532         btfss STATUS,0
0692   2834           02533         goto over
0693   3C0A           02534         sublw 10
                      02535         set@page PB@LB115
0695   1D03           02536         btfss STATUS,2
0696   2E85           02537         goto PB@LB115
0697   01A6           02538         clrf PBP#VAR0
0698                  02539 PB@LB118
0698   1403           02540         bsf STATUS,0
                      02541         f@call HRSIN2
                      02542         set@page over
069C   1C03           02543         btfss STATUS,0
069D   2834           02544         goto over
069E   0826           02545         movf PBP#VAR0,W
069F   3E58           02546         addlw msg
06A0   0084           02547         movwf FSR
06A1   081A           02548         movf RCREG,W
06A2   0080           02549         movwf INDF
06A3   0AA6           02550         incf PBP#VAR0,F
06A4   0826           02551         movf PBP#VAR0,W
06A5   3C14           02552         sublw 20
                      02553         set@page PB@LB118
06A7   1D03           02554         btfss STATUS,2
06A8   2E98           02555         goto PB@LB118
  000006A9            02556 F1_000150 equ $ ; IN [TIME MANAGEMENT.BAS] g_sec_r1 = (msg[2] - 48) * 100 + (msg[3] - 48) * 10 + (msg[4] - 48)
06A9   085A           02557         movf msg#2,W
06AA   00A6           02558         movwf PBP#VAR0
06AB   01B6           02559         clrf PP7H
06AC   0826           02560         movf PBP#VAR0,W
06AD   00B5           02561         movwf PP7
06AE   3030           02562         movlw 48
06AF   02B5           02563         subwf PP7,F
06B0   1C03           02564         btfss STATUS,0
06B1   03B6           02565         decf PP7H,F
06B2   0836           02566         movf PP7H,W
06B3   00B0           02567         movwf PP3H
06B4   0835           02568         movf PP7,W
06B5   00AF           02569         movwf PP3
06B6   01AC           02570         clrf PP1H
06B7   3064           02571         movlw 100
06B8   00AB           02572         movwf PP1
                      02573         f@call M@PY
06BB   00B5           02574         movwf PP7
06BC   082E           02575         movf PP2H,W
06BD   00B6           02576         movwf PP7H
06BE   085B           02577         movf msg#3,W
06BF   00A7           02578         movwf PBP#VAR1
06C0   01B8           02579         clrf PP8H
06C1   0827           02580         movf PBP#VAR1,W
06C2   00B7           02581         movwf PP8
06C3   3030           02582         movlw 48
06C4   02B7           02583         subwf PP8,F
06C5   1C03           02584         btfss STATUS,0
06C6   03B8           02585         decf PP8H,F
06C7   0838           02586         movf PP8H,W
06C8   00B0           02587         movwf PP3H
06C9   0837           02588         movf PP8,W
06CA   00AF           02589         movwf PP3
06CB   01AC           02590         clrf PP1H
06CC   300A           02591         movlw 10
06CD   00AB           02592         movwf PP1
                      02593         f@call M@PY
06D0   00B7           02594         movwf PP8
06D1   082E           02595         movf PP2H,W
06D2   00B8           02596         movwf PP8H
06D3   0837           02597         movf PP8,W
06D4   07B5           02598         addwf PP7,F
06D5   0838           02599         movf PP8H,W
06D6   1803           02600         btfsc STATUS,0
06D7   3E01           02601         addlw 1
06D8   07B6           02602         addwf PP7H,F
06D9   085C           02603         movf msg#4,W
06DA   00A8           02604         movwf PBP#VAR2
06DB   01B8           02605         clrf PP8H
06DC   0828           02606         movf PBP#VAR2,W
06DD   00B7           02607         movwf PP8
06DE   3030           02608         movlw 48
06DF   02B7           02609         subwf PP8,F
06E0   1C03           02610         btfss STATUS,0
06E1   03B8           02611         decf PP8H,F
06E2   0835           02612         movf PP7,W
06E3   0737           02613         addwf PP8,W
06E4   00CE           02614         movwf g_sec_r1
06E5   0836           02615         movf PP7H,W
06E6   1803           02616         btfsc STATUS,0
06E7   3E01           02617         addlw 1
06E8   0738           02618         addwf PP8H,W
06E9   00CF           02619         movwf g_sec_r1H
  000006EA            02620 F1_000151 equ $ ; IN [TIME MANAGEMENT.BAS] g_sec_r2 = (msg[7] - 48) * 100 + (msg[8] - 48) * 10 + (msg[9] - 48)
06EA   085F           02621         movf msg#7,W
06EB   00A6           02622         movwf PBP#VAR0
06EC   01B6           02623         clrf PP7H
06ED   0826           02624         movf PBP#VAR0,W
06EE   00B5           02625         movwf PP7
06EF   3030           02626         movlw 48
06F0   02B5           02627         subwf PP7,F
06F1   1C03           02628         btfss STATUS,0
06F2   03B6           02629         decf PP7H,F
06F3   0836           02630         movf PP7H,W
06F4   00B0           02631         movwf PP3H
06F5   0835           02632         movf PP7,W
06F6   00AF           02633         movwf PP3
06F7   01AC           02634         clrf PP1H
06F8   3064           02635         movlw 100
06F9   00AB           02636         movwf PP1
                      02637         f@call M@PY
06FC   00B5           02638         movwf PP7
06FD   082E           02639         movf PP2H,W
06FE   00B6           02640         movwf PP7H
06FF   0860           02641         movf msg#8,W
0700   00A7           02642         movwf PBP#VAR1
0701   01B8           02643         clrf PP8H
0702   0827           02644         movf PBP#VAR1,W
0703   00B7           02645         movwf PP8
0704   3030           02646         movlw 48
0705   02B7           02647         subwf PP8,F
0706   1C03           02648         btfss STATUS,0
0707   03B8           02649         decf PP8H,F
0708   0838           02650         movf PP8H,W
0709   00B0           02651         movwf PP3H
070A   0837           02652         movf PP8,W
070B   00AF           02653         movwf PP3
070C   01AC           02654         clrf PP1H
070D   300A           02655         movlw 10
070E   00AB           02656         movwf PP1
                      02657         f@call M@PY
0711   00B7           02658         movwf PP8
0712   082E           02659         movf PP2H,W
0713   00B8           02660         movwf PP8H
0714   0837           02661         movf PP8,W
0715   07B5           02662         addwf PP7,F
0716   0838           02663         movf PP8H,W
0717   1803           02664         btfsc STATUS,0
0718   3E01           02665         addlw 1
0719   07B6           02666         addwf PP7H,F
071A   0861           02667         movf msg#9,W
071B   00A8           02668         movwf PBP#VAR2
071C   01B8           02669         clrf PP8H
071D   0828           02670         movf PBP#VAR2,W
071E   00B7           02671         movwf PP8
071F   3030           02672         movlw 48
0720   02B7           02673         subwf PP8,F
0721   1C03           02674         btfss STATUS,0
0722   03B8           02675         decf PP8H,F
0723   0835           02676         movf PP7,W
0724   0737           02677         addwf PP8,W
0725   00D0           02678         movwf g_sec_r2
0726   0836           02679         movf PP7H,W
0727   1803           02680         btfsc STATUS,0
0728   3E01           02681         addlw 1
0729   0738           02682         addwf PP8H,W
072A   00D1           02683         movwf g_sec_r2H
  0000072B            02684 F1_000152 equ $ ; IN [TIME MANAGEMENT.BAS] g_sec_r3 = (msg[12] - 48) * 100 + (msg[13] - 48) * 10 + (msg[14] - 48)
072B   0864           02685         movf msg#12,W
072C   00A6           02686         movwf PBP#VAR0
072D   01B6           02687         clrf PP7H
072E   0826           02688         movf PBP#VAR0,W
072F   00B5           02689         movwf PP7
0730   3030           02690         movlw 48
0731   02B5           02691         subwf PP7,F
0732   1C03           02692         btfss STATUS,0
0733   03B6           02693         decf PP7H,F
0734   0836           02694         movf PP7H,W
0735   00B0           02695         movwf PP3H
0736   0835           02696         movf PP7,W
0737   00AF           02697         movwf PP3
0738   01AC           02698         clrf PP1H
0739   3064           02699         movlw 100
073A   00AB           02700         movwf PP1
                      02701         f@call M@PY
073D   00B5           02702         movwf PP7
073E   082E           02703         movf PP2H,W
073F   00B6           02704         movwf PP7H
0740   0865           02705         movf msg#13,W
0741   00A7           02706         movwf PBP#VAR1
0742   01B8           02707         clrf PP8H
0743   0827           02708         movf PBP#VAR1,W
0744   00B7           02709         movwf PP8
0745   3030           02710         movlw 48
0746   02B7           02711         subwf PP8,F
0747   1C03           02712         btfss STATUS,0
0748   03B8           02713         decf PP8H,F
0749   0838           02714         movf PP8H,W
074A   00B0           02715         movwf PP3H
074B   0837           02716         movf PP8,W
074C   00AF           02717         movwf PP3
074D   01AC           02718         clrf PP1H
074E   300A           02719         movlw 10
074F   00AB           02720         movwf PP1
                      02721         f@call M@PY
0752   00B7           02722         movwf PP8
0753   082E           02723         movf PP2H,W
0754   00B8           02724         movwf PP8H
0755   0837           02725         movf PP8,W
0756   07B5           02726         addwf PP7,F
0757   0838           02727         movf PP8H,W
0758   1803           02728         btfsc STATUS,0
0759   3E01           02729         addlw 1
075A   07B6           02730         addwf PP7H,F
075B   0866           02731         movf msg#14,W
075C   00A8           02732         movwf PBP#VAR2
075D   01B8           02733         clrf PP8H
075E   0828           02734         movf PBP#VAR2,W
075F   00B7           02735         movwf PP8
0760   3030           02736         movlw 48
0761   02B7           02737         subwf PP8,F
0762   1C03           02738         btfss STATUS,0
0763   03B8           02739         decf PP8H,F
0764   0835           02740         movf PP7,W
0765   0737           02741         addwf PP8,W
0766   00D2           02742         movwf g_sec_r3
0767   0836           02743         movf PP7H,W
0768   1803           02744         btfsc STATUS,0
0769   3E01           02745         addlw 1
076A   0738           02746         addwf PP8H,W
076B   00D3           02747         movwf g_sec_r3H
  0000076C            02748 F1_000153 equ $ ; IN [TIME MANAGEMENT.BAS] g_sec_r4 = (msg[17] - 48) * 100 + (msg[18] - 48) * 10 + (msg[19] - 48)
076C   0869           02749         movf msg#17,W
076D   00A6           02750         movwf PBP#VAR0
076E   01B6           02751         clrf PP7H
076F   0826           02752         movf PBP#VAR0,W
0770   00B5           02753         movwf PP7
0771   3030           02754         movlw 48
0772   02B5           02755         subwf PP7,F
0773   1C03           02756         btfss STATUS,0
0774   03B6           02757         decf PP7H,F
0775   0836           02758         movf PP7H,W
0776   00B0           02759         movwf PP3H
0777   0835           02760         movf PP7,W
0778   00AF           02761         movwf PP3
0779   01AC           02762         clrf PP1H
077A   3064           02763         movlw 100
077B   00AB           02764         movwf PP1
                      02765         f@call M@PY
077E   00B5           02766         movwf PP7
077F   082E           02767         movf PP2H,W
0780   00B6           02768         movwf PP7H
0781   086A           02769         movf msg#18,W
0782   00A7           02770         movwf PBP#VAR1
0783   01B8           02771         clrf PP8H
0784   0827           02772         movf PBP#VAR1,W
0785   00B7           02773         movwf PP8
0786   3030           02774         movlw 48
0787   02B7           02775         subwf PP8,F
0788   1C03           02776         btfss STATUS,0
0789   03B8           02777         decf PP8H,F
078A   0838           02778         movf PP8H,W
078B   00B0           02779         movwf PP3H
078C   0837           02780         movf PP8,W
078D   00AF           02781         movwf PP3
078E   01AC           02782         clrf PP1H
078F   300A           02783         movlw 10
0790   00AB           02784         movwf PP1
                      02785         f@call M@PY
0793   00B7           02786         movwf PP8
0794   082E           02787         movf PP2H,W
0795   00B8           02788         movwf PP8H
0796   0837           02789         movf PP8,W
0797   07B5           02790         addwf PP7,F
0798   0838           02791         movf PP8H,W
0799   1803           02792         btfsc STATUS,0
079A   3E01           02793         addlw 1
079B   07B6           02794         addwf PP7H,F
079C   086B           02795         movf msg#19,W
079D   00A8           02796         movwf PBP#VAR2
079E   01B8           02797         clrf PP8H
079F   0828           02798         movf PBP#VAR2,W
07A0   00B7           02799         movwf PP8
07A1   3030           02800         movlw 48
07A2   02B7           02801         subwf PP8,F
07A3   1C03           02802         btfss STATUS,0
07A4   03B8           02803         decf PP8H,F
07A5   0835           02804         movf PP7,W
07A6   0737           02805         addwf PP8,W
07A7   00D4           02806         movwf g_sec_r4
07A8   0836           02807         movf PP7H,W
07A9   1803           02808         btfsc STATUS,0
07AA   3E01           02809         addlw 1
07AB   0738           02810         addwf PP8H,W
07AC   00D5           02811         movwf g_sec_r4H
  000007AD            02812 F1_000154 equ $ ; IN [TIME MANAGEMENT.BAS] PORTA = $FF
07AD   30FF           02813         movlw 255
07AE   0085           02814         movwf PORTA
  000007AF            02815 F1_000155 equ $ ; IN [TIME MANAGEMENT.BAS] CLS
                      02816         f@call LCD@CLS
  000007B1            02817 F1_000156 equ $ ; IN [TIME MANAGEMENT.BAS] PRINT AT 1,1,"R1: ", DEC3 g_sec_r1, "  R2: ", DEC3 g_sec_r2
07B1   3080           02818         movlw 128
07B2   00A1           02819         movwf BPFH
                      02820         f@call LCD@CRS
07B5   3052           02821         movlw 82
                      02822         f@call PRINT
07B8   3031           02823         movlw 49
                      02824         f@call PRINT
07BB   303A           02825         movlw 58
                      02826         f@call PRINT
07BE   3020           02827         movlw 32
                      02828         f@call PRINT
07C1   3003           02829         movlw 3
07C2   00A4           02830         movwf GEN4H
07C3   084F           02831         movf g_sec_r1H,W
07C4   00AE           02832         movwf PP2H
07C5   084E           02833         movf g_sec_r1,W
07C6   00AD           02834         movwf PP2
                      02835         f@call OUT@DEC
07C9   3020           02836         movlw 32
                      02837         f@call PRINT
                      02838         f@call PRINT
07CE   3052           02839         movlw 82
                      02840         f@call PRINT
07D1   3032           02841         movlw 50
                      02842         f@call PRINT
07D4   303A           02843         movlw 58
                      02844         f@call PRINT
07D7   3020           02845         movlw 32
                      02846         f@call PRINT
07DA   3003           02847         movlw 3
07DB   00A4           02848         movwf GEN4H
07DC   0851           02849         movf g_sec_r2H,W
07DD   00AE           02850         movwf PP2H
07DE   0850           02851         movf g_sec_r2,W
07DF   00AD           02852         movwf PP2
                      02853         f@call OUT@DEC
  000007E2            02854 F1_000157 equ $ ; IN [TIME MANAGEMENT.BAS] PRINT AT 2,1,"R3: ", DEC3 g_sec_r3, "  R4: ", DEC3 g_sec_r4
07E2   3080           02855         movlw 128
07E3   00A1           02856         movwf BPFH
07E4   30C0           02857         movlw 192
                      02858         f@call LCD@CRS
07E7   3052           02859         movlw 82
                      02860         f@call PRINT
07EA   3033           02861         movlw 51
                      02862         f@call PRINT
07ED   303A           02863         movlw 58
                      02864         f@call PRINT
07F0   3020           02865         movlw 32
                      02866         f@call PRINT
07F3   3003           02867         movlw 3
07F4   00A4           02868         movwf GEN4H
07F5   0853           02869         movf g_sec_r3H,W
07F6   00AE           02870         movwf PP2H
07F7   0852           02871         movf g_sec_r3,W
07F8   00AD           02872         movwf PP2
                      02873         f@call OUT@DEC
07FB   3020           02874         movlw 32
                      02875         f@call PRINT
                      02876         f@call PRINT
0800   3052           02877         movlw 82
                      02878         f@call PRINT
0803   3034           02879         movlw 52
                      02880         f@call PRINT
0806   303A           02881         movlw 58
                      02882         f@call PRINT
0809   3020           02883         movlw 32
                      02884         f@call PRINT
080C   3003           02885         movlw 3
080D   00A4           02886         movwf GEN4H
080E   0855           02887         movf g_sec_r4H,W
080F   00AE           02888         movwf PP2H
0810   0854           02889         movf g_sec_r4,W
0811   00AD           02890         movwf PP2
                      02891         f@call OUT@DEC
  00000814            02892 F1_000158 equ $ ; IN [TIME MANAGEMENT.BAS] DELAYMS 2000
0814   3007           02893         movlw 7
0815   00AC           02894         movwf PP1H
0816   30D0           02895         movlw 208
                      02896         f@call DLY@W
  00000819            02897 F1_000159 equ $ ; IN [TIME MANAGEMENT.BAS] CLS
                      02898         f@call LCD@CLS
  0000081B            02899 F1_000160 equ $ ; IN [TIME MANAGEMENT.BAS] second = 0
081B   01BD           02900         clrf second
  0000081C            02901 F1_000161 equ $ ; IN [TIME MANAGEMENT.BAS] g_sec_r2 = g_sec_r2 + g_sec_r1
081C   084E           02902         movf g_sec_r1,W
081D   07D0           02903         addwf g_sec_r2,F
081E   084F           02904         movf g_sec_r1H,W
081F   1803           02905         btfsc STATUS,0
0820   3E01           02906         addlw 1
0821   07D1           02907         addwf g_sec_r2H,F
  00000822            02908 F1_000162 equ $ ; IN [TIME MANAGEMENT.BAS] g_sec_r3 = g_sec_r3 + g_sec_r2
0822   0850           02909         movf g_sec_r2,W
0823   07D2           02910         addwf g_sec_r3,F
0824   0851           02911         movf g_sec_r2H,W
0825   1803           02912         btfsc STATUS,0
0826   3E01           02913         addlw 1
0827   07D3           02914         addwf g_sec_r3H,F
  00000828            02915 F1_000163 equ $ ; IN [TIME MANAGEMENT.BAS] g_sec_r4 = g_sec_r4 + g_sec_r3
0828   0852           02916         movf g_sec_r3,W
0829   07D4           02917         addwf g_sec_r4,F
082A   0853           02918         movf g_sec_r3H,W
082B   1803           02919         btfsc STATUS,0
082C   3E01           02920         addlw 1
082D   07D5           02921         addwf g_sec_r4H,F
  0000082E            02922 F1_000164 equ $ ; IN [TIME MANAGEMENT.BAS] mode = 2
082E   3002           02923         movlw 2
082F   00D6           02924         movwf mode
  00000830            02925 F1_000165 equ $ ; IN [TIME MANAGEMENT.BAS] rly1 = 0 : rly2 = 0 : rly3 = 0 : rly4 = 0
0830   1185           02926         bcf PORTA,3
0831   1105           02927         bcf PORTA,2
0832   1085           02928         bcf PORTA,1
0833   1005           02929         bcf PORTA,0
0834                  02930 over
  00000834            02931 F1_000167 equ $ ; IN [TIME MANAGEMENT.BAS] return
0834   0008           02932         return
0835                  02933 manual_set
  00000835            02934 F1_000170 equ $ ; IN [TIME MANAGEMENT.BAS] CLS
                      02935         f@call LCD@CLS
  00000837            02936 F1_000171 equ $ ; IN [TIME MANAGEMENT.BAS] PRINT AT 1,1,"MANUAL SETUP:"
0837   3080           02937         movlw 128
0838   00A1           02938         movwf BPFH
                      02939         f@call LCD@CRS
083B   304D           02940         movlw 77
                      02941         f@call PRINT
083E   3061           02942         movlw 97
                      02943         f@call PRINT
0841   306E           02944         movlw 110
                      02945         f@call PRINT
0844   3075           02946         movlw 117
                      02947         f@call PRINT
0847   3061           02948         movlw 97
                      02949         f@call PRINT
084A   306C           02950         movlw 108
                      02951         f@call PRINT
084D   3020           02952         movlw 32
                      02953         f@call PRINT
0850   3053           02954         movlw 83
                      02955         f@call PRINT
0853   3065           02956         movlw 101
                      02957         f@call PRINT
0856   3074           02958         movlw 116
                      02959         f@call PRINT
0859   3075           02960         movlw 117
                      02961         f@call PRINT
085C   3070           02962         movlw 112
                      02963         f@call PRINT
085F   303A           02964         movlw 58
                      02965         f@call PRINT
  00000862            02966 F1_000172 equ $ ; IN [TIME MANAGEMENT.BAS] DELAYMS 1000
0862   3003           02967         movlw 3
0863   00AC           02968         movwf PP1H
0864   30E8           02969         movlw 232
                      02970         f@call DLY@W
  00000867            02971 F1_000173 equ $ ; IN [TIME MANAGEMENT.BAS] PRINT AT 2,1,"RELAY 1:"
0867   3080           02972         movlw 128
0868   00A1           02973         movwf BPFH
0869   30C0           02974         movlw 192
                      02975         f@call LCD@CRS
086C   3052           02976         movlw 82
                      02977         f@call PRINT
086F   3065           02978         movlw 101
                      02979         f@call PRINT
0872   306C           02980         movlw 108
                      02981         f@call PRINT
0875   3061           02982         movlw 97
                      02983         f@call PRINT
0878   3079           02984         movlw 121
                      02985         f@call PRINT
087B   3020           02986         movlw 32
                      02987         f@call PRINT
087E   3031           02988         movlw 49
                      02989         f@call PRINT
0881   303A           02990         movlw 58
                      02991         f@call PRINT
  00000884            02992 F1_000174 equ $ ; IN [TIME MANAGEMENT.BAS] FOR X = 0 TO 2
0884   01B9           02993         clrf _X
0885                  02994 FR@LB119
0885   3003           02995         movlw 3
0886   0239           02996         subwf _X,W
                      02997         set@page NX@LB120
0888   1803           02998         btfsc STATUS,0
0889   28A4           02999         goto NX@LB120
  0000088A            03000 F1_000175 equ $ ; IN [TIME MANAGEMENT.BAS] GOSUB read_key
                      03001         f@call read_key
  0000088C            03002 F1_000176 equ $ ; IN [TIME MANAGEMENT.BAS] PRINT AT 2,X+10, key_value
088C   3080           03003         movlw 128
088D   00A1           03004         movwf BPFH
088E   3002           03005         movlw 2
088F   00A2           03006         movwf GEN
0890   300A           03007         movlw 10
0891   0739           03008         addwf _X,W
                      03009         f@call CURSOR
0894   086D           03010         movf key_value,W
                      03011         f@call PRINT
  00000897            03012 F1_000177 equ $ ; IN [TIME MANAGEMENT.BAS] temp[X] = key_value - 48
0897   3030           03013         movlw 48
0898   026D           03014         subwf key_value,W
0899   00A6           03015         movwf PBP#VAR0
089A   0839           03016         movf _X,W
089B   3E3A           03017         addlw temp
089C   0084           03018         movwf FSR
089D   0826           03019         movf PBP#VAR0,W
089E   0080           03020         movwf INDF
089F                  03021 CT@LB121
  0000089F            03022 F1_000178 equ $ ; IN [TIME MANAGEMENT.BAS] NEXT
089F   3001           03023         movlw 1
08A0   07B9           03024         addwf _X,F
                      03025         set@page FR@LB119
08A2   1C03           03026         btfss STATUS,0
08A3   2885           03027         goto FR@LB119
08A4                  03028 NX@LB120
  000008A4            03029 F1_000179 equ $ ; IN [TIME MANAGEMENT.BAS] m_sec_r1 = temp[0] * 100 + temp[1] * 10 + temp[2]
08A4   083A           03030         movf temp#0,W
08A5   00A6           03031         movwf PBP#VAR0
08A6   01B6           03032         clrf PP7H
08A7   0826           03033         movf PBP#VAR0,W
08A8   00B5           03034         movwf PP7
08A9   0836           03035         movf PP7H,W
08AA   00B0           03036         movwf PP3H
08AB   0835           03037         movf PP7,W
08AC   00AF           03038         movwf PP3
08AD   01AC           03039         clrf PP1H
08AE   3064           03040         movlw 100
08AF   00AB           03041         movwf PP1
                      03042         f@call M@PY
08B2   00B5           03043         movwf PP7
08B3   082E           03044         movf PP2H,W
08B4   00B6           03045         movwf PP7H
08B5   083B           03046         movf temp#1,W
08B6   00A7           03047         movwf PBP#VAR1
08B7   01B8           03048         clrf PP8H
08B8   0827           03049         movf PBP#VAR1,W
08B9   00B7           03050         movwf PP8
08BA   0838           03051         movf PP8H,W
08BB   00B0           03052         movwf PP3H
08BC   0837           03053         movf PP8,W
08BD   00AF           03054         movwf PP3
08BE   01AC           03055         clrf PP1H
08BF   300A           03056         movlw 10
08C0   00AB           03057         movwf PP1
                      03058         f@call M@PY
08C3   00B7           03059         movwf PP8
08C4   082E           03060         movf PP2H,W
08C5   00B8           03061         movwf PP8H
08C6   0837           03062         movf PP8,W
08C7   07B5           03063         addwf PP7,F
08C8   0838           03064         movf PP8H,W
08C9   1803           03065         btfsc STATUS,0
08CA   3E01           03066         addlw 1
08CB   07B6           03067         addwf PP7H,F
08CC   083C           03068         movf temp#2,W
08CD   00A8           03069         movwf PBP#VAR2
08CE   0828           03070         movf PBP#VAR2,W
08CF   0735           03071         addwf PP7,W
08D0   00C6           03072         movwf m_sec_r1
08D1   0836           03073         movf PP7H,W
08D2   1803           03074         btfsc STATUS,0
08D3   3E01           03075         addlw 1
08D4   00C7           03076         movwf m_sec_r1H
  000008D5            03077 F1_000180 equ $ ; IN [TIME MANAGEMENT.BAS] CLS
                      03078         f@call LCD@CLS
  000008D7            03079 F1_000181 equ $ ; IN [TIME MANAGEMENT.BAS] PRINT AT 1,1,"RELAY 1:", DEC3 m_sec_r1, "SEC"
08D7   3080           03080         movlw 128
08D8   00A1           03081         movwf BPFH
                      03082         f@call LCD@CRS
08DB   3052           03083         movlw 82
                      03084         f@call PRINT
08DE   3065           03085         movlw 101
                      03086         f@call PRINT
08E1   306C           03087         movlw 108
                      03088         f@call PRINT
08E4   3061           03089         movlw 97
                      03090         f@call PRINT
08E7   3079           03091         movlw 121
                      03092         f@call PRINT
08EA   3020           03093         movlw 32
                      03094         f@call PRINT
08ED   3031           03095         movlw 49
                      03096         f@call PRINT
08F0   303A           03097         movlw 58
                      03098         f@call PRINT
08F3   3003           03099         movlw 3
08F4   00A4           03100         movwf GEN4H
08F5   0847           03101         movf m_sec_r1H,W
08F6   00AE           03102         movwf PP2H
08F7   0846           03103         movf m_sec_r1,W
08F8   00AD           03104         movwf PP2
                      03105         f@call OUT@DEC
08FB   3073           03106         movlw 115
                      03107         f@call PRINT
08FE   3065           03108         movlw 101
                      03109         f@call PRINT
0901   3063           03110         movlw 99
                      03111         f@call PRINT
  00000904            03112 F1_000182 equ $ ; IN [TIME MANAGEMENT.BAS] PRINT AT 2,1,"*:CONFIRM #:BACK"
0904   3080           03113         movlw 128
0905   00A1           03114         movwf BPFH
0906   30C0           03115         movlw 192
                      03116         f@call LCD@CRS
0909   302A           03117         movlw 42
                      03118         f@call PRINT
090C   303A           03119         movlw 58
                      03120         f@call PRINT
090F   3043           03121         movlw 67
                      03122         f@call PRINT
0912   306F           03123         movlw 111
                      03124         f@call PRINT
0915   306E           03125         movlw 110
                      03126         f@call PRINT
0918   3066           03127         movlw 102
                      03128         f@call PRINT
091B   3069           03129         movlw 105
                      03130         f@call PRINT
091E   3072           03131         movlw 114
                      03132         f@call PRINT
0921   306D           03133         movlw 109
                      03134         f@call PRINT
0924   3020           03135         movlw 32
                      03136         f@call PRINT
0927   3023           03137         movlw 35
                      03138         f@call PRINT
092A   303A           03139         movlw 58
                      03140         f@call PRINT
092D   3042           03141         movlw 66
                      03142         f@call PRINT
0930   3061           03143         movlw 97
                      03144         f@call PRINT
0933   3063           03145         movlw 99
                      03146         f@call PRINT
0936   306B           03147         movlw 107
                      03148         f@call PRINT
  00000939            03149 F1_000183 equ $ ; IN [TIME MANAGEMENT.BAS] while 1 = 1
0939                  03150 BC@LL121
  00000939            03151 F1_000184 equ $ ; IN [TIME MANAGEMENT.BAS] GOSUB capture_key
                      03152         f@call capture_key
  0000093B            03153 F1_000185 equ $ ; IN [TIME MANAGEMENT.BAS] if key_value = "*" THEN GOSUB setup2
093B   302A           03154         movlw 42
093C   026D           03155         subwf key_value,W
                      03156         set@page BC@LL124
093E   1D03           03157         btfss STATUS,2
093F   2942           03158         goto BC@LL124
                      03159         f@call setup2
0942                  03160 BC@LL124
  00000942            03161 F1_000186 equ $ ; IN [TIME MANAGEMENT.BAS] if key_value = "#" THEN GOSUB manual_set
0942   3023           03162         movlw 35
0943   026D           03163         subwf key_value,W
                      03164         set@page BC@LL126
0945   1D03           03165         btfss STATUS,2
0946   2949           03166         goto BC@LL126
                      03167         f@call manual_set
0949                  03168 BC@LL126
  00000949            03169 F1_000187 equ $ ; IN [TIME MANAGEMENT.BAS] if key_value = "D" THEN CLS : GOSUB main
0949   3044           03170         movlw 68
094A   026D           03171         subwf key_value,W
                      03172         set@page BC@LL128
094C   1D03           03173         btfss STATUS,2
094D   2952           03174         goto BC@LL128
                      03175         f@call LCD@CLS
                      03176         f@call main
0952                  03177 BC@LL128
  00000952            03178 F1_000188 equ $ ; IN [TIME MANAGEMENT.BAS] WEND
                      03179         F@JUMP BC@LL121
0954                  03180 BC@LL122
0954                  03181 setup2
  00000954            03182 F1_000190 equ $ ; IN [TIME MANAGEMENT.BAS] CLS
                      03183         f@call LCD@CLS
  00000956            03184 F1_000191 equ $ ; IN [TIME MANAGEMENT.BAS] PRINT AT 1,1,"MANUAL SETUP:"
0956   3080           03185         movlw 128
0957   00A1           03186         movwf BPFH
                      03187         f@call LCD@CRS
095A   304D           03188         movlw 77
                      03189         f@call PRINT
095D   3061           03190         movlw 97
                      03191         f@call PRINT
0960   306E           03192         movlw 110
                      03193         f@call PRINT
0963   3075           03194         movlw 117
                      03195         f@call PRINT
0966   3061           03196         movlw 97
                      03197         f@call PRINT
0969   306C           03198         movlw 108
                      03199         f@call PRINT
096C   3020           03200         movlw 32
                      03201         f@call PRINT
096F   3053           03202         movlw 83
                      03203         f@call PRINT
0972   3065           03204         movlw 101
                      03205         f@call PRINT
0975   3074           03206         movlw 116
                      03207         f@call PRINT
0978   3075           03208         movlw 117
                      03209         f@call PRINT
097B   3070           03210         movlw 112
                      03211         f@call PRINT
097E   303A           03212         movlw 58
                      03213         f@call PRINT
  00000981            03214 F1_000192 equ $ ; IN [TIME MANAGEMENT.BAS] PRINT AT 2,1,"RELAY 2:"
0981   3080           03215         movlw 128
0982   00A1           03216         movwf BPFH
0983   30C0           03217         movlw 192
                      03218         f@call LCD@CRS
0986   3052           03219         movlw 82
                      03220         f@call PRINT
0989   3065           03221         movlw 101
                      03222         f@call PRINT
098C   306C           03223         movlw 108
                      03224         f@call PRINT
098F   3061           03225         movlw 97
                      03226         f@call PRINT
0992   3079           03227         movlw 121
                      03228         f@call PRINT
0995   3020           03229         movlw 32
                      03230         f@call PRINT
0998   3032           03231         movlw 50
                      03232         f@call PRINT
099B   303A           03233         movlw 58
                      03234         f@call PRINT
  0000099E            03235 F1_000193 equ $ ; IN [TIME MANAGEMENT.BAS] FOR X = 0 TO 2
099E   01B9           03236         clrf _X
099F                  03237 FR@LB130
099F   3003           03238         movlw 3
09A0   0239           03239         subwf _X,W
                      03240         set@page NX@LB131
09A2   1803           03241         btfsc STATUS,0
09A3   29BE           03242         goto NX@LB131
  000009A4            03243 F1_000194 equ $ ; IN [TIME MANAGEMENT.BAS] GOSUB read_key
                      03244         f@call read_key
  000009A6            03245 F1_000195 equ $ ; IN [TIME MANAGEMENT.BAS] PRINT AT 2,X+10, key_value
09A6   3080           03246         movlw 128
09A7   00A1           03247         movwf BPFH
09A8   3002           03248         movlw 2
09A9   00A2           03249         movwf GEN
09AA   300A           03250         movlw 10
09AB   0739           03251         addwf _X,W
                      03252         f@call CURSOR
09AE   086D           03253         movf key_value,W
                      03254         f@call PRINT
  000009B1            03255 F1_000196 equ $ ; IN [TIME MANAGEMENT.BAS] temp[X] = key_value - 48
09B1   3030           03256         movlw 48
09B2   026D           03257         subwf key_value,W
09B3   00A6           03258         movwf PBP#VAR0
09B4   0839           03259         movf _X,W
09B5   3E3A           03260         addlw temp
09B6   0084           03261         movwf FSR
09B7   0826           03262         movf PBP#VAR0,W
09B8   0080           03263         movwf INDF
09B9                  03264 CT@LB132
  000009B9            03265 F1_000197 equ $ ; IN [TIME MANAGEMENT.BAS] NEXT
09B9   3001           03266         movlw 1
09BA   07B9           03267         addwf _X,F
                      03268         set@page FR@LB130
09BC   1C03           03269         btfss STATUS,0
09BD   299F           03270         goto FR@LB130
09BE                  03271 NX@LB131
  000009BE            03272 F1_000198 equ $ ; IN [TIME MANAGEMENT.BAS] m_sec_r2 = temp[0] * 100 + temp[1] * 10 + temp[2]
09BE   083A           03273         movf temp#0,W
09BF   00A6           03274         movwf PBP#VAR0
09C0   01B6           03275         clrf PP7H
09C1   0826           03276         movf PBP#VAR0,W
09C2   00B5           03277         movwf PP7
09C3   0836           03278         movf PP7H,W
09C4   00B0           03279         movwf PP3H
09C5   0835           03280         movf PP7,W
09C6   00AF           03281         movwf PP3
09C7   01AC           03282         clrf PP1H
09C8   3064           03283         movlw 100
09C9   00AB           03284         movwf PP1
                      03285         f@call M@PY
09CC   00B5           03286         movwf PP7
09CD   082E           03287         movf PP2H,W
09CE   00B6           03288         movwf PP7H
09CF   083B           03289         movf temp#1,W
09D0   00A7           03290         movwf PBP#VAR1
09D1   01B8           03291         clrf PP8H
09D2   0827           03292         movf PBP#VAR1,W
09D3   00B7           03293         movwf PP8
09D4   0838           03294         movf PP8H,W
09D5   00B0           03295         movwf PP3H
09D6   0837           03296         movf PP8,W
09D7   00AF           03297         movwf PP3
09D8   01AC           03298         clrf PP1H
09D9   300A           03299         movlw 10
09DA   00AB           03300         movwf PP1
                      03301         f@call M@PY
09DD   00B7           03302         movwf PP8
09DE   082E           03303         movf PP2H,W
09DF   00B8           03304         movwf PP8H
09E0   0837           03305         movf PP8,W
09E1   07B5           03306         addwf PP7,F
09E2   0838           03307         movf PP8H,W
09E3   1803           03308         btfsc STATUS,0
09E4   3E01           03309         addlw 1
09E5   07B6           03310         addwf PP7H,F
09E6   083C           03311         movf temp#2,W
09E7   00A8           03312         movwf PBP#VAR2
09E8   0828           03313         movf PBP#VAR2,W
09E9   0735           03314         addwf PP7,W
09EA   00C8           03315         movwf m_sec_r2
09EB   0836           03316         movf PP7H,W
09EC   1803           03317         btfsc STATUS,0
09ED   3E01           03318         addlw 1
09EE   00C9           03319         movwf m_sec_r2H
  000009EF            03320 F1_000199 equ $ ; IN [TIME MANAGEMENT.BAS] CLS
                      03321         f@call LCD@CLS
  000009F1            03322 F1_000200 equ $ ; IN [TIME MANAGEMENT.BAS] PRINT AT 1,1,"RELAY 2:", DEC3 m_sec_r2, "SEC"
09F1   3080           03323         movlw 128
09F2   00A1           03324         movwf BPFH
                      03325         f@call LCD@CRS
09F5   3052           03326         movlw 82
                      03327         f@call PRINT
09F8   3065           03328         movlw 101
                      03329         f@call PRINT
09FB   306C           03330         movlw 108
                      03331         f@call PRINT
09FE   3061           03332         movlw 97
                      03333         f@call PRINT
0A01   3079           03334         movlw 121
                      03335         f@call PRINT
0A04   3020           03336         movlw 32
                      03337         f@call PRINT
0A07   3032           03338         movlw 50
                      03339         f@call PRINT
0A0A   303A           03340         movlw 58
                      03341         f@call PRINT
0A0D   3003           03342         movlw 3
0A0E   00A4           03343         movwf GEN4H
0A0F   0849           03344         movf m_sec_r2H,W
0A10   00AE           03345         movwf PP2H
0A11   0848           03346         movf m_sec_r2,W
0A12   00AD           03347         movwf PP2
                      03348         f@call OUT@DEC
0A15   3073           03349         movlw 115
                      03350         f@call PRINT
0A18   3065           03351         movlw 101
                      03352         f@call PRINT
0A1B   3063           03353         movlw 99
                      03354         f@call PRINT
  00000A1E            03355 F1_000201 equ $ ; IN [TIME MANAGEMENT.BAS] PRINT AT 2,1,"*:CONFIRM #:BACK"
0A1E   3080           03356         movlw 128
0A1F   00A1           03357         movwf BPFH
0A20   30C0           03358         movlw 192
                      03359         f@call LCD@CRS
0A23   302A           03360         movlw 42
                      03361         f@call PRINT
0A26   303A           03362         movlw 58
                      03363         f@call PRINT
0A29   3043           03364         movlw 67
                      03365         f@call PRINT
0A2C   306F           03366         movlw 111
                      03367         f@call PRINT
0A2F   306E           03368         movlw 110
                      03369         f@call PRINT
0A32   3066           03370         movlw 102
                      03371         f@call PRINT
0A35   3069           03372         movlw 105
                      03373         f@call PRINT
0A38   3072           03374         movlw 114
                      03375         f@call PRINT
0A3B   306D           03376         movlw 109
                      03377         f@call PRINT
0A3E   3020           03378         movlw 32
                      03379         f@call PRINT
0A41   3023           03380         movlw 35
                      03381         f@call PRINT
0A44   303A           03382         movlw 58
                      03383         f@call PRINT
0A47   3042           03384         movlw 66
                      03385         f@call PRINT
0A4A   3061           03386         movlw 97
                      03387         f@call PRINT
0A4D   3063           03388         movlw 99
                      03389         f@call PRINT
0A50   306B           03390         movlw 107
                      03391         f@call PRINT
  00000A53            03392 F1_000202 equ $ ; IN [TIME MANAGEMENT.BAS] while 1 = 1
0A53                  03393 BC@LL132
  00000A53            03394 F1_000203 equ $ ; IN [TIME MANAGEMENT.BAS] GOSUB capture_key
                      03395         f@call capture_key
  00000A55            03396 F1_000204 equ $ ; IN [TIME MANAGEMENT.BAS] if key_value = "*" THEN GOSUB setup3
0A55   302A           03397         movlw 42
0A56   026D           03398         subwf key_value,W
                      03399         set@page BC@LL135
0A58   1D03           03400         btfss STATUS,2
0A59   2A5C           03401         goto BC@LL135
                      03402         f@call setup3
0A5C                  03403 BC@LL135
  00000A5C            03404 F1_000205 equ $ ; IN [TIME MANAGEMENT.BAS] if key_value = "#" THEN GOSUB setup2
0A5C   3023           03405         movlw 35
0A5D   026D           03406         subwf key_value,W
                      03407         set@page BC@LL137
0A5F   1D03           03408         btfss STATUS,2
0A60   2A63           03409         goto BC@LL137
                      03410         f@call setup2
0A63                  03411 BC@LL137
  00000A63            03412 F1_000206 equ $ ; IN [TIME MANAGEMENT.BAS] if key_value = "D" THEN CLS : GOSUB main
0A63   3044           03413         movlw 68
0A64   026D           03414         subwf key_value,W
                      03415         set@page BC@LL139
0A66   1D03           03416         btfss STATUS,2
0A67   2A6C           03417         goto BC@LL139
                      03418         f@call LCD@CLS
                      03419         f@call main
0A6C                  03420 BC@LL139
  00000A6C            03421 F1_000207 equ $ ; IN [TIME MANAGEMENT.BAS] WEND
                      03422         F@JUMP BC@LL132
0A6E                  03423 BC@LL133
0A6E                  03424 setup3
  00000A6E            03425 F1_000209 equ $ ; IN [TIME MANAGEMENT.BAS] CLS
                      03426         f@call LCD@CLS
  00000A70            03427 F1_000210 equ $ ; IN [TIME MANAGEMENT.BAS] PRINT AT 1,1,"MANUAL SETUP:"
0A70   3080           03428         movlw 128
0A71   00A1           03429         movwf BPFH
                      03430         f@call LCD@CRS
0A74   304D           03431         movlw 77
                      03432         f@call PRINT
0A77   3061           03433         movlw 97
                      03434         f@call PRINT
0A7A   306E           03435         movlw 110
                      03436         f@call PRINT
0A7D   3075           03437         movlw 117
                      03438         f@call PRINT
0A80   3061           03439         movlw 97
                      03440         f@call PRINT
0A83   306C           03441         movlw 108
                      03442         f@call PRINT
0A86   3020           03443         movlw 32
                      03444         f@call PRINT
0A89   3053           03445         movlw 83
                      03446         f@call PRINT
0A8C   3065           03447         movlw 101
                      03448         f@call PRINT
0A8F   3074           03449         movlw 116
                      03450         f@call PRINT
0A92   3075           03451         movlw 117
                      03452         f@call PRINT
0A95   3070           03453         movlw 112
                      03454         f@call PRINT
0A98   303A           03455         movlw 58
                      03456         f@call PRINT
  00000A9B            03457 F1_000211 equ $ ; IN [TIME MANAGEMENT.BAS] PRINT AT 2,1,"RELAY 3:"
0A9B   3080           03458         movlw 128
0A9C   00A1           03459         movwf BPFH
0A9D   30C0           03460         movlw 192
                      03461         f@call LCD@CRS
0AA0   3052           03462         movlw 82
                      03463         f@call PRINT
0AA3   3065           03464         movlw 101
                      03465         f@call PRINT
0AA6   306C           03466         movlw 108
                      03467         f@call PRINT
0AA9   3061           03468         movlw 97
                      03469         f@call PRINT
0AAC   3079           03470         movlw 121
                      03471         f@call PRINT
0AAF   3020           03472         movlw 32
                      03473         f@call PRINT
0AB2   3033           03474         movlw 51
                      03475         f@call PRINT
0AB5   303A           03476         movlw 58
                      03477         f@call PRINT
  00000AB8            03478 F1_000212 equ $ ; IN [TIME MANAGEMENT.BAS] FOR X = 0 TO 2
0AB8   01B9           03479         clrf _X
0AB9                  03480 FR@LB141
0AB9   3003           03481         movlw 3
0ABA   0239           03482         subwf _X,W
                      03483         set@page NX@LB142
0ABC   1803           03484         btfsc STATUS,0
0ABD   2AD8           03485         goto NX@LB142
  00000ABE            03486 F1_000213 equ $ ; IN [TIME MANAGEMENT.BAS] GOSUB read_key
                      03487         f@call read_key
  00000AC0            03488 F1_000214 equ $ ; IN [TIME MANAGEMENT.BAS] PRINT AT 2,X+10, key_value
0AC0   3080           03489         movlw 128
0AC1   00A1           03490         movwf BPFH
0AC2   3002           03491         movlw 2
0AC3   00A2           03492         movwf GEN
0AC4   300A           03493         movlw 10
0AC5   0739           03494         addwf _X,W
                      03495         f@call CURSOR
0AC8   086D           03496         movf key_value,W
                      03497         f@call PRINT
  00000ACB            03498 F1_000215 equ $ ; IN [TIME MANAGEMENT.BAS] temp[X] = key_value - 48
0ACB   3030           03499         movlw 48
0ACC   026D           03500         subwf key_value,W
0ACD   00A6           03501         movwf PBP#VAR0
0ACE   0839           03502         movf _X,W
0ACF   3E3A           03503         addlw temp
0AD0   0084           03504         movwf FSR
0AD1   0826           03505         movf PBP#VAR0,W
0AD2   0080           03506         movwf INDF
0AD3                  03507 CT@LB143
  00000AD3            03508 F1_000216 equ $ ; IN [TIME MANAGEMENT.BAS] NEXT
0AD3   3001           03509         movlw 1
0AD4   07B9           03510         addwf _X,F
                      03511         set@page FR@LB141
0AD6   1C03           03512         btfss STATUS,0
0AD7   2AB9           03513         goto FR@LB141
0AD8                  03514 NX@LB142
  00000AD8            03515 F1_000217 equ $ ; IN [TIME MANAGEMENT.BAS] m_sec_r3 = temp[0] * 100 + temp[1] * 10 + temp[2]
0AD8   083A           03516         movf temp#0,W
0AD9   00A6           03517         movwf PBP#VAR0
0ADA   01B6           03518         clrf PP7H
0ADB   0826           03519         movf PBP#VAR0,W
0ADC   00B5           03520         movwf PP7
0ADD   0836           03521         movf PP7H,W
0ADE   00B0           03522         movwf PP3H
0ADF   0835           03523         movf PP7,W
0AE0   00AF           03524         movwf PP3
0AE1   01AC           03525         clrf PP1H
0AE2   3064           03526         movlw 100
0AE3   00AB           03527         movwf PP1
                      03528         f@call M@PY
0AE6   00B5           03529         movwf PP7
0AE7   082E           03530         movf PP2H,W
0AE8   00B6           03531         movwf PP7H
0AE9   083B           03532         movf temp#1,W
0AEA   00A7           03533         movwf PBP#VAR1
0AEB   01B8           03534         clrf PP8H
0AEC   0827           03535         movf PBP#VAR1,W
0AED   00B7           03536         movwf PP8
0AEE   0838           03537         movf PP8H,W
0AEF   00B0           03538         movwf PP3H
0AF0   0837           03539         movf PP8,W
0AF1   00AF           03540         movwf PP3
0AF2   01AC           03541         clrf PP1H
0AF3   300A           03542         movlw 10
0AF4   00AB           03543         movwf PP1
                      03544         f@call M@PY
0AF7   00B7           03545         movwf PP8
0AF8   082E           03546         movf PP2H,W
0AF9   00B8           03547         movwf PP8H
0AFA   0837           03548         movf PP8,W
0AFB   07B5           03549         addwf PP7,F
0AFC   0838           03550         movf PP8H,W
0AFD   1803           03551         btfsc STATUS,0
0AFE   3E01           03552         addlw 1
0AFF   07B6           03553         addwf PP7H,F
0B00   083C           03554         movf temp#2,W
0B01   00A8           03555         movwf PBP#VAR2
0B02   0828           03556         movf PBP#VAR2,W
0B03   0735           03557         addwf PP7,W
0B04   00CA           03558         movwf m_sec_r3
0B05   0836           03559         movf PP7H,W
0B06   1803           03560         btfsc STATUS,0
0B07   3E01           03561         addlw 1
0B08   00CB           03562         movwf m_sec_r3H
  00000B09            03563 F1_000218 equ $ ; IN [TIME MANAGEMENT.BAS] CLS
                      03564         f@call LCD@CLS
  00000B0B            03565 F1_000219 equ $ ; IN [TIME MANAGEMENT.BAS] PRINT AT 1,1,"RELAY 3:", DEC3 m_sec_r3, "SEC"
0B0B   3080           03566         movlw 128
0B0C   00A1           03567         movwf BPFH
                      03568         f@call LCD@CRS
0B0F   3052           03569         movlw 82
                      03570         f@call PRINT
0B12   3065           03571         movlw 101
                      03572         f@call PRINT
0B15   306C           03573         movlw 108
                      03574         f@call PRINT
0B18   3061           03575         movlw 97
                      03576         f@call PRINT
0B1B   3079           03577         movlw 121
                      03578         f@call PRINT
0B1E   3020           03579         movlw 32
                      03580         f@call PRINT
0B21   3033           03581         movlw 51
                      03582         f@call PRINT
0B24   303A           03583         movlw 58
                      03584         f@call PRINT
0B27   3003           03585         movlw 3
0B28   00A4           03586         movwf GEN4H
0B29   084B           03587         movf m_sec_r3H,W
0B2A   00AE           03588         movwf PP2H
0B2B   084A           03589         movf m_sec_r3,W
0B2C   00AD           03590         movwf PP2
                      03591         f@call OUT@DEC
0B2F   3073           03592         movlw 115
                      03593         f@call PRINT
0B32   3065           03594         movlw 101
                      03595         f@call PRINT
0B35   3063           03596         movlw 99
                      03597         f@call PRINT
  00000B38            03598 F1_000220 equ $ ; IN [TIME MANAGEMENT.BAS] PRINT AT 2,1,"*:CONFIRM #:BACK"
0B38   3080           03599         movlw 128
0B39   00A1           03600         movwf BPFH
0B3A   30C0           03601         movlw 192
                      03602         f@call LCD@CRS
0B3D   302A           03603         movlw 42
                      03604         f@call PRINT
0B40   303A           03605         movlw 58
                      03606         f@call PRINT
0B43   3043           03607         movlw 67
                      03608         f@call PRINT
0B46   306F           03609         movlw 111
                      03610         f@call PRINT
0B49   306E           03611         movlw 110
                      03612         f@call PRINT
0B4C   3066           03613         movlw 102
                      03614         f@call PRINT
0B4F   3069           03615         movlw 105
                      03616         f@call PRINT
0B52   3072           03617         movlw 114
                      03618         f@call PRINT
0B55   306D           03619         movlw 109
                      03620         f@call PRINT
0B58   3020           03621         movlw 32
                      03622         f@call PRINT
0B5B   3023           03623         movlw 35
                      03624         f@call PRINT
0B5E   303A           03625         movlw 58
                      03626         f@call PRINT
0B61   3042           03627         movlw 66
                      03628         f@call PRINT
0B64   3061           03629         movlw 97
                      03630         f@call PRINT
0B67   3063           03631         movlw 99
                      03632         f@call PRINT
0B6A   306B           03633         movlw 107
                      03634         f@call PRINT
  00000B6D            03635 F1_000221 equ $ ; IN [TIME MANAGEMENT.BAS] while 1 = 1
0B6D                  03636 BC@LL143
  00000B6D            03637 F1_000222 equ $ ; IN [TIME MANAGEMENT.BAS] GOSUB capture_key
                      03638         f@call capture_key
  00000B6F            03639 F1_000223 equ $ ; IN [TIME MANAGEMENT.BAS] if key_value = "*" THEN GOSUB setup4
0B6F   302A           03640         movlw 42
0B70   026D           03641         subwf key_value,W
                      03642         set@page BC@LL146
0B72   1D03           03643         btfss STATUS,2
0B73   2B76           03644         goto BC@LL146
                      03645         f@call setup4
0B76                  03646 BC@LL146
  00000B76            03647 F1_000224 equ $ ; IN [TIME MANAGEMENT.BAS] if key_value = "#" THEN GOSUB setup3
0B76   3023           03648         movlw 35
0B77   026D           03649         subwf key_value,W
                      03650         set@page BC@LL148
0B79   1D03           03651         btfss STATUS,2
0B7A   2B7D           03652         goto BC@LL148
                      03653         f@call setup3
0B7D                  03654 BC@LL148
  00000B7D            03655 F1_000225 equ $ ; IN [TIME MANAGEMENT.BAS] if key_value = "D" THEN CLS : GOSUB main
0B7D   3044           03656         movlw 68
0B7E   026D           03657         subwf key_value,W
                      03658         set@page BC@LL150
0B80   1D03           03659         btfss STATUS,2
0B81   2B86           03660         goto BC@LL150
                      03661         f@call LCD@CLS
                      03662         f@call main
0B86                  03663 BC@LL150
  00000B86            03664 F1_000226 equ $ ; IN [TIME MANAGEMENT.BAS] WEND
                      03665         F@JUMP BC@LL143
0B88                  03666 BC@LL144
0B88                  03667 setup4
  00000B88            03668 F1_000228 equ $ ; IN [TIME MANAGEMENT.BAS] CLS
                      03669         f@call LCD@CLS
  00000B8A            03670 F1_000229 equ $ ; IN [TIME MANAGEMENT.BAS] PRINT AT 1,1,"MANUAL SETUP:"
0B8A   3080           03671         movlw 128
0B8B   00A1           03672         movwf BPFH
                      03673         f@call LCD@CRS
0B8E   304D           03674         movlw 77
                      03675         f@call PRINT
0B91   3061           03676         movlw 97
                      03677         f@call PRINT
0B94   306E           03678         movlw 110
                      03679         f@call PRINT
0B97   3075           03680         movlw 117
                      03681         f@call PRINT
0B9A   3061           03682         movlw 97
                      03683         f@call PRINT
0B9D   306C           03684         movlw 108
                      03685         f@call PRINT
0BA0   3020           03686         movlw 32
                      03687         f@call PRINT
0BA3   3053           03688         movlw 83
                      03689         f@call PRINT
0BA6   3065           03690         movlw 101
                      03691         f@call PRINT
0BA9   3074           03692         movlw 116
                      03693         f@call PRINT
0BAC   3075           03694         movlw 117
                      03695         f@call PRINT
0BAF   3070           03696         movlw 112
                      03697         f@call PRINT
0BB2   303A           03698         movlw 58
                      03699         f@call PRINT
  00000BB5            03700 F1_000230 equ $ ; IN [TIME MANAGEMENT.BAS] PRINT AT 2,1,"RELAY 4:"
0BB5   3080           03701         movlw 128
0BB6   00A1           03702         movwf BPFH
0BB7   30C0           03703         movlw 192
                      03704         f@call LCD@CRS
0BBA   3052           03705         movlw 82
                      03706         f@call PRINT
0BBD   3065           03707         movlw 101
                      03708         f@call PRINT
0BC0   306C           03709         movlw 108
                      03710         f@call PRINT
0BC3   3061           03711         movlw 97
                      03712         f@call PRINT
0BC6   3079           03713         movlw 121
                      03714         f@call PRINT
0BC9   3020           03715         movlw 32
                      03716         f@call PRINT
0BCC   3034           03717         movlw 52
                      03718         f@call PRINT
0BCF   303A           03719         movlw 58
                      03720         f@call PRINT
  00000BD2            03721 F1_000231 equ $ ; IN [TIME MANAGEMENT.BAS] FOR X = 0 TO 2
0BD2   01B9           03722         clrf _X
0BD3                  03723 FR@LB152
0BD3   3003           03724         movlw 3
0BD4   0239           03725         subwf _X,W
                      03726         set@page NX@LB153
0BD6   1803           03727         btfsc STATUS,0
0BD7   2BF2           03728         goto NX@LB153
  00000BD8            03729 F1_000232 equ $ ; IN [TIME MANAGEMENT.BAS] GOSUB read_key
                      03730         f@call read_key
  00000BDA            03731 F1_000233 equ $ ; IN [TIME MANAGEMENT.BAS] PRINT AT 2,X+10, key_value
0BDA   3080           03732         movlw 128
0BDB   00A1           03733         movwf BPFH
0BDC   3002           03734         movlw 2
0BDD   00A2           03735         movwf GEN
0BDE   300A           03736         movlw 10
0BDF   0739           03737         addwf _X,W
                      03738         f@call CURSOR
0BE2   086D           03739         movf key_value,W
                      03740         f@call PRINT
  00000BE5            03741 F1_000234 equ $ ; IN [TIME MANAGEMENT.BAS] temp[X] = key_value - 48
0BE5   3030           03742         movlw 48
0BE6   026D           03743         subwf key_value,W
0BE7   00A6           03744         movwf PBP#VAR0
0BE8   0839           03745         movf _X,W
0BE9   3E3A           03746         addlw temp
0BEA   0084           03747         movwf FSR
0BEB   0826           03748         movf PBP#VAR0,W
0BEC   0080           03749         movwf INDF
0BED                  03750 CT@LB154
  00000BED            03751 F1_000235 equ $ ; IN [TIME MANAGEMENT.BAS] NEXT
0BED   3001           03752         movlw 1
0BEE   07B9           03753         addwf _X,F
                      03754         set@page FR@LB152
0BF0   1C03           03755         btfss STATUS,0
0BF1   2BD3           03756         goto FR@LB152
0BF2                  03757 NX@LB153
  00000BF2            03758 F1_000236 equ $ ; IN [TIME MANAGEMENT.BAS] m_sec_r4 = temp[0] * 100 + temp[1] * 10 + temp[2]
0BF2   083A           03759         movf temp#0,W
0BF3   00A6           03760         movwf PBP#VAR0
0BF4   01B6           03761         clrf PP7H
0BF5   0826           03762         movf PBP#VAR0,W
0BF6   00B5           03763         movwf PP7
0BF7   0836           03764         movf PP7H,W
0BF8   00B0           03765         movwf PP3H
0BF9   0835           03766         movf PP7,W
0BFA   00AF           03767         movwf PP3
0BFB   01AC           03768         clrf PP1H
0BFC   3064           03769         movlw 100
0BFD   00AB           03770         movwf PP1
                      03771         f@call M@PY
0C00   00B5           03772         movwf PP7
0C01   082E           03773         movf PP2H,W
0C02   00B6           03774         movwf PP7H
0C03   083B           03775         movf temp#1,W
0C04   00A7           03776         movwf PBP#VAR1
0C05   01B8           03777         clrf PP8H
0C06   0827           03778         movf PBP#VAR1,W
0C07   00B7           03779         movwf PP8
0C08   0838           03780         movf PP8H,W
0C09   00B0           03781         movwf PP3H
0C0A   0837           03782         movf PP8,W
0C0B   00AF           03783         movwf PP3
0C0C   01AC           03784         clrf PP1H
0C0D   300A           03785         movlw 10
0C0E   00AB           03786         movwf PP1
                      03787         f@call M@PY
0C11   00B7           03788         movwf PP8
0C12   082E           03789         movf PP2H,W
0C13   00B8           03790         movwf PP8H
0C14   0837           03791         movf PP8,W
0C15   07B5           03792         addwf PP7,F
0C16   0838           03793         movf PP8H,W
0C17   1803           03794         btfsc STATUS,0
0C18   3E01           03795         addlw 1
0C19   07B6           03796         addwf PP7H,F
0C1A   083C           03797         movf temp#2,W
0C1B   00A8           03798         movwf PBP#VAR2
0C1C   0828           03799         movf PBP#VAR2,W
0C1D   0735           03800         addwf PP7,W
0C1E   00CC           03801         movwf m_sec_r4
0C1F   0836           03802         movf PP7H,W
0C20   1803           03803         btfsc STATUS,0
0C21   3E01           03804         addlw 1
0C22   00CD           03805         movwf m_sec_r4H
  00000C23            03806 F1_000237 equ $ ; IN [TIME MANAGEMENT.BAS] CLS
                      03807         f@call LCD@CLS
  00000C25            03808 F1_000238 equ $ ; IN [TIME MANAGEMENT.BAS] PRINT AT 1,1,"RELAY 4:", DEC3 m_sec_r4, "SEC"
0C25   3080           03809         movlw 128
0C26   00A1           03810         movwf BPFH
                      03811         f@call LCD@CRS
0C29   3052           03812         movlw 82
                      03813         f@call PRINT
0C2C   3065           03814         movlw 101
                      03815         f@call PRINT
0C2F   306C           03816         movlw 108
                      03817         f@call PRINT
0C32   3061           03818         movlw 97
                      03819         f@call PRINT
0C35   3079           03820         movlw 121
                      03821         f@call PRINT
0C38   3020           03822         movlw 32
                      03823         f@call PRINT
0C3B   3034           03824         movlw 52
                      03825         f@call PRINT
0C3E   303A           03826         movlw 58
                      03827         f@call PRINT
0C41   3003           03828         movlw 3
0C42   00A4           03829         movwf GEN4H
0C43   084D           03830         movf m_sec_r4H,W
0C44   00AE           03831         movwf PP2H
0C45   084C           03832         movf m_sec_r4,W
0C46   00AD           03833         movwf PP2
                      03834         f@call OUT@DEC
0C49   3073           03835         movlw 115
                      03836         f@call PRINT
0C4C   3065           03837         movlw 101
                      03838         f@call PRINT
0C4F   3063           03839         movlw 99
                      03840         f@call PRINT
  00000C52            03841 F1_000239 equ $ ; IN [TIME MANAGEMENT.BAS] PRINT AT 2,1,"*:CONFIRM #:BACK"
0C52   3080           03842         movlw 128
0C53   00A1           03843         movwf BPFH
0C54   30C0           03844         movlw 192
                      03845         f@call LCD@CRS
0C57   302A           03846         movlw 42
                      03847         f@call PRINT
0C5A   303A           03848         movlw 58
                      03849         f@call PRINT
0C5D   3043           03850         movlw 67
                      03851         f@call PRINT
0C60   306F           03852         movlw 111
                      03853         f@call PRINT
0C63   306E           03854         movlw 110
                      03855         f@call PRINT
0C66   3066           03856         movlw 102
                      03857         f@call PRINT
0C69   3069           03858         movlw 105
                      03859         f@call PRINT
0C6C   3072           03860         movlw 114
                      03861         f@call PRINT
0C6F   306D           03862         movlw 109
                      03863         f@call PRINT
0C72   3020           03864         movlw 32
                      03865         f@call PRINT
0C75   3023           03866         movlw 35
                      03867         f@call PRINT
0C78   303A           03868         movlw 58
                      03869         f@call PRINT
0C7B   3042           03870         movlw 66
                      03871         f@call PRINT
0C7E   3061           03872         movlw 97
                      03873         f@call PRINT
0C81   3063           03874         movlw 99
                      03875         f@call PRINT
0C84   306B           03876         movlw 107
                      03877         f@call PRINT
  00000C87            03878 F1_000240 equ $ ; IN [TIME MANAGEMENT.BAS] while 1 = 1
0C87                  03879 BC@LL154
  00000C87            03880 F1_000241 equ $ ; IN [TIME MANAGEMENT.BAS] GOSUB capture_key
                      03881         f@call capture_key
  00000C89            03882 F1_000242 equ $ ; IN [TIME MANAGEMENT.BAS] if key_value = "*" THEN GOSUB done
0C89   302A           03883         movlw 42
0C8A   026D           03884         subwf key_value,W
                      03885         set@page BC@LL157
0C8C   1D03           03886         btfss STATUS,2
0C8D   2C90           03887         goto BC@LL157
                      03888         f@call done
0C90                  03889 BC@LL157
  00000C90            03890 F1_000243 equ $ ; IN [TIME MANAGEMENT.BAS] if key_value = "#" THEN GOSUB setup4
0C90   3023           03891         movlw 35
0C91   026D           03892         subwf key_value,W
                      03893         set@page BC@LL159
0C93   1D03           03894         btfss STATUS,2
0C94   2C97           03895         goto BC@LL159
                      03896         f@call setup4
0C97                  03897 BC@LL159
  00000C97            03898 F1_000244 equ $ ; IN [TIME MANAGEMENT.BAS] if key_value = "D" THEN CLS : GOSUB main
0C97   3044           03899         movlw 68
0C98   026D           03900         subwf key_value,W
                      03901         set@page BC@LL161
0C9A   1D03           03902         btfss STATUS,2
0C9B   2CA0           03903         goto BC@LL161
                      03904         f@call LCD@CLS
                      03905         f@call main
0CA0                  03906 BC@LL161
  00000CA0            03907 F1_000245 equ $ ; IN [TIME MANAGEMENT.BAS] WEND
                      03908         F@JUMP BC@LL154
0CA2                  03909 BC@LL155
0CA2                  03910 done
  00000CA2            03911 F1_000247 equ $ ; IN [TIME MANAGEMENT.BAS] CLS
                      03912         f@call LCD@CLS
  00000CA4            03913 F1_000248 equ $ ; IN [TIME MANAGEMENT.BAS] rly1 = 0 : rly2 = 0 : rly3 = 0 : rly4 = 0 : second = 0
0CA4   1185           03914         bcf PORTA,3
0CA5   1105           03915         bcf PORTA,2
0CA6   1085           03916         bcf PORTA,1
0CA7   1005           03917         bcf PORTA,0
0CA8   01BD           03918         clrf second
  00000CA9            03919 F1_000249 equ $ ; IN [TIME MANAGEMENT.BAS] m_sec_r2 = m_sec_r2 + m_sec_r1
0CA9   0846           03920         movf m_sec_r1,W
0CAA   07C8           03921         addwf m_sec_r2,F
0CAB   0847           03922         movf m_sec_r1H,W
0CAC   1803           03923         btfsc STATUS,0
0CAD   3E01           03924         addlw 1
0CAE   07C9           03925         addwf m_sec_r2H,F
  00000CAF            03926 F1_000250 equ $ ; IN [TIME MANAGEMENT.BAS] m_sec_r3 = m_sec_r3 + m_sec_r2
0CAF   0848           03927         movf m_sec_r2,W
0CB0   07CA           03928         addwf m_sec_r3,F
0CB1   0849           03929         movf m_sec_r2H,W
0CB2   1803           03930         btfsc STATUS,0
0CB3   3E01           03931         addlw 1
0CB4   07CB           03932         addwf m_sec_r3H,F
  00000CB5            03933 F1_000251 equ $ ; IN [TIME MANAGEMENT.BAS] m_sec_r4 = m_sec_r4 + m_sec_r3
0CB5   084A           03934         movf m_sec_r3,W
0CB6   07CC           03935         addwf m_sec_r4,F
0CB7   084B           03936         movf m_sec_r3H,W
0CB8   1803           03937         btfsc STATUS,0
0CB9   3E01           03938         addlw 1
0CBA   07CD           03939         addwf m_sec_r4H,F
  00000CBB            03940 F1_000252 equ $ ; IN [TIME MANAGEMENT.BAS] PRINT AT 2,1,"done.."
0CBB   3080           03941         movlw 128
0CBC   00A1           03942         movwf BPFH
0CBD   30C0           03943         movlw 192
                      03944         f@call LCD@CRS
0CC0   3044           03945         movlw 68
                      03946         f@call PRINT
0CC3   306F           03947         movlw 111
                      03948         f@call PRINT
0CC6   306E           03949         movlw 110
                      03950         f@call PRINT
0CC9   3065           03951         movlw 101
                      03952         f@call PRINT
0CCC   302E           03953         movlw 46
                      03954         f@call PRINT
                      03955         f@call PRINT
  00000CD1            03956 F1_000253 equ $ ; IN [TIME MANAGEMENT.BAS] DELAYMS 1000
0CD1   3003           03957         movlw 3
0CD2   00AC           03958         movwf PP1H
0CD3   30E8           03959         movlw 232
                      03960         f@call DLY@W
  00000CD6            03961 F1_000254 equ $ ; IN [TIME MANAGEMENT.BAS] CLS
                      03962         f@call LCD@CLS
  00000CD8            03963 F1_000255 equ $ ; IN [TIME MANAGEMENT.BAS] GOSUB main
                      03964         f@call main
  00000CDA            03965 F1_EOF equ $ ; TIME MANAGEMENT.BAS
0CDA                  03966 PB@LB163
                      03967         F@JUMP PB@LB163
0CDC                  03969 __EOF
2007   008A           03970 __config FOSC_HS&WDTE_OFF&PWRTE_OFF&CP_ALL&BOREN_OFF
                      03971         end
MPASM  5.42                               A.S   5-18-2018  21:50:31         PAGE  2


SYMBOL TABLE
  LABEL                             VALUE 

ADCON0                            0000001F
ADCON1                            0000009F
ADCS0                             00000006
ADCS1                             00000007
ADIE                              00000006
ADIF                              00000006
ADON                              00000000
ADRES                             0000001E
A_R1_SEC                          10
A_R2_SEC                          10
A_R3_SEC                          10
A_R4_SEC                          10
A_SEC_R2                          00000040
A_SEC_R2H                         00000041
A_SEC_R3                          00000042
A_SEC_R3H                         00000043
A_SEC_R4                          00000044
A_SEC_R4H                         00000045
BANK0_END                         0X7F
BANK0_START                       0X20
BANK1_END                         0X00FF
BANK1_START                       0X00A0
BC@LL10                           00000354
BC@LL101                          00000614
BC@LL103                          0000061E
BC@LL105                          00000632
BC@LL107                          0000063E
BC@LL109                          0000064B
BC@LL11                           0000035B
BC@LL111                          0000064F
BC@LL12                           00000384
BC@LL121                          00000939
BC@LL122                          00000954
BC@LL124                          00000942
BC@LL126                          00000949
BC@LL128                          00000952
BC@LL13                           0000036B
BC@LL132                          00000A53
BC@LL133                          00000A6E
BC@LL135                          00000A5C
BC@LL137                          00000A63
BC@LL139                          00000A6C
BC@LL14                           00000374
BC@LL143                          00000B6D
BC@LL144                          00000B88
BC@LL146                          00000B76
BC@LL148                          00000B7D
BC@LL15                           0000037D
BC@LL150                          00000B86
BC@LL154                          00000C87
BC@LL155                          00000CA2
BC@LL157                          00000C90
BC@LL159                          00000C97
BC@LL16                           00000384
BC@LL161                          00000CA0
BC@LL17                           000003AD
BC@LL18                           00000394
BC@LL19                           0000039D
BC@LL2                            00000332
BC@LL20                           000003A6
BC@LL21                           000003AD
BC@LL22                           000003AE
BC@LL23                           000003B4
BC@LL24                           000003B0
BC@LL25                           0000049F
BC@LL26                           000003BD
BC@LL29                           000003CB
BC@LL3                            00000319
BC@LL31                           000003D9
BC@LL33                           000003E7
BC@LL35                           000003F5
BC@LL37                           00000403
BC@LL39                           00000411
BC@LL4                            00000322
BC@LL41                           0000041F
BC@LL43                           0000042D
BC@LL45                           0000043B
BC@LL47                           00000449
BC@LL49                           00000457
BC@LL5                            0000032B
BC@LL51                           00000465
BC@LL53                           00000473
BC@LL55                           00000481
BC@LL57                           0000048F
BC@LL59                           0000049D
BC@LL6                            00000332
BC@LL61                           0000049F
BC@LL63                           000004F2
BC@LL65                           000004FF
BC@LL66                           00000507
BC@LL68                           00000514
BC@LL69                           0000051C
BC@LL7                            0000035B
BC@LL71                           00000529
BC@LL72                           00000531
BC@LL74                           0000053E
BC@LL75                           00000546
BC@LL76                           00000632
BC@LL77                           0000059A
BC@LL79                           00000567
BC@LL8                            00000342
BC@LL81                           00000574
BC@LL83                           00000581
BC@LL85                           0000058E
BC@LL87                           00000598
BC@LL88                           000005E7
BC@LL9                            0000034B
BC@LL90                           000005BD
BC@LL92                           000005C7
BC@LL94                           000005D1
BC@LL96                           000005E5
BC@LL97                           00000632
BC@LL99                           0000060A
BF                                00000000
BIT_BIT                           
BIT_BYTE                          
BIT_DWORD                         
BIT_WORD                          
BIT_WREG                          
BODEN_OFF                         00003FBF
BODEN_ON                          00003FFF
BOREN_OFF                         00003FBF
BOREN_ON                          00003FFF
BPF                               00000020
BPFH                              00000021
BRGH                              00000002
BYTE_BIT                          
BYTE_BYTE                         
BYTE_DWORD                        
BYTE_WORD                         
BYTE_WREG                         
C                                 00000000
CAPTURE_KEY                       00000307
CCP1CON                           00000017
CCP1IE                            00000002
CCP1IF                            00000002
CCP1M0                            00000000
CCP1M1                            00000001
CCP1M2                            00000002
CCP1M3                            00000003
CCP1X                             00000005
CCP1Y                             00000004
CCP2CON                           0000001D
CCP2IE                            00000000
CCP2IF                            00000000
CCP2M0                            00000000
CCP2M1                            00000001
CCP2M2                            00000002
CCP2M3                            00000003
CCP2X                             00000005
CCP2Y                             00000004
CCPR1H                            00000016
CCPR1L                            00000015
CCPR1LH                           00000016
CCPR2H                            0000001C
CCPR2L                            0000001B
CCPR2LH                           0000001C
CH@SND                            000000D6
CHECKING                          000002FB
CHS0                              00000003
CHS1                              00000004
CHS2                              00000005
CKE                               00000006
CKP                               00000004
CL@R                              000000DB
CLS                               00000003
COL_1                             PORTC,3
COL_2                             PORTC,2
COL_3                             PORTC,1
COL_4                             PORTC,0
CONFIG_REQ                        1
CP_50                             00002AEF
CP_75                             000015DF
CP_ALL                            000000CF
CP_OFF                            00003FFF
CREN                              00000004
CSRC                              00000007
CT@LB121                          0000089F
CT@LB132                          000009B9
CT@LB143                          00000AD3
CT@LB154                          00000BED
CURRENT@PAGE                      00000000
CURS@                             00000023
CURSOR                            0000000D
D@DIG                             00000041
D@VD                              000000FE
D@VD2                             00000100
DATA_ADDRESS                      00000005
DC                                00000001
DEST@PAGE                         00000000
DL@MS                             000000E1
DL@US                             000000EE
DLUS@W                            000000EF
DLY@P                             000000E3
DLY@W                             000000E2
DONE                              00000CA2
DWORD_BIT                         
DWORD_BYTE                        
DWORD_DWORD                       
DWORD_WORD                        
DWORD_WREG                        
D_A                               00000005
EX@SEND@IT                        00000059
F1_000020                         0000013E
F1_000022                         00000140
F1_000023                         00000143
F1_000052                         00000146
F1_000060                         00000150
F1_000061                         00000153
F1_000062                         0000015A
F1_000064                         00000161
F1_000065                         0000017F
F1_000068                         0000019D
F1_000069                         000001CE
F1_000070                         000001D3
F1_000071                         000001DB
F1_000072                         000001E7
F1_000073                         000001FD
F1_000074                         00000205
F1_000075                         00000217
F1_000076                         0000021C
F1_000077                         00000224
F1_000078                         00000245
F1_000079                         0000024A
F1_000080                         00000252
F1_000081                         00000273
F1_000082                         00000278
F1_000083                         00000280
F1_000084                         000002B9
F1_000085                         000002BE
F1_000086                         000002C6
F1_000087                         000002E7
F1_000088                         000002EC
F1_000089                         000002F4
F1_000090                         000002F9
F1_000095                         000004A0
F1_000096                         000004D4
F1_000097                         000004E9
F1_000098                         000004EE
F1_000099                         000004EF
F1_000100                         000004F2
F1_000101                         000004F2
F1_000102                         00000507
F1_000103                         0000051C
F1_000104                         00000531
F1_000105                         00000546
F1_000106                         0000054A
F1_000107                         0000055E
F1_000108                         00000567
F1_000109                         00000574
F1_000110                         00000581
F1_000111                         0000058E
F1_000112                         0000059A
F1_000113                         0000059F
F1_000114                         000005B3
F1_000115                         000005BD
F1_000116                         000005C7
F1_000117                         000005D1
F1_000118                         000005DA
F1_000119                         000005DB
F1_000120                         000005E0
F1_000121                         000005E5
F1_000122                         000005E7
F1_000123                         000005EC
F1_000124                         00000600
F1_000125                         0000060A
F1_000126                         00000614
F1_000127                         0000061E
F1_000128                         00000627
F1_000129                         00000628
F1_000130                         0000062D
F1_000131                         00000632
F1_000132                         00000632
F1_000133                         00000632
F1_000134                         00000634
F1_000135                         00000639
F1_000136                         0000063A
F1_000137                         0000063E
F1_000138                         0000063E
F1_000139                         00000643
F1_000140                         00000645
F1_000141                         00000649
F1_000142                         0000064B
F1_000143                         0000064B
F1_000144                         0000064F
F1_000145                         00000651
F1_000148                         00000653
F1_000149                         0000065D
F1_000150                         000006A9
F1_000151                         000006EA
F1_000152                         0000072B
F1_000153                         0000076C
F1_000154                         000007AD
F1_000155                         000007AF
F1_000156                         000007B1
F1_000157                         000007E2
F1_000158                         00000814
F1_000159                         00000819
F1_000160                         0000081B
F1_000161                         0000081C
F1_000162                         00000822
F1_000163                         00000828
F1_000164                         0000082E
F1_000165                         00000830
F1_000167                         00000834
F1_000170                         00000835
F1_000171                         00000837
F1_000172                         00000862
F1_000173                         00000867
F1_000174                         00000884
F1_000175                         0000088A
F1_000176                         0000088C
F1_000177                         00000897
F1_000178                         0000089F
F1_000179                         000008A4
F1_000180                         000008D5
F1_000181                         000008D7
F1_000182                         00000904
F1_000183                         00000939
F1_000184                         00000939
F1_000185                         0000093B
F1_000186                         00000942
F1_000187                         00000949
F1_000188                         00000952
F1_000190                         00000954
F1_000191                         00000956
F1_000192                         00000981
F1_000193                         0000099E
F1_000194                         000009A4
F1_000195                         000009A6
F1_000196                         000009B1
F1_000197                         000009B9
F1_000198                         000009BE
F1_000199                         000009EF
F1_000200                         000009F1
F1_000201                         00000A1E
F1_000202                         00000A53
F1_000203                         00000A53
F1_000204                         00000A55
F1_000205                         00000A5C
F1_000206                         00000A63
F1_000207                         00000A6C
F1_000209                         00000A6E
F1_000210                         00000A70
F1_000211                         00000A9B
F1_000212                         00000AB8
F1_000213                         00000ABE
F1_000214                         00000AC0
F1_000215                         00000ACB
F1_000216                         00000AD3
F1_000217                         00000AD8
F1_000218                         00000B09
F1_000219                         00000B0B
F1_000220                         00000B38
F1_000221                         00000B6D
F1_000222                         00000B6D
F1_000223                         00000B6F
F1_000224                         00000B76
F1_000225                         00000B7D
F1_000226                         00000B86
F1_000228                         00000B88
F1_000229                         00000B8A
F1_000230                         00000BB5
F1_000231                         00000BD2
F1_000232                         00000BD8
F1_000233                         00000BDA
F1_000234                         00000BE5
F1_000235                         00000BED
F1_000236                         00000BF2
F1_000237                         00000C23
F1_000238                         00000C25
F1_000239                         00000C52
F1_000240                         00000C87
F1_000241                         00000C87
F1_000242                         00000C89
F1_000243                         00000C90
F1_000244                         00000C97
F1_000245                         00000CA0
F1_000247                         00000CA2
F1_000248                         00000CA4
F1_000249                         00000CA9
F1_000250                         00000CAF
F1_000251                         00000CB5
F1_000252                         00000CBB
F1_000253                         00000CD1
F1_000254                         00000CD6
F1_000255                         00000CD8
F1_EOF                            00000CDA
F1_SOF                            0000013E
F2_EOF                            0000013E
F2_SOF                            0000013E
F3_000022                         000002FB
F3_000023                         00000300
F3_000026                         00000304
F3_000029                         00000307
F3_000030                         00000309
F3_000031                         0000030D
F3_000032                         00000310
F3_000033                         00000313
F3_000034                         00000319
F3_000035                         0000031C
F3_000036                         00000322
F3_000037                         00000325
F3_000038                         0000032B
F3_000039                         0000032E
F3_000040                         00000332
F3_000041                         00000332
F3_000042                         00000336
F3_000043                         00000339
F3_000044                         0000033C
F3_000045                         00000342
F3_000046                         00000345
F3_000047                         0000034B
F3_000048                         0000034E
F3_000049                         00000354
F3_000050                         00000357
F3_000051                         0000035B
F3_000052                         0000035B
F3_000053                         0000035F
F3_000054                         00000362
F3_000055                         00000365
F3_000056                         0000036B
F3_000057                         0000036E
F3_000058                         00000374
F3_000059                         00000377
F3_000060                         0000037D
F3_000061                         00000380
F3_000062                         00000384
F3_000063                         00000384
F3_000064                         00000388
F3_000065                         0000038B
F3_000066                         0000038E
F3_000067                         00000394
F3_000068                         00000397
F3_000069                         0000039D
F3_000070                         000003A0
F3_000071                         000003A6
F3_000072                         000003A9
F3_000073                         000003AD
F3_000074                         000003AD
F3_000077                         000003AE
F3_000078                         000003AE
F3_000079                         000003B0
F3_000080                         000003B4
F3_000083                         000003B5
F3_000084                         000003B5
F3_000085                         000003BD
F3_000086                         000003CB
F3_000087                         000003D9
F3_000088                         000003E7
F3_000089                         000003F5
F3_000090                         00000403
F3_000091                         00000411
F3_000092                         0000041F
F3_000093                         0000042D
F3_000094                         0000043B
F3_000095                         00000449
F3_000096                         00000457
F3_000097                         00000465
F3_000098                         00000473
F3_000099                         00000481
F3_000100                         0000048F
F3_000101                         0000049B
F3_000102                         0000049F
F3_000103                         0000049F
F3_EOF                            000004A0
F3_SOF                            000002FB
F@CALL                            
F@JUMP                            
FERR                              00000002
FIND@PAGE                         
FOSC_HS                           00003FFE
FOSC_LP                           00003FFC
FOSC_RC                           00003FFF
FOSC_XT                           00003FFD
FR@LB119                          00000885
FR@LB130                          0000099F
FR@LB141                          00000AB9
FR@LB152                          00000BD3
FSR                               00000004
GEN                               00000022
GEN4                              00000023
GEN4H                             00000024
GENH                              00000025
GET_CODE                          000003B5
GIE                               00000007
GO                                00000002
GO_DONE                           00000002
GSM_INIT                          0000019D
G_SEC_R1                          0000004E
G_SEC_R1H                         0000004F
G_SEC_R2                          00000050
G_SEC_R2H                         00000051
G_SEC_R3                          00000052
G_SEC_R3H                         00000053
G_SEC_R4                          00000054
G_SEC_R4H                         00000055
H@RSIN                            000000CE
HRSIN                             000000C9
HRSIN2                            000000A9
HRSIN@LPT                         000000B4
HRSOUT                            000000D1
HSERIAL_BAUD                      0001C200
HSERIAL_RCSTA                     00000090
HSERIAL_SPBRG                     0000000A
HSERIAL_TXSTA                     00000024
HS_OSC                            00003FFE
I2C_DATA                          00000005
I2C_READ                          00000002
I2C_START                         00000003
I2C_STOP                          00000004
I@NT                              00000130
I@NT2                             00000131
INDF                              00000000
INTCON                            0000000B
INTE                              00000004
INTEDG                            00000006
INTF                              00000001
IRP                               00000007
JUMP                              
KEY                               0000006C
KEY_VALUE                         0000006D
LABEL_WORD                        
LCD#DTPIN                         4
LCD#DTPORT                        PORTB
LCD#ENPIN                         3
LCD#ENPORT                        PORTB
LCD#INTERFACE                     4
LCD#RSPIN                         2
LCD#RSPORT                        PORTB
LCD#TYPE                          0
LCD@CLS                           00000001
LCD@CRS                           00000021
LCD@CUR                           0000000B
LP_OSC                            00003FFC
M@PY                              0000011A
MAIN                              000004A0
MANUAL_SET                        00000835
MINUTE                            0000003E
MINUTEH                           0000003F
MODE                              00000056
MSG                               00000058
MSG#0                             00000058
MSG#1                             00000059
MSG#10                            00000062
MSG#11                            00000063
MSG#12                            00000064
MSG#13                            00000065
MSG#14                            00000066
MSG#15                            00000067
MSG#16                            00000068
MSG#17                            00000069
MSG#18                            0000006A
MSG#19                            0000006B
MSG#2                             0000005A
MSG#3                             0000005B
MSG#4                             0000005C
MSG#5                             0000005D
MSG#6                             0000005E
MSG#7                             0000005F
MSG#8                             00000060
MSG#9                             00000061
M_SEC_R1                          00000046
M_SEC_R1H                         00000047
M_SEC_R2                          00000048
M_SEC_R2H                         00000049
M_SEC_R3                          0000004A
M_SEC_R3H                         0000004B
M_SEC_R4                          0000004C
M_SEC_R4H                         0000004D
NOT_A                             00000005
NOT_ADDRESS                       00000005
NOT_BO                            00000000
NOT_BOR                           00000000
NOT_DONE                          00000002
NOT_PD                            00000003
NOT_POR                           00000001
NOT_RBPU                          00000007
NOT_RC8                           00000006
NOT_T1SYNC                        00000002
NOT_TO                            00000004
NOT_TX8                           00000006
NOT_W                             00000002
NOT_WRITE                         00000002
NUM_BIT                           
NUM_BYTE                          
NUM_DWORD                         
NUM_FSR                           
NUM_WORD                          
NUM_WREG                          
NX@LB120                          000008A4
NX@LB131                          000009BE
NX@LB142                          00000AD8
NX@LB153                          00000BF2
OERR                              00000001
OPTION_REG                        00000081
OUT@DEC                           0000002B
OUT@DECB                          00000028
OUT@DECC                          00000029
OVER                              00000834
PB@LB113                          00000657
PB@LB114                          00000661
PB@LB115                          00000685
PB@LB118                          00000698
PB@LB163                          00000CDA
PB@LB2                            000001EB
PBP#VAR0                          00000026
PBP#VAR1                          00000027
PBP#VAR2                          00000028
PCFG0                             00000000
PCFG1                             00000001
PCFG2                             00000002
PCL                               00000002
PCLATH                            0000000A
PCON                              0000008E
PDESTINATION@PAGE                 00000000
PEIE                              00000006
PIE1                              0000008C
PIE2                              0000008D
PIR1                              0000000C
PIR2                              0000000D
PORTA                             00000005
PORTB                             00000006
PORTC                             00000007
PP0                               00000029
PP0H                              0000002A
PP1                               0000002B
PP1H                              0000002C
PP2                               0000002D
PP2H                              0000002E
PP3                               0000002F
PP3H                              00000030
PP4                               00000031
PP5                               00000032
PP6                               00000033
PP6H                              00000034
PP7                               00000035
PP7H                              00000036
PP8                               00000037
PP8H                              00000038
PP_BF                             00000000
PP_CREN                           00000004
PP_GO_DONE                        00000002
PP_OERR                           00000001
PP_RCIF                           00000005
PP_R_W                            00000002
PP_T2CKPS0                        00000000
PP_T2CKPS1                        00000001
PP_TMR2ON                         00000002
PP_TXIF                           00000004
PR2                               00000092
PR@EX                             000000A7
PR@LP                             00000098
PRINT                             0000005A
PRIT@SKP                          00000092
PROTON#CODE#START                 00000000
PROTON#MAIN#START                 00000134
PRT@1                             00000084
PRT@C                             00000083
PRT@S                             00000097
PS0                               00000000
PS1                               00000001
PS2                               00000002
PSA                               00000003
PWRTE_OFF                         00003FFF
PWRTE_ON                          00003FF7
R1_DONE                           _B#VR1,1
R2_DONE                           _B#VR1,2
R3_DONE                           _B#VR1,3
R4_DONE                           _B#VR1,4
R@B                               
RAM_BANK                          00000000
RAM_BANKS                         2
RBIE                              00000003
RBIF                              00000000
RC8_9                             00000006
RC9                               00000006
RCD8                              00000000
RCIE                              00000005
RCIF                              00000005
RCREG                             0000001A
RCSTA                             00000018
RC_OSC                            00003FFF
READ_KEY                          000003AE
READ_WRITE                        00000002
RECEIVE_SMS                       00000653
RLY1                              PORTA,3
RLY2                              PORTA,2
RLY3                              PORTA,1
RLY4                              PORTA,0
ROW_1                             PORTB,1
ROW_2                             PORTB,0
ROW_3                             PORTC,5
ROW_4                             PORTC,4
RP0                               00000005
RP1                               00000006
RX9                               00000006
RX9D                              00000000
R_W                               00000002
S@B                               
SECOND                            0000003D
SEND@IT                           00000048
SET@PAGE                          
SETUP2                            00000954
SETUP3                            00000A6E
SETUP4                            00000B88
SMP                               00000007
SPBRG                             00000099
SPEN                              00000007
SREN                              00000005
SSPADD                            00000093
SSPBUF                            00000013
SSPCON                            00000014
SSPEN                             00000005
SSPIE                             00000003
SSPIF                             00000003
SSPM0                             00000000
SSPM1                             00000001
SSPM2                             00000002
SSPM3                             00000003
SSPOV                             00000006
SSPSTAT                           00000094
STATUS                            00000003
SYNC                              00000004
T0CS                              00000005
T0IE                              00000005
T0IF                              00000002
T0SE                              00000004
T1CKPS0                           00000004
T1CKPS1                           00000005
T1CON                             00000010
T1INSYNC                          00000002
T1OSCEN                           00000003
T2CKPS0                           00000000
T2CKPS1                           00000001
T2CON                             00000012
TEMP                              0000003A
TEMP#0                            0000003A
TEMP#1                            0000003B
TEMP#2                            0000003C
TMR0                              00000001
TMR1CS                            00000001
TMR1H                             0000000F
TMR1IE                            00000000
TMR1IF                            00000000
TMR1L                             0000000E
TMR1LH                            0000000F
TMR1ON                            00000000
TMR2                              00000011
TMR2IE                            00000001
TMR2IF                            00000001
TMR2ON                            00000002
TOUTPS0                           00000003
TOUTPS1                           00000004
TOUTPS2                           00000005
TOUTPS3                           00000006
TRISA                             00000085
TRISB                             00000086
TRISC                             00000087
TRMT                              00000001
TX8_9                             00000006
TX9                               00000006
TX9D                              00000000
TXD8                              00000000
TXEN                              00000005
TXIE                              00000004
TXIF                              00000004
TXREG                             00000019
TXSTA                             00000098
T_STOP                            _B#VR1,0
UA                                00000001
WCOL                              00000007
WDTE_OFF                          00003FFB
WDTE_ON                           00003FFF
WDT_OFF                           00003FFB
WDT_ON                            00003FFF
WORD_BIT                          
WORD_BYTE                         
WORD_DWORD                        
WORD_WORD                         
WORD_WREG                         
WREG_BIT                          
WREG_BYTE                         
WREG_DWORD                        
WREG_WORD                         
XTAL                              20
XT_OSC                            00003FFD
Z                                 00000002
_ADC                              5
_ADC_RES                          8
_B#VR1                            00000057
_BANKS                            2
_CORE                             14
_CWRITE_BLOCK                     0
_EEPROM                           0
_FLASH                            0
_I2C_SCL_PIN                      00000003
_I2C_SCL_PORT                     00000087
_I2C_SDA_PIN                      00000004
_I2C_SDA_PORT                     00000087
_MAXMEM                           4096
_MAXRAM                           192
_PAGES                            2
_RAM_END                          0X00C0
_SYSTEM_VARIABLE_COUNT            25
_USART                            1
_USB                              0
_X                                00000039
__16C73B                          1
__EOF                             00000CDC
__HSERIAL_BAUD                    49664
__HSERIAL_RCSTA                   144
__HSERIAL_TXSTA                   36
__LCD_DTPIN                       4
__LCD_DTPORT                      PORTB
__LCD_ENPIN                       3
__LCD_ENPORT                      PORTB
__LCD_INTERFACE                   4
__LCD_RSPIN                       2
__LCD_RSPORT                      PORTB
__XTAL                            20


MEMORY USAGE MAP ('X' = USED,  '-' = UNUSED)

0000 : XXXXXXXXXXXXXXXX XXXXXXXXXXXXXXXX XXXXXXXXXXXXXXXX XXXXXXXXXXXXXXXX
0040 : XXXXXXXXXXXXXXXX XXXXXXXXXXXXXXXX XXXXXXXXXXXXXXXX XXXXXXXXXXXXXXXX
0080 : XXXXXXXXXXXXXXXX XXXXXXXXXXXXXXXX XXXXXXXXXXXXXXXX XXXXXXXXXXXXXXXX
00C0 : XXXXXXXXXXXXXXXX XXXXXXXXXXXXXXXX XXXXXXXXXXXXXXXX XXXXXXXXXXXXXXXX
0100 : XXXXXXXXXXXXXXXX XXXXXXXXXXXXXXXX XXXXXXXXXXXXXXXX XXXXXXXXXXXXXXXX
0140 : XXXXXXXXXXXXXXXX XXXXXXXXXXXXXXXX XXXXXXXXXXXXXXXX XXXXXXXXXXXXXXXX
0180 : XXXXXXXXXXXXXXXX XXXXXXXXXXXXXXXX XXXXXXXXXXXXXXXX XXXXXXXXXXXXXXXX
01C0 : XXXXXXXXXXXXXXXX XXXXXXXXXXXXXXXX XXXXXXXXXXXXXXXX XXXXXXXXXXXXXXXX
0200 : XXXXXXXXXXXXXXXX XXXXXXXXXXXXXXXX XXXXXXXXXXXXXXXX XXXXXXXXXXXXXXXX
0240 : XXXXXXXXXXXXXXXX XXXXXXXXXXXXXXXX XXXXXXXXXXXXXXXX XXXXXXXXXXXXXXXX
0280 : XXXXXXXXXXXXXXXX XXXXXXXXXXXXXXXX XXXXXXXXXXXXXXXX XXXXXXXXXXXXXXXX
02C0 : XXXXXXXXXXXXXXXX XXXXXXXXXXXXXXXX XXXXXXXXXXXXXXXX XXXXXXXXXXXXXXXX
0300 : XXXXXXXXXXXXXXXX XXXXXXXXXXXXXXXX XXXXXXXXXXXXXXXX XXXXXXXXXXXXXXXX
0340 : XXXXXXXXXXXXXXXX XXXXXXXXXXXXXXXX XXXXXXXXXXXXXXXX XXXXXXXXXXXXXXXX
0380 : XXXXXXXXXXXXXXXX XXXXXXXXXXXXXXXX XXXXXXXXXXXXXXXX XXXXXXXXXXXXXXXX
03C0 : XXXXXXXXXXXXXXXX XXXXXXXXXXXXXXXX XXXXXXXXXXXXXXXX XXXXXXXXXXXXXXXX
0400 : XXXXXXXXXXXXXXXX XXXXXXXXXXXXXXXX XXXXXXXXXXXXXXXX XXXXXXXXXXXXXXXX
0440 : XXXXXXXXXXXXXXXX XXXXXXXXXXXXXXXX XXXXXXXXXXXXXXXX XXXXXXXXXXXXXXXX
0480 : XXXXXXXXXXXXXXXX XXXXXXXXXXXXXXXX XXXXXXXXXXXXXXXX XXXXXXXXXXXXXXXX
04C0 : XXXXXXXXXXXXXXXX XXXXXXXXXXXXXXXX XXXXXXXXXXXXXXXX XXXXXXXXXXXXXXXX
0500 : XXXXXXXXXXXXXXXX XXXXXXXXXXXXXXXX XXXXXXXXXXXXXXXX XXXXXXXXXXXXXXXX
0540 : XXXXXXXXXXXXXXXX XXXXXXXXXXXXXXXX XXXXXXXXXXXXXXXX XXXXXXXXXXXXXXXX
0580 : XXXXXXXXXXXXXXXX XXXXXXXXXXXXXXXX XXXXXXXXXXXXXXXX XXXXXXXXXXXXXXXX
05C0 : XXXXXXXXXXXXXXXX XXXXXXXXXXXXXXXX XXXXXXXXXXXXXXXX XXXXXXXXXXXXXXXX
0600 : XXXXXXXXXXXXXXXX XXXXXXXXXXXXXXXX XXXXXXXXXXXXXXXX XXXXXXXXXXXXXXXX
0640 : XXXXXXXXXXXXXXXX XXXXXXXXXXXXXXXX XXXXXXXXXXXXXXXX XXXXXXXXXXXXXXXX
0680 : XXXXXXXXXXXXXXXX XXXXXXXXXXXXXXXX XXXXXXXXXXXXXXXX XXXXXXXXXXXXXXXX
06C0 : XXXXXXXXXXXXXXXX XXXXXXXXXXXXXXXX XXXXXXXXXXXXXXXX XXXXXXXXXXXXXXXX
0700 : XXXXXXXXXXXXXXXX XXXXXXXXXXXXXXXX XXXXXXXXXXXXXXXX XXXXXXXXXXXXXXXX
0740 : XXXXXXXXXXXXXXXX XXXXXXXXXXXXXXXX XXXXXXXXXXXXXXXX XXXXXXXXXXXXXXXX
0780 : XXXXXXXXXXXXXXXX XXXXXXXXXXXXXXXX XXXXXXXXXXXXXXXX XXXXXXXXXXXXXXXX
07C0 : XXXXXXXXXXXXXXXX XXXXXXXXXXXXXXXX XXXXXXXXXXXXXXXX XXXXXXXXXXXXXXXX
0800 : XXXXXXXXXXXXXXXX XXXXXXXXXXXXXXXX XXXXXXXXXXXXXXXX XXXXXXXXXXXXXXXX
0840 : XXXXXXXXXXXXXXXX XXXXXXXXXXXXXXXX XXXXXXXXXXXXXXXX XXXXXXXXXXXXXXXX
0880 : XXXXXXXXXXXXXXXX XXXXXXXXXXXXXXXX XXXXXXXXXXXXXXXX XXXXXXXXXXXXXXXX
08C0 : XXXXXXXXXXXXXXXX XXXXXXXXXXXXXXXX XXXXXXXXXXXXXXXX XXXXXXXXXXXXXXXX
0900 : XXXXXXXXXXXXXXXX XXXXXXXXXXXXXXXX XXXXXXXXXXXXXXXX XXXXXXXXXXXXXXXX
0940 : XXXXXXXXXXXXXXXX XXXXXXXXXXXXXXXX XXXXXXXXXXXXXXXX XXXXXXXXXXXXXXXX
0980 : XXXXXXXXXXXXXXXX XXXXXXXXXXXXXXXX XXXXXXXXXXXXXXXX XXXXXXXXXXXXXXXX
09C0 : XXXXXXXXXXXXXXXX XXXXXXXXXXXXXXXX XXXXXXXXXXXXXXXX XXXXXXXXXXXXXXXX
0A00 : XXXXXXXXXXXXXXXX XXXXXXXXXXXXXXXX XXXXXXXXXXXXXXXX XXXXXXXXXXXXXXXX
0A40 : XXXXXXXXXXXXXXXX XXXXXXXXXXXXXXXX XXXXXXXXXXXXXXXX XXXXXXXXXXXXXXXX
0A80 : XXXXXXXXXXXXXXXX XXXXXXXXXXXXXXXX XXXXXXXXXXXXXXXX XXXXXXXXXXXXXXXX
0AC0 : XXXXXXXXXXXXXXXX XXXXXXXXXXXXXXXX XXXXXXXXXXXXXXXX XXXXXXXXXXXXXXXX
0B00 : XXXXXXXXXXXXXXXX XXXXXXXXXXXXXXXX XXXXXXXXXXXXXXXX XXXXXXXXXXXXXXXX
0B40 : XXXXXXXXXXXXXXXX XXXXXXXXXXXXXXXX XXXXXXXXXXXXXXXX XXXXXXXXXXXXXXXX
0B80 : XXXXXXXXXXXXXXXX XXXXXXXXXXXXXXXX XXXXXXXXXXXXXXXX XXXXXXXXXXXXXXXX
0BC0 : XXXXXXXXXXXXXXXX XXXXXXXXXXXXXXXX XXXXXXXXXXXXXXXX XXXXXXXXXXXXXXXX
0C00 : XXXXXXXXXXXXXXXX XXXXXXXXXXXXXXXX XXXXXXXXXXXXXXXX XXXXXXXXXXXXXXXX
0C40 : XXXXXXXXXXXXXXXX XXXXXXXXXXXXXXXX XXXXXXXXXXXXXXXX XXXXXXXXXXXXXXXX
0C80 : XXXXXXXXXXXXXXXX XXXXXXXXXXXXXXXX XXXXXXXXXXXXXXXX XXXXXXXXXXXXXXXX
0CC0 : XXXXXXXXXXXXXXXX XXXXXXXXXXXX---- ---------------- ----------------
2000 : -------X-------- ---------------- ---------------- ----------------

ALL OTHER MEMORY BLOCKS UNUSED.

PROGRAM MEMORY WORDS USED:  3292
PROGRAM MEMORY WORDS FREE:   804


ERRORS   :     0
WARNINGS :     0 REPORTED,  3731 SUPPRESSED
MESSAGES :     1 REPORTED,   292 SUPPRESSED


