
_GSM_init:

;WebHome.c,26 :: 		void GSM_init(){
;WebHome.c,29 :: 		UART1_Write_Text("AT\r\n");
	MOVLW      ?lstr1_WebHome+0
	MOVWF      FARG_UART1_Write_Text_uart_text+0
	CALL       _UART1_Write_Text+0
;WebHome.c,30 :: 		Delay_ms(500);
	MOVLW      13
	MOVWF      R11+0
	MOVLW      175
	MOVWF      R12+0
	MOVLW      182
	MOVWF      R13+0
L_GSM_init0:
	DECFSZ     R13+0, 1
	GOTO       L_GSM_init0
	DECFSZ     R12+0, 1
	GOTO       L_GSM_init0
	DECFSZ     R11+0, 1
	GOTO       L_GSM_init0
	NOP
;WebHome.c,31 :: 		UART1_Write_Text("ATE0\r\n");
	MOVLW      ?lstr2_WebHome+0
	MOVWF      FARG_UART1_Write_Text_uart_text+0
	CALL       _UART1_Write_Text+0
;WebHome.c,32 :: 		Delay_ms(500);
	MOVLW      13
	MOVWF      R11+0
	MOVLW      175
	MOVWF      R12+0
	MOVLW      182
	MOVWF      R13+0
L_GSM_init1:
	DECFSZ     R13+0, 1
	GOTO       L_GSM_init1
	DECFSZ     R12+0, 1
	GOTO       L_GSM_init1
	DECFSZ     R11+0, 1
	GOTO       L_GSM_init1
	NOP
;WebHome.c,33 :: 		UART1_Write_Text("AT+CGATT=1\r\n");
	MOVLW      ?lstr3_WebHome+0
	MOVWF      FARG_UART1_Write_Text_uart_text+0
	CALL       _UART1_Write_Text+0
;WebHome.c,34 :: 		Delay_ms(500);
	MOVLW      13
	MOVWF      R11+0
	MOVLW      175
	MOVWF      R12+0
	MOVLW      182
	MOVWF      R13+0
L_GSM_init2:
	DECFSZ     R13+0, 1
	GOTO       L_GSM_init2
	DECFSZ     R12+0, 1
	GOTO       L_GSM_init2
	DECFSZ     R11+0, 1
	GOTO       L_GSM_init2
	NOP
;WebHome.c,35 :: 		UART1_Write_Text("AT+SAPBR=3,1,\"CONTYPE\",\"GPRS\"\r\n");
	MOVLW      ?lstr4_WebHome+0
	MOVWF      FARG_UART1_Write_Text_uart_text+0
	CALL       _UART1_Write_Text+0
;WebHome.c,36 :: 		Delay_ms(500);
	MOVLW      13
	MOVWF      R11+0
	MOVLW      175
	MOVWF      R12+0
	MOVLW      182
	MOVWF      R13+0
L_GSM_init3:
	DECFSZ     R13+0, 1
	GOTO       L_GSM_init3
	DECFSZ     R12+0, 1
	GOTO       L_GSM_init3
	DECFSZ     R11+0, 1
	GOTO       L_GSM_init3
	NOP
;WebHome.c,37 :: 		UART1_Write_Text("AT+SAPBR=1,1\r\n");
	MOVLW      ?lstr5_WebHome+0
	MOVWF      FARG_UART1_Write_Text_uart_text+0
	CALL       _UART1_Write_Text+0
;WebHome.c,38 :: 		Delay_ms(500);
	MOVLW      13
	MOVWF      R11+0
	MOVLW      175
	MOVWF      R12+0
	MOVLW      182
	MOVWF      R13+0
L_GSM_init4:
	DECFSZ     R13+0, 1
	GOTO       L_GSM_init4
	DECFSZ     R12+0, 1
	GOTO       L_GSM_init4
	DECFSZ     R11+0, 1
	GOTO       L_GSM_init4
	NOP
;WebHome.c,39 :: 		UART1_Write_Text("AT+HTTPINIT\r\n");
	MOVLW      ?lstr6_WebHome+0
	MOVWF      FARG_UART1_Write_Text_uart_text+0
	CALL       _UART1_Write_Text+0
;WebHome.c,40 :: 		Delay_ms(500);
	MOVLW      13
	MOVWF      R11+0
	MOVLW      175
	MOVWF      R12+0
	MOVLW      182
	MOVWF      R13+0
L_GSM_init5:
	DECFSZ     R13+0, 1
	GOTO       L_GSM_init5
	DECFSZ     R12+0, 1
	GOTO       L_GSM_init5
	DECFSZ     R11+0, 1
	GOTO       L_GSM_init5
	NOP
;WebHome.c,41 :: 		}
L_end_GSM_init:
	RETURN
; end of _GSM_init

_interrupt:
	MOVWF      R15+0
	SWAPF      STATUS+0, 0
	CLRF       STATUS+0
	MOVWF      ___saveSTATUS+0
	MOVF       PCLATH+0, 0
	MOVWF      ___savePCLATH+0
	CLRF       PCLATH+0

;WebHome.c,43 :: 		void interrupt () {
;WebHome.c,44 :: 		if (PIR1.RCIF) {
	BTFSS      PIR1+0, 5
	GOTO       L_interrupt6
;WebHome.c,45 :: 		rxd = 0;
	CLRF       _rxd+0
;WebHome.c,46 :: 		rxd = Uart1_Read();
	CALL       _UART1_Read+0
	MOVF       R0+0, 0
	MOVWF      _rxd+0
;WebHome.c,47 :: 		flag = 1;
	BSF        _flag+0, BitPos(_flag+0)
;WebHome.c,49 :: 		}
L_interrupt6:
;WebHome.c,50 :: 		}
L_end_interrupt:
L__interrupt12:
	MOVF       ___savePCLATH+0, 0
	MOVWF      PCLATH+0
	SWAPF      ___saveSTATUS+0, 0
	MOVWF      STATUS+0
	SWAPF      R15+0, 1
	SWAPF      R15+0, 0
	RETFIE
; end of _interrupt

_read_server:

;WebHome.c,52 :: 		void read_server(){
;WebHome.c,53 :: 		if(flag == 1){
	BTFSS      _flag+0, BitPos(_flag+0)
	GOTO       L_read_server7
;WebHome.c,55 :: 		flag = 0;
	BCF        _flag+0, BitPos(_flag+0)
;WebHome.c,56 :: 		}
L_read_server7:
;WebHome.c,57 :: 		}
L_end_read_server:
	RETURN
; end of _read_server

_write_server:

;WebHome.c,59 :: 		void write_server(){
;WebHome.c,60 :: 		UART1_Write_Text("AT+HTTPPARA=\"URL\",\"http://eeefinalyear.net16.net/connect.php?g_value=");
	MOVLW      ?lstr7_WebHome+0
	MOVWF      FARG_UART1_Write_Text_uart_text+0
	CALL       _UART1_Write_Text+0
;WebHome.c,61 :: 		UART1_Write(g_value);
	MOVF       _g_value+0, 0
	MOVWF      FARG_UART1_Write_data_+0
	CALL       _UART1_Write+0
;WebHome.c,62 :: 		UART1_Write_Text("&v_value=");
	MOVLW      ?lstr8_WebHome+0
	MOVWF      FARG_UART1_Write_Text_uart_text+0
	CALL       _UART1_Write_Text+0
;WebHome.c,63 :: 		UART1_Write(v_value);
	MOVF       _v_value+0, 0
	MOVWF      FARG_UART1_Write_data_+0
	CALL       _UART1_Write+0
;WebHome.c,64 :: 		UART1_Write_Text("&s_value=");
	MOVLW      ?lstr9_WebHome+0
	MOVWF      FARG_UART1_Write_Text_uart_text+0
	CALL       _UART1_Write_Text+0
;WebHome.c,65 :: 		UART1_Write(s_value);
	MOVF       _s_value+0, 0
	MOVWF      FARG_UART1_Write_data_+0
	CALL       _UART1_Write+0
;WebHome.c,66 :: 		UART1_Write_Text("\"\r\n");
	MOVLW      ?lstr10_WebHome+0
	MOVWF      FARG_UART1_Write_Text_uart_text+0
	CALL       _UART1_Write_Text+0
;WebHome.c,67 :: 		}
L_end_write_server:
	RETURN
; end of _write_server

_main:

;WebHome.c,69 :: 		void main() {
;WebHome.c,70 :: 		TRISC = 0b10000011;
	MOVLW      131
	MOVWF      TRISC+0
;WebHome.c,71 :: 		PORTC = 0xFF;
	MOVLW      255
	MOVWF      PORTC+0
;WebHome.c,72 :: 		lcd_init();
	CALL       _Lcd_Init+0
;WebHome.c,73 :: 		uart1_init(9600);
	MOVLW      129
	MOVWF      SPBRG+0
	BSF        TXSTA+0, 2
	CALL       _UART1_Init+0
;WebHome.c,74 :: 		lcd_cmd(_lcd_cursor_off);
	MOVLW      12
	MOVWF      FARG_Lcd_Cmd_out_char+0
	CALL       _Lcd_Cmd+0
;WebHome.c,75 :: 		lcd_cmd(_lcd_clear);
	MOVLW      1
	MOVWF      FARG_Lcd_Cmd_out_char+0
	CALL       _Lcd_Cmd+0
;WebHome.c,76 :: 		lcd_out(1,1,"please wait..");
	MOVLW      1
	MOVWF      FARG_Lcd_Out_row+0
	MOVLW      1
	MOVWF      FARG_Lcd_Out_column+0
	MOVLW      ?lstr11_WebHome+0
	MOVWF      FARG_Lcd_Out_text+0
	CALL       _Lcd_Out+0
;WebHome.c,77 :: 		GSM_init();
	CALL       _GSM_init+0
;WebHome.c,78 :: 		lcd_out(1,1,"System OK.");
	MOVLW      1
	MOVWF      FARG_Lcd_Out_row+0
	MOVLW      1
	MOVWF      FARG_Lcd_Out_column+0
	MOVLW      ?lstr12_WebHome+0
	MOVWF      FARG_Lcd_Out_text+0
	CALL       _Lcd_Out+0
;WebHome.c,79 :: 		lcd_cmd(_lcd_clear);
	MOVLW      1
	MOVWF      FARG_Lcd_Cmd_out_char+0
	CALL       _Lcd_Cmd+0
;WebHome.c,80 :: 		write_server();
	CALL       _write_server+0
;WebHome.c,82 :: 		while(1){
L_main8:
;WebHome.c,84 :: 		}
	GOTO       L_main8
;WebHome.c,85 :: 		}
L_end_main:
	GOTO       $+0
; end of _main
