MPASM  5.42                               A.S   8-22-2015  12:07:00         PAGE  1


LOC  OBJECT CODE     LINE SOURCE TEXT
  VALUE


                      00002         list
                      00003 ;{
                      00004 ;FILE F1 = E:\ELECTRONICS\S TECH BD\PROJECTS\7 TIME KEEPER\7TIMER HC154.BAS
                      00005 ;FILE F2 = E:\ELECTRONICS\S TECH BD\PROJECTS\7 TIME KEEPER\7TIMER HC154.PRP
                      00006 ;}
                      00007 ;[Variable Listing]
                      00008 ;digit_s,002B,DT_BYTE,1
                      00009 ;seg,002C,DT_BYTE,1
                      00010 ;adrs,002D,DT_BYTE,1
                      00011 ;wrt,002E,DT_BYTE,29
                      00012 ;delay,004B,DT_BYTE,1
                      00013 ;I,004C,DT_BYTE,1
                      00014 ;hh11,004D,DT_BYTE,1
                      00015 ;hh12,004E,DT_BYTE,1
                      00016 ;hh21,004F,DT_BYTE,1
                      00017 ;hh22,0050,DT_BYTE,1
                      00018 ;hh31,0051,DT_BYTE,1
                      00019 ;hh32,0052,DT_BYTE,1
                      00020 ;hh41,0053,DT_BYTE,1
                      00021 ;hh42,0054,DT_BYTE,1
                      00022 ;hh51,0055,DT_BYTE,1
                      00023 ;hh52,0056,DT_BYTE,1
                      00024 ;hh61,0057,DT_BYTE,1
                      00025 ;hh62,0058,DT_BYTE,1
                      00026 ;hh71,0059,DT_BYTE,1
                      00027 ;hh72,005A,DT_BYTE,1
                      00028 ;mm11,005B,DT_BYTE,1
                      00029 ;mm12,005C,DT_BYTE,1
                      00030 ;mm21,005D,DT_BYTE,1
                      00031 ;mm22,005E,DT_BYTE,1
                      00032 ;mm31,005F,DT_BYTE,1
                      00033 ;mm32,0060,DT_BYTE,1
                      00034 ;mm41,0061,DT_BYTE,1
                      00035 ;mm42,0062,DT_BYTE,1
                      00036 ;mm51,0063,DT_BYTE,1
                      00037 ;mm52,0064,DT_BYTE,1
                      00038 ;mm61,0065,DT_BYTE,1
                      00039 ;mm62,0066,DT_BYTE,1
                      00040 ;mm71,0067,DT_BYTE,1
                      00041 ;mm72,0068,DT_BYTE,1
                      00042 ;dta,0006,DT_BYTE,1
                      00043 ;digit1,0007,DT_BYTE,1
                      00044 ;digit2,0005,DT_BYTE,1
                      00045 ;setup,0007.4,DT_BIT
                      00046 ;nxt,0007.5,DT_BIT
                      00047 ;up,0007.6,DT_BIT
                      00048 ;down,0007.7,DT_BIT
                      00049 ;[End Listing]
                      00050 ;[TOTAL VARS] 73

MESSAGE[308]: WARNING LEVEL SUPERSEDED BY COMMAND LINE VALUE. (2)
                      00052  LIST  P = 16F876, F = INHX8M, W = 2, X = ON, R = DEC, MM = ON, N = 0, C = 255
  00000000            00053 INDF equ 0X0000
  00000001            00054 TMR0 equ 0X0001
  00000002            00055 PCL equ 0X0002
  00000003            00056 STATUS equ 0X0003
  00000004            00057 FSR equ 0X0004
  00000005            00058 PORTA equ 0X0005
  00000006            00059 PORTB equ 0X0006
  00000007            00060 PORTC equ 0X0007
  0000000A            00061 PCLATH equ 0X000A
  0000000B            00062 INTCON equ 0X000B
  0000000C            00063 PIR1 equ 0X000C
  0000000D            00064 PIR2 equ 0X000D
  0000000E            00065 TMR1L equ 0X000E
  0000000F            00066 TMR1LH equ 0X000F
  0000000F            00067 TMR1H equ 0X000F
  00000010            00068 T1CON equ 0X0010
  00000011            00069 TMR2 equ 0X0011
  00000012            00070 T2CON equ 0X0012
  00000013            00071 SSPBUF equ 0X0013
  00000014            00072 SSPCON equ 0X0014
  00000015            00073 CCPR1L equ 0X0015
  00000016            00074 CCPR1LH equ 0X0016
  00000016            00075 CCPR1H equ 0X0016
  00000017            00076 CCP1CON equ 0X0017
  00000018            00077 RCSTA equ 0X0018
  00000019            00078 TXREG equ 0X0019
  0000001A            00079 RCREG equ 0X001A
  0000001B            00080 CCPR2L equ 0X001B
  0000001C            00081 CCPR2LH equ 0X001C
  0000001C            00082 CCPR2H equ 0X001C
  0000001D            00083 CCP2CON equ 0X001D
  0000001E            00084 ADRESLH equ 0X001E
  0000001E            00085 ADRESH equ 0X001E
  0000001F            00086 ADCON0 equ 0X001F
  00000081            00087 OPTION_REG equ 0X0081
  00000085            00088 TRISA equ 0X0085
  00000086            00089 TRISB equ 0X0086
  00000087            00090 TRISC equ 0X0087
  0000008C            00091 PIE1 equ 0X008C
  0000008D            00092 PIE2 equ 0X008D
  0000008E            00093 PCON equ 0X008E
  00000091            00094 SSPCON2 equ 0X0091
  00000092            00095 PR2 equ 0X0092
  00000093            00096 SSPADD equ 0X0093
  00000094            00097 SSPSTAT equ 0X0094
  00000098            00098 TXSTA equ 0X0098
  00000099            00099 SPBRG equ 0X0099
  0000009E            00100 ADRESL equ 0X009E
  0000009F            00101 ADCON1 equ 0X009F
  0000010C            00102 EEDATL equ 0X010C
  0000010C            00103 EEDATA equ 0X010C
  0000010C            00104 EEDAT equ 0X010C
  0000010D            00105 EEADR equ 0X010D
  0000010E            00106 EEDATLH equ 0X010E
  0000010E            00107 EEDATH equ 0X010E
  0000010F            00108 EEADRH equ 0X010F
  0000018C            00109 EECON1 equ 0X018C
  0000018D            00110 EECON2 equ 0X018D
  00000087            00111 _I2C_SCL_PORT=TRISC
  00000003            00112 _I2C_SCL_PIN=3
  00000087            00113 _I2C_SDA_PORT=TRISC
  00000004            00114 _I2C_SDA_PIN=4
  00000007            00115 IRP=7
  00000006            00116 RP1=6
  00000005            00117 RP0=5
  00000004            00118 NOT_TO=4
  00000003            00119 NOT_PD=3
  00000002            00120 Z=2
  00000001            00121 DC=1
  00000000            00122 C=0
  00000007            00123 GIE=7
  00000006            00124 PEIE=6
  00000005            00125 T0IE=5
  00000004            00126 INTE=4
  00000003            00127 RBIE=3
  00000002            00128 T0IF=2
  00000001            00129 INTF=1
  00000000            00130 RBIF=0
  00000006            00131 ADIF=6
  00000005            00132 RCIF=5
  00000005            00133 PP_RCIF=5
  00000004            00134 TXIF=4
  00000004            00135 PP_TXIF=4
  00000003            00136 SSPIF=3
  00000002            00137 CCP1IF=2
  00000001            00138 TMR2IF=1
  00000000            00139 TMR1IF=0
  00000004            00140 EEIF=4
  00000003            00141 BCLIF=3
  00000000            00142 CCP2IF=0
  00000005            00143 T1CKPS1=5
  00000004            00144 T1CKPS0=4
  00000003            00145 T1OSCEN=3
  00000002            00146 NOT_T1SYNC=2
  00000002            00147 T1INSYNC=2
  00000002            00148 T1SYNC=2
  00000001            00149 TMR1CS=1
  00000000            00150 TMR1ON=0
  00000006            00151 TOUTPS3=6
  00000005            00152 TOUTPS2=5
  00000004            00153 TOUTPS1=4
  00000003            00154 TOUTPS0=3
  00000002            00155 TMR2ON=2
  00000002            00156 PP_TMR2ON=2
  00000001            00157 T2CKPS1=1
  00000001            00158 PP_T2CKPS1=1
  00000000            00159 T2CKPS0=0
  00000000            00160 PP_T2CKPS0=0
  00000007            00161 WCOL=7
  00000006            00162 SSPOV=6
  00000005            00163 SSPEN=5
  00000004            00164 CKP=4
  00000003            00165 SSPM3=3
  00000002            00166 SSPM2=2
  00000001            00167 SSPM1=1
  00000000            00168 SSPM0=0
  00000005            00169 CCP1X=5
  00000004            00170 CCP1Y=4
  00000003            00171 CCP1M3=3
  00000002            00172 CCP1M2=2
  00000001            00173 CCP1M1=1
  00000000            00174 CCP1M0=0
  00000007            00175 SPEN=7
  00000006            00176 RX9=6
  00000006            00177 RC9=6
  00000006            00178 NOT_RC8=6
  00000006            00179 RC8_9=6
  00000005            00180 SREN=5
  00000004            00181 CREN=4
  00000004            00182 PP_CREN=4
  00000003            00183 ADDEN=3
  00000002            00184 FERR=2
  00000001            00185 OERR=1
  00000001            00186 PP_OERR=1
  00000000            00187 RX9D=0
  00000000            00188 RCD8=0
  00000005            00189 CCP2X=5
  00000004            00190 CCP2Y=4
  00000003            00191 CCP2M3=3
  00000002            00192 CCP2M2=2
  00000001            00193 CCP2M1=1
  00000000            00194 CCP2M0=0
  00000007            00195 ADCS1=7
  00000006            00196 ADCS0=6
  00000005            00197 CHS2=5
  00000004            00198 CHS1=4
  00000003            00199 CHS0=3
  00000002            00200 GO=2
  00000002            00201 NOT_DONE=2
  00000002            00202 GO_DONE=2
  00000002            00203 PP_GO_DONE=2
  00000000            00204 ADON=0
  00000007            00205 NOT_RBPU=7
  00000006            00206 INTEDG=6
  00000005            00207 T0CS=5
  00000004            00208 T0SE=4
  00000003            00209 PSA=3
  00000002            00210 PS2=2
  00000001            00211 PS1=1
  00000000            00212 PS0=0
  00000006            00213 ADIE=6
  00000005            00214 RCIE=5
  00000004            00215 TXIE=4
  00000003            00216 SSPIE=3
  00000002            00217 CCP1IE=2
  00000001            00218 TMR2IE=1
  00000000            00219 TMR1IE=0
  00000004            00220 EEIE=4
  00000003            00221 BCLIE=3
  00000000            00222 CCP2IE=0
  00000001            00223 NOT_POR=1
  00000000            00224 NOT_BO=0
  00000000            00225 NOT_BOR=0
  00000007            00226 GCEN=7
  00000006            00227 ACKSTAT=6
  00000006            00228 PP_ACKSTAT=6
  00000005            00229 ACKDT=5
  00000005            00230 PP_ACKDT=5
  00000004            00231 ACKEN=4
  00000004            00232 PP_ACKEN=4
  00000003            00233 RCEN=3
  00000003            00234 PP_RCEN=3
  00000002            00235 PEN=2
  00000002            00236 PP_PEN=2
  00000001            00237 RSEN=1
  00000001            00238 PP_RSEN=1
  00000000            00239 SEN=0
  00000000            00240 PP_SEN=0
  00000007            00241 SMP=7
  00000006            00242 CKE=6
  00000005            00243 I2C_DATA=5
  00000005            00244 NOT_A=5
  00000005            00245 NOT_ADDRESS=5
  00000005            00246 D_A=5
  00000005            00247 DATA_ADDRESS=5
  00000004            00248 I2C_STOP=4
  00000003            00249 I2C_START=3
  00000002            00250 I2C_READ=2
  00000002            00251 NOT_W=2
  00000002            00252 NOT_WRITE=2
  00000002            00253 R_W=2
  00000002            00254 PP_R_W=2
  00000002            00255 READ_WRITE=2
  00000001            00256 UA=1
  00000000            00257 BF=0
  00000000            00258 PP_BF=0
  00000007            00259 CSRC=7
  00000006            00260 TX9=6
  00000006            00261 NOT_TX8=6
  00000006            00262 TX8_9=6
  00000005            00263 TXEN=5
  00000004            00264 SYNC=4
  00000002            00265 BRGH=2
  00000001            00266 TRMT=1
  00000000            00267 TX9D=0
  00000000            00268 TXD8=0
  00000007            00269 ADFM=7
  00000003            00270 PCFG3=3
  00000002            00271 PCFG2=2
  00000001            00272 PCFG1=1
  00000000            00273 PCFG0=0
  00000007            00274 EEPGD=7
  00000007            00275 PP_EEPGD=7
  00000003            00276 WRERR=3
  00000003            00277 PP_WRERR=3
  00000002            00278 WREN=2
  00000002            00279 PP_WREN=2
  00000001            00280 WR=1
  00000001            00281 PP_WR=1
  00000000            00282 RD=0
  00000000            00283 PP_RD=0
  000001FF            00284   __MAXRAM 0X1FF
                      00285   __BADRAM 0X08-0X09
                      00286   __BADRAM 0X88-0X89, 0X8F-0X90, 0X95-0X97, 0X9A-0X9D
                      00287   __BADRAM 0X105, 0X107-0X109
                      00288   __BADRAM 0X185, 0X187-0X189, 0X18E-0X18F
  00000FCF            00289 CP_ALL equ 0X0FCF
  00001FDF            00290 CP_HALF equ 0X1FDF
  00002FEF            00291 CP_UPPER_256 equ 0X2FEF
  00003FFF            00292 CP_OFF equ 0X3FFF
  000037FF            00293 DEBUG_ON equ 0X37FF
  00003FFF            00294 DEBUG_OFF equ 0X3FFF
  00003FFF            00295 WRTE_ON equ 0X3FFF
  00003FFF            00296 WRT_ENABLE_ON equ 0X3FFF
  00003DFF            00297 WRTE_OFF equ 0X3DFF
  00003DFF            00298 WRT_ENABLE_OFF equ 0X3DFF
  00003EFF            00299 CPD_ON equ 0X3EFF
  00003FFF            00300 CPD_OFF equ 0X3FFF
  00003FFF            00301 LVP_ON equ 0X3FFF
  00003F7F            00302 LVP_OFF equ 0X3F7F
  00003FFF            00303 BODEN_ON equ 0X3FFF
  00003FBF            00304 BODEN_OFF equ 0X3FBF
  00003FFF            00305 PWRTE_OFF equ 0X3FFF
  00003FF7            00306 PWRTE_ON equ 0X3FF7
  00003FFF            00307 WDT_ON equ 0X3FFF
  00003FFB            00308 WDT_OFF equ 0X3FFB
  00003FFC            00309 LP_OSC equ 0X3FFC
  00003FFD            00310 XT_OSC equ 0X3FFD
  00003FFE            00311 HS_OSC equ 0X3FFE
  00003FFF            00312 RC_OSC equ 0X3FFF
  00003FBF            00313 BOREN_OFF equ 0X3FBF
  00003FFF            00314 BOREN_ON equ 0X3FFF
  00003FFF            00315 FOSC_EXTRC equ 0X3FFF
  00003FFE            00316 FOSC_HS equ 0X3FFE
  00003FFC            00317 FOSC_LP equ 0X3FFC
  00003FFD            00318 FOSC_XT equ 0X3FFD
  00003FFB            00319 WDTE_OFF equ 0X3FFB
  00003FFF            00320 WDTE_ON equ 0X3FFF
  00003DFF            00321 WRT_OFF equ 0X3DFF
  00003FFF            00322 WRT_ON equ 0X3FFF

                      00326 #define __16F876 1
                      00327 #define XTAL 20
                      00328 #define _CORE 14
                      00329 #define _MAXRAM 368
                      00330 #define _RAM_END 0X0170
                      00331 #define _MAXMEM 8192
                      00332 #define _ADC 5
                      00333 #define _ADC_RES 10
                      00334 #define _EEPROM 256
                      00335 #define _PAGES 4
                      00336 #define _BANKS 3
                      00337 #define RAM_BANKS 4
                      00338 #define _USART 1
                      00339 #define _USB 0
                      00340 #define _FLASH 1
                      00341 #define _CWRITE_BLOCK 1
                      00342 #define BANK0_START 0X20
                      00343 #define BANK0_END 0X7F
                      00344 #define BANK1_START 0X00A0
                      00345 #define BANK1_END 0X00EF
                      00346 #define BANK2_START 0X0110
                      00347 #define BANK2_END 0X016F
                      00348 #define BANK3_START 0X0190
                      00349 #define BANK3_END 0X01EF
                      00350 #define _SYSTEM_VARIABLE_COUNT 11
  00000000            00351 ram_bank = 0
  00000000            00352 CURRENT@PAGE = 0
  00000000            00353 DEST@PAGE = 0
                      00354 #define LCD#TYPE 0
                      00356 f@call macro PDEST
                      00357 if(PDEST < 1)
                      00358 if((PDEST & 2048) == 0)
                      00359         bcf 10,3
                      00360 else
                      00361         bsf 10,3
                      00362 endif
                      00363 if((PDEST & 4096) == 0)
                      00364         bcf 10,4
                      00365 else
                      00366         bsf 10,4
                      00367 endif
                      00368 else
                      00369 if(PDEST > $)
                      00370 if((PDEST & 2048) == 0)
                      00371         bcf 10,3
                      00372 else
                      00373         bsf 10,3
                      00374 endif
                      00375 if((PDEST & 4096) == 0)
                      00376         bcf 10,4
                      00377 else
                      00378         bsf 10,4
                      00379 endif
                      00380 else
                      00381 if((PDEST & 6144) == 0)
                      00382         clrf 10
                      00383 else
                      00384 if((PDEST & 2048) == 0)
                      00385         bcf 10,3
                      00386 else
                      00387         bsf 10,3
                      00388 endif
                      00389 if((PDEST & 4096) == 0)
                      00390         bcf 10,4
                      00391 else
                      00392         bsf 10,4
                      00393 endif
                      00394 endif
                      00395 endif
                      00396 endif
                      00397         call PDEST
                      00398         endm
                      00399 F@JUMP macro PDEST
                      00400 if(PDEST < 1)
                      00401 if((PDEST & 2048) == 0)
                      00402         bcf 10,3
                      00403 else
                      00404         bsf 10,3
                      00405 endif
                      00406 if((PDEST & 4096) == 0)
                      00407         bcf 10,4
                      00408 else
                      00409         bsf 10,4
                      00410 endif
                      00411 else
                      00412 if(PDEST > $)
                      00413 if((PDEST & 2048) == 0)
                      00414         bcf 10,3
                      00415 else
                      00416         bsf 10,3
                      00417 endif
                      00418 if((PDEST & 4096) == 0)
                      00419         bcf 10,4
                      00420 else
                      00421         bsf 10,4
                      00422 endif
                      00423 else
                      00424 if((PDEST & 6144) == 0)
                      00425         clrf 10
                      00426 else
                      00427 if((PDEST & 2048) == 0)
                      00428         bcf 10,3
                      00429 else
                      00430         bsf 10,3
                      00431 endif
                      00432 if((PDEST & 4096) == 0)
                      00433         bcf 10,4
                      00434 else
                      00435         bsf 10,4
                      00436 endif
                      00437 endif
                      00438 endif
                      00439 endif
                      00440         goto PDEST
                      00441         endm
                      00442 set@page macro PDEST
                      00443 if((PDEST & 2048) == 0)
                      00444         bcf 10,3
                      00445 else
                      00446         bsf 10,3
                      00447 endif
                      00448 if((PDEST & 4096) == 0)
                      00449         bcf 10,4
                      00450 else
                      00451         bsf 10,4
                      00452 endif
                      00453         endm
                      00454 s@b     macro pVarin
                      00455 if((pVarin & 384) == 0)
                      00456 if(ram_bank == 1)
                      00457         bcf 3,5
                      00458 endif
                      00459 if(ram_bank == 2)
                      00460         bcf 3,6
                      00461 endif
                      00462 if(ram_bank == 3)
                      00463         bcf 3,5
                      00464         bcf 3,6
                      00465 endif
                      00466 ram_bank = 0
                      00467 endif
                      00468 if((pVarin & 384) == 128)
                      00469 if(ram_bank == 0)
                      00470         bsf 3,5
                      00471 endif
                      00472 if(ram_bank == 2)
                      00473         bsf 3,5
                      00474         bcf 3,6
                      00475 endif
                      00476 if(ram_bank == 3)
                      00477         bcf 3,6
                      00478 endif
                      00479 ram_bank = 1
                      00480 endif
                      00481 if((pVarin & 384) == 256)
                      00482 if(ram_bank == 0)
                      00483         bsf 3,6
                      00484 endif
                      00485 if(ram_bank == 1)
                      00486         bcf 3,5
                      00487         bsf 3,6
                      00488 endif
                      00489 if(ram_bank == 3)
                      00490         bcf 3,5
                      00491 endif
                      00492 ram_bank = 2
                      00493 endif
                      00494 if((pVarin & 384) == 384)
                      00495 if(ram_bank == 0)
                      00496         bsf 3,5
                      00497         bsf 3,6
                      00498 endif
                      00499 if(ram_bank == 1)
                      00500         bsf 3,6
                      00501 endif
                      00502 if(ram_bank == 2)
                      00503         bsf 3,5
                      00504 endif
                      00505 ram_bank = 3
                      00506 endif
                      00507         endm
                      00508 r@b     macro
                      00509 if((ram_bank & 1) != 0)
                      00510         bcf 3,5
                      00511 endif
                      00512 if((ram_bank & 2) != 0)
                      00513         bcf 3,6
                      00514 endif
                      00515 ram_bank = 0
                      00516         endm
                      00517 jump macro PLABEL
                      00518     goto PLABEL
                      00519     endm
                      00520 wreg_byte macro pByteOut
                      00521     s@b pByteOut
                      00522     movwf pByteOut
                      00523     r@b
                      00524     endm
                      00525 wreg_bit macro pVarOut,pBitout
                      00526     s@b pVarOut
                      00527     andlw 1
                      00528     btfsc STATUS,2
                      00529     bcf pVarOut,pBitout
                      00530     btfss STATUS,2
                      00531     bsf pVarOut,pBitout
                      00532     r@b
                      00533     endm
                      00534 wreg_word macro pWordOut
                      00535     s@b pWordOut
                      00536     movwf pWordOut
                      00537     s@b pWordOut+1
                      00538     clrf pWordOut+1
                      00539     r@b
                      00540     endm
                      00541 wreg_dword macro pDwordOut
                      00542     s@b pDwordOut+3
                      00543     clrf pDwordOut+3
                      00544     s@b pDwordOut+2
                      00545     clrf pDwordOut+2
                      00546     s@b pDwordOut+1
                      00547     clrf pDwordOut+1
                      00548     s@b pDwordOut
                      00549     movwf pDwordOut
                      00550     r@b
                      00551     endm
                      00552 byte_wreg macro pByteIn
                      00553     s@b pByteIn
                      00554     movf pByteIn,W
                      00555     r@b
                      00556     endm
                      00557 num_wreg macro pNumIn
                      00558     movlw (pNumIn & 255)
                      00559     endm
                      00560 num_byte macro pNumIn,pByteOut
                      00561     s@b pByteOut
                      00562 if(pNumIn == 0)
                      00563     clrf pByteOut
                      00564 else
                      00565     movlw (pNumIn & 255)
                      00566     movwf pByteOut
                      00567 endif
                      00568     r@b
                      00569     endm
                      00570 num_bit macro pNumIn,pVarOut,pBitout
                      00571     s@b pVarOut
                      00572 if((pNumIn & 1) == 1)
                      00573     bsf pVarOut,pBitout
                      00574 else
                      00575     bcf pVarOut,pBitout
                      00576 endif
                      00577     r@b
                      00578     endm
                      00579 num_word macro pNumIn,pWordOut
                      00580 if((pNumIn & 255) == 0)
                      00581     s@b pWordOut
                      00582     clrf pWordOut
                      00583 else
                      00584     s@b pWordOut
                      00585     movlw low (pNumIn)
                      00586     movwf pWordOut
                      00587 endif
                      00588 if(((pNumIn >> 8) & 255) == 0)
                      00589     s@b pWordOut+1
                      00590     clrf pWordOut+1
                      00591 else
                      00592     s@b pWordOut+1
                      00593     movlw high (pNumIn)
                      00594     movwf pWordOut+1
                      00595 endif
                      00596     r@b
                      00597     endm
                      00598 num_dword macro pNumIn,pDwordOut
                      00599 if ((pNumIn >> 24 & 255) == 0)
                      00600     s@b pDwordOut+3
                      00601     clrf pDwordOut+3
                      00602 else
                      00603     s@b pDwordOut+3
                      00604     movlw ((pNumIn >> 24) & 255)
                      00605     movwf pDwordOut+3
                      00606 endif
                      00607 if( ((pNumIn >> 16) & 255) == 0)
                      00608     s@b pDwordOut+2
                      00609     clrf pDwordOut+2
                      00610 else
                      00611     s@b pDwordOut+2
                      00612     movlw ((pNumIn >> 16) & 255)
                      00613     movwf pDwordOut+2
                      00614 endif
                      00615 if( ((pNumIn >> 8) & 255) == 0)
                      00616     s@b pDwordOut+1
                      00617     clrf pDwordOut+1
                      00618 else
                      00619     s@b pDwordOut+1
                      00620     movlw high (pNumIn)
                      00621     movwf pDwordOut+1
                      00622 endif
                      00623 if((pNumIn & 255) == 0)
                      00624     s@b pDwordOut
                      00625     clrf pDwordOut
                      00626 else
                      00627     s@b pDwordOut
                      00628     movlw low (pNumIn)
                      00629     movwf pDwordOut
                      00630 endif
                      00631     r@b
                      00632     endm
                      00633 bit_wreg macro pVarin,pBitIn
                      00634     s@b pVarin
                      00635     clrw
                      00636     btfsc pVarin,pBitIn
                      00637     movlw 1
                      00638     r@b
                      00639     endm
                      00640 bit_byte macro pVarin,pBitIn,pByteOut
                      00641     s@b pVarin
                      00642     clrw
                      00643     btfsc pVarin,pBitIn
                      00644     movlw 1
                      00645     s@b pByteOut
                      00646     movwf pByteOut
                      00647     r@b
                      00648     endm
                      00649 bit_bit macro pVarin,pBitIn,pVarOut,pBitout
                      00650 if((pVarin & 65408) == (pVarOut & 65408))
                      00651     s@b pVarOut
                      00652     btfsc pVarin,pBitIn
                      00653     bsf pVarOut,pBitout
                      00654     btfss pVarin,pBitIn
                      00655     bcf pVarOut,pBitout
                      00656 else
                      00657     s@b pVarin
                      00658     clrdc
                      00659     btfsc pVarin,pBitIn
                      00660     setdc
                      00661     s@b pVarOut
                      00662     skpndc
                      00663     bsf pVarOut,pBitout
                      00664     skpdc
                      00665     bcf pVarOut,pBitout
                      00666 endif
                      00667     endm
                      00668 bit_word macro pVarin,pBitIn,pWordOut
                      00669     s@b pWordOut+1
                      00670     clrf pWordOut+1
                      00671     bit_byte pVarin,pBitIn,pWordOut
                      00672     endm
                      00673 bit_dword macro pVarin,pBitIn,pDwordOut
                      00674     s@b pDwordOut+3
                      00675     clrf pDwordOut+3
                      00676     s@b pDwordOut+2
                      00677     clrf pDwordOut+2
                      00678     s@b pDwordOut+1
                      00679     clrf pDwordOut+1
                      00680     bit_byte pVarin,pBitIn,pDwordOut
                      00681     endm
                      00682 word_wreg macro pWordIn
                      00683     byte_wreg pWordIn
                      00684     endm
                      00685 word_byte macro pWordIn,pByteOut
                      00686     byte_byte pWordIn,pByteOut
                      00687     endm
                      00688 word_bit macro pWordIn,pVarOut,pBitout
                      00689     byte_bit pWordIn, pVarOut, pBitout
                      00690     endm
                      00691 word_word macro pWordIn,pWordOut
                      00692     s@b pWordIn+1
                      00693     movf pWordIn+1,W
                      00694     s@b pWordOut+1
                      00695     movwf pWordOut+1
                      00696     byte_byte pWordIn,pWordOut
                      00697     endm
                      00698 word_dword macro pWordIn,pDwordOut
                      00699     s@b pDwordOut+3
                      00700     clrf pDwordOut+3
                      00701     s@b pDwordOut+2
                      00702     clrf pDwordOut+2
                      00703     byte_byte pWordIn+1,pDwordOut+1
                      00704     byte_byte pWordIn,pDwordOut
                      00705     endm
                      00706 byte_byte macro pByteIn,pByteOut
                      00707     s@b pByteIn
                      00708     movf pByteIn,W
                      00709     s@b pByteOut
                      00710     movwf pByteOut
                      00711     r@b
                      00712     endm
                      00713 byte_word macro pByteIn,pWordOut
                      00714     s@b pWordOut+1
                      00715     clrf pWordOut+1
                      00716     byte_byte pByteIn,pWordOut
                      00717     endm
                      00718 byte_dword macro pByteIn,pDwordOut
                      00719     s@b pDwordOut+3
                      00720     clrf pDwordOut+3
                      00721     s@b pDwordOut+2
                      00722     clrf pDwordOut+2
                      00723     s@b pDwordOut+1
                      00724     clrf pDwordOut+1
                      00725     byte_byte pByteIn,pDwordOut
                      00726     endm
                      00727     byte_bit macro pByteIn,pVarOut,pBitout
                      00728 if((pByteIn & 65408) == (pVarOut & 65408))
                      00729     s@b pByteIn
                      00730     btfsc pByteIn,0
                      00731     bsf pVarOut,pBitout
                      00732     btfss pByteIn,0
                      00733     bcf pVarOut,pBitout
                      00734 else
                      00735     s@b pByteIn
                      00736     rrf pByteIn,W
                      00737     s@b pVarOut
                      00738     skpnc
                      00739     bsf pVarOut,pBitout
                      00740     skpc
                      00741     bcf pVarOut,pBitout
                      00742 endif
                      00743     r@b
                      00744     endm
                      00745 dword_wreg macro pDwordIn
                      00746     byte_wreg pDwordIn
                      00747     endm
                      00748 dword_byte macro pDwordIn,pByteOut
                      00749     byte_byte pDwordIn,pByteOut
                      00750     endm
                      00751 dword_word macro pDwordIn,pWordOut
                      00752     s@b pDwordIn+1
                      00753     movf pDwordIn+1,W
                      00754     s@b pWordOut+1
                      00755     movwf pWordOut+1
                      00756     byte_byte pDwordIn,pWordOut
                      00757     endm
                      00758 dword_dword macro pDwordIn,pDwordOut
                      00759     byte_byte pDwordIn+3,pDwordOut+3
                      00760     byte_byte pDwordIn+2,pDwordOut+2
                      00761     byte_byte pDwordIn+1,pDwordOut+1
                      00762     byte_byte pDwordIn,pDwordOut
                      00763     endm
                      00764 dword_bit macro pDwordIn,pVarOut,pBitout
                      00765     byte_bit pDwordIn,pVarOut,pBitout
                      00766     endm
  0000                00767 variable CURRENT@PAGE = 0
  0000                00768 variable PDESTINATION@PAGE = 0
                      00769 FIND@PAGE macro pLabelIn
                      00770 local CURRENT_ADDR = $
                      00771 local DEST_ADDR = pLabelIn
                      00772 if((CURRENT_ADDR >= 0X1800) && (CURRENT_ADDR <= 0X2000))
                      00773     CURRENT@PAGE = 3
                      00774 endif
                      00775 if((CURRENT_ADDR >= 0X1000) && (CURRENT_ADDR <= 0X1800))
                      00776     CURRENT@PAGE = 2
                      00777 endif
                      00778 if((CURRENT_ADDR >= 0X0800) && (CURRENT_ADDR <= 0X1000))
                      00779     CURRENT@PAGE = 1
                      00780 endif
                      00781 if((CURRENT_ADDR >= 0) && (CURRENT_ADDR <= 0X0800))
                      00782     CURRENT@PAGE = 0
                      00783 endif
                      00784 if((DEST_ADDR >= 0X1800) && (DEST_ADDR <= 0X2000))
                      00785     PDESTINATION@PAGE = 3
                      00786 endif
                      00787 if((DEST_ADDR >= 0X1000) && (DEST_ADDR <= 0X1800))
                      00788     PDESTINATION@PAGE = 2
                      00789 endif
                      00790 if((DEST_ADDR >= 0X0800) && (DEST_ADDR <= 0X1000))
                      00791     PDESTINATION@PAGE = 1
                      00792 endif
                      00793 if((DEST_ADDR >= 0) && (DEST_ADDR <= 0X0800))
                      00794     PDESTINATION@PAGE = 0
                      00795 endif
                      00796     endm
                      00797 NUM_FSR macro pNumIn
                      00798     num_byte pNumIn, FSR
                      00799 if (((pNumIn >> 8) & 255) == 1)
                      00800     bsf STATUS,7
                      00801 else
                      00802     bcf STATUS,7
                      00803 endif
                      00804     endm
                      00805 label_word macro pLabelIn,pWordOut
                      00806     movlw low (pLabelIn)
                      00807     s@b pWordOut
                      00808     movwf pWordOut
                      00809     movlw high (pLabelIn)
                      00810     s@b pWordOut
                      00811     movwf pWordOut+1
                      00812     r@b
                      00813     endm
  00000020            00816 GEN4 = 32
  00000021            00817 GEN4H = 33
  00000022            00818 PBP#VAR0 = 34
  00000023            00819 PP0 = 35
  00000024            00820 PP0H = 36
  00000025            00821 PP1 = 37
  00000026            00822 PP1H = 38
  00000027            00823 PP3 = 39
  00000028            00824 PP3H = 40
  00000029            00825 PP6 = 41
  0000002A            00826 PP6H = 42
  0000002B            00827 digit_s = 43
  0000002C            00828 seg = 44
  0000002D            00829 adrs = 45
  0000002E            00830 wrt = 46
  002E                00831 variable wrt#0=46,wrt#1=47,wrt#2=48,wrt#3=49
  0032                00832 variable wrt#4=50,wrt#5=51,wrt#6=52,wrt#7=53
  0036                00833 variable wrt#8=54,wrt#9=55,wrt#10=56,wrt#11=57
  003A                00834 variable wrt#12=58,wrt#13=59,wrt#14=60,wrt#15=61
  003E                00835 variable wrt#16=62,wrt#17=63,wrt#18=64,wrt#19=65
  0042                00836 variable wrt#20=66,wrt#21=67,wrt#22=68,wrt#23=69
  0046                00837 variable wrt#24=70,wrt#25=71,wrt#26=72,wrt#27=73
  004A                00838 variable wrt#28=74
  0000004B            00839 delay = 75
  0000004C            00840 _I = 76
  0000004D            00841 hh11 = 77
  0000004E            00842 hh12 = 78
  0000004F            00843 hh21 = 79
  00000050            00844 hh22 = 80
  00000051            00845 hh31 = 81
  00000052            00846 hh32 = 82
  00000053            00847 hh41 = 83
  00000054            00848 hh42 = 84
  00000055            00849 hh51 = 85
  00000056            00850 hh52 = 86
  00000057            00851 hh61 = 87
  00000058            00852 hh62 = 88
  00000059            00853 hh71 = 89
  0000005A            00854 hh72 = 90
  0000005B            00855 mm11 = 91
  0000005C            00856 mm12 = 92
  0000005D            00857 mm21 = 93
  0000005E            00858 mm22 = 94
  0000005F            00859 mm31 = 95
  00000060            00860 mm32 = 96
  00000061            00861 mm41 = 97
  00000062            00862 mm42 = 98
  00000063            00863 mm51 = 99
  00000064            00864 mm52 = 100
  00000065            00865 mm61 = 101
  00000066            00866 mm62 = 102
  00000067            00867 mm71 = 103
  00000068            00868 mm72 = 104
                      00869 #define dta PORTB
                      00870 #define digit1 PORTC
                      00871 #define digit2 PORTA
                      00872 #define setup PORTC,4
                      00873 #define nxt PORTC,5
                      00874 #define up PORTC,6
                      00875 #define down PORTC,7
                      00876 #define __XTAL 20
0000                  00877 proton#code#start
0000                  00878         org 0
0000   0000           00879         nop
0001   3000           00880         movlw (proton#main#start >> 8) & 255
0002   008A           00881         movwf 10
0003   283F           00882         goto proton#main#start
0004                  00883         org 4
0004                  00884 EE@RD
0004   1703           00885         bsf 3,6
0005   008D           00886         movwf 269
0006                  00887 EE@RD@W
0006   1703           00888         bsf 3,6
0007   1683           00889         bsf 3,5
0008   138C           00890         bcf 396,PP_EEPGD
0009   140C           00891         bsf 396,PP_RD
000A   1283           00892         bcf 3,5
000B   080C           00893         movf 268,W
000C   0A8D           00894         incf 269,F
000D   283B           00895         goto I@NT
000E                  00896 EE@WR
000E                  00897 EE@WR@W
000E   1703           00898         bsf 3,6
000F   008C           00899         movwf 268
0010   1683           00900         bsf 3,5
0011   018C           00901         clrf 396
0012   150C           00902         bsf 396,PP_WREN
0013   3055           00903         movlw 85
0014   008D           00904         movwf 397
0015   30AA           00905         movlw 170
0016   008D           00906         movwf 397
0017   148C           00907         bsf 396,PP_WR
0018   188C           00908         btfsc 396,PP_WR
0019   2818           00909         goto $ - 1
001A   110C           00910         bcf 396,PP_WREN
001B   1283           00911         bcf 3,5
001C   0A8D           00912         incf 269,F
001D   283B           00913         goto I@NT
001E                  00914 DL@MS
001E   01A6           00915         clrf 38
001F                  00916 DLY@W
001F   00A5           00917         movwf 37
0020                  00918 DLY@P
0020   30FF           00919         movlw 255
0021   07A5           00920         addwf 37,F
0022   1C03           00921         skpc
0023   07A6           00922         addwf 38,F
0024   1C03           00923         skpc
0025   283B           00924         goto I@NT
0026   3003           00925         movlw 3
0027   00A4           00926         movwf 36
0028   30E6           00927         movlw 230
0029   202C           00928         call DLUS@W
002A   2820           00929         goto DLY@P
002B                  00930 DL@US
002B   01A4           00931         clrf 36
002C                  00932 DLUS@W
002C   3EFC           00933         addlw 252
002D   00A3           00934         movwf 35
002E   09A4           00935         comf 36,F
002F   1C03           00936         skpc
0030   2837           00937         goto $ + 7
0031   30FF           00938         movlw 255
0032   0000           00939         nop
0033   07A3           00940         addwf 35,F
0034   1803           00941         skpnc
0035   2832           00942         goto $ - 3
0036   07A3           00943         addwf 35,F
0037   0000           00944         nop
0038   0FA4           00945         incfsz 36,F
0039   2831           00946         goto $ - 8
003A   0008           00947         return
003B                  00948 I@NT
003B   1383           00949         bcf 3,7
003C                  00950 I@NT2
003C   1283           00951         bcf 3,5
003D   1303           00952         bcf 3,6
003E   0008           00953         return
003F                  00954 proton#main#start
003F   0183           00955         clrf 3

  00000040            00958 F2_SOF equ $ ; 7TIMER HC154.PRP
  00000040            00959 F2_EOF equ $ ; 7TIMER HC154.PRP
  00000040            00960 F1_SOF equ $ ; 7TIMER HC154.BAS
  00000040            00961 F1_000014 equ $ ; IN [7TIMER HC154.BAS] TRISA = 0 : TRISB = 0 : TRISC = 0
0040   1683           00962         bsf STATUS,5
  00000001            00963 ram_bank = 1
0041   0185           00964         clrf TRISA
0042   0186           00965         clrf TRISB
0043   0187           00966         clrf TRISC
  00000044            00967 F1_000015 equ $ ; IN [7TIMER HC154.BAS] PORTA = 0 : PORTB = 0 : PORTC = 0
0044   1283           00968         bcf STATUS,5
  00000000            00969 ram_bank = 0
0045   0185           00970         clrf PORTA
0046   0186           00971         clrf PORTB
0047   0187           00972         clrf PORTC
  00000048            00973 F1_000045 equ $ ; IN [7TIMER HC154.BAS] hh11 = EREAD 0 : hh12 = EREAD 1
0048   3000           00974         movlw 0
                      00975         f@call EE@RD
004B   00CD           00976         movwf hh11
004C   3001           00977         movlw 1
                      00978         f@call EE@RD
004F   00CE           00979         movwf hh12
  00000050            00980 F1_000046 equ $ ; IN [7TIMER HC154.BAS] hh21 = EREAD 2 : hh22 = EREAD 3
0050   3002           00981         movlw 2
                      00982         f@call EE@RD
0053   00CF           00983         movwf hh21
0054   3003           00984         movlw 3
                      00985         f@call EE@RD
0057   00D0           00986         movwf hh22
  00000058            00987 F1_000047 equ $ ; IN [7TIMER HC154.BAS] hh31 = EREAD 4 : hh32 = EREAD 5
0058   3004           00988         movlw 4
                      00989         f@call EE@RD
005B   00D1           00990         movwf hh31
005C   3005           00991         movlw 5
                      00992         f@call EE@RD
005F   00D2           00993         movwf hh32
  00000060            00994 F1_000048 equ $ ; IN [7TIMER HC154.BAS] hh41 = EREAD 6 : hh42 = EREAD 7
0060   3006           00995         movlw 6
                      00996         f@call EE@RD
0063   00D3           00997         movwf hh41
0064   3007           00998         movlw 7
                      00999         f@call EE@RD
0067   00D4           01000         movwf hh42
  00000068            01001 F1_000049 equ $ ; IN [7TIMER HC154.BAS] hh51 = EREAD 8 : hh52 = EREAD 9
0068   3008           01002         movlw 8
                      01003         f@call EE@RD
006B   00D5           01004         movwf hh51
006C   3009           01005         movlw 9
                      01006         f@call EE@RD
006F   00D6           01007         movwf hh52
  00000070            01008 F1_000050 equ $ ; IN [7TIMER HC154.BAS] hh61 = EREAD 10 : hh62 = EREAD 11
0070   300A           01009         movlw 10
                      01010         f@call EE@RD
0073   00D7           01011         movwf hh61
0074   300B           01012         movlw 11
                      01013         f@call EE@RD
0077   00D8           01014         movwf hh62
  00000078            01015 F1_000051 equ $ ; IN [7TIMER HC154.BAS] hh71 = EREAD 12 : hh72 = EREAD 13
0078   300C           01016         movlw 12
                      01017         f@call EE@RD
007B   00D9           01018         movwf hh71
007C   300D           01019         movlw 13
                      01020         f@call EE@RD
007F   00DA           01021         movwf hh72
  00000080            01022 F1_000052 equ $ ; IN [7TIMER HC154.BAS] mm11 = EREAD 14 : mm12 = EREAD 15
0080   300E           01023         movlw 14
                      01024         f@call EE@RD
0083   00DB           01025         movwf mm11
0084   300F           01026         movlw 15
                      01027         f@call EE@RD
0087   00DC           01028         movwf mm12
  00000088            01029 F1_000053 equ $ ; IN [7TIMER HC154.BAS] mm21 = EREAD 16 : mm22 = EREAD 17
0088   3010           01030         movlw 16
                      01031         f@call EE@RD
008B   00DD           01032         movwf mm21
008C   3011           01033         movlw 17
                      01034         f@call EE@RD
008F   00DE           01035         movwf mm22
  00000090            01036 F1_000054 equ $ ; IN [7TIMER HC154.BAS] mm31 = EREAD 18 : mm32 = EREAD 19
0090   3012           01037         movlw 18
                      01038         f@call EE@RD
0093   00DF           01039         movwf mm31
0094   3013           01040         movlw 19
                      01041         f@call EE@RD
0097   00E0           01042         movwf mm32
  00000098            01043 F1_000055 equ $ ; IN [7TIMER HC154.BAS] mm41 = EREAD 20 : mm42 = EREAD 21
0098   3014           01044         movlw 20
                      01045         f@call EE@RD
009B   00E1           01046         movwf mm41
009C   3015           01047         movlw 21
                      01048         f@call EE@RD
009F   00E2           01049         movwf mm42
  000000A0            01050 F1_000056 equ $ ; IN [7TIMER HC154.BAS] mm51 = EREAD 22 : mm52 = EREAD 23
00A0   3016           01051         movlw 22
                      01052         f@call EE@RD
00A3   00E3           01053         movwf mm51
00A4   3017           01054         movlw 23
                      01055         f@call EE@RD
00A7   00E4           01056         movwf mm52
  000000A8            01057 F1_000057 equ $ ; IN [7TIMER HC154.BAS] mm61 = EREAD 24 : mm62 = EREAD 25
00A8   3018           01058         movlw 24
                      01059         f@call EE@RD
00AB   00E5           01060         movwf mm61
00AC   3019           01061         movlw 25
                      01062         f@call EE@RD
00AF   00E6           01063         movwf mm62
  000000B0            01064 F1_000058 equ $ ; IN [7TIMER HC154.BAS] mm71 = EREAD 26 : mm72 = EREAD 27
00B0   301A           01065         movlw 26
                      01066         f@call EE@RD
00B3   00E7           01067         movwf mm71
00B4   301B           01068         movlw 27
                      01069         f@call EE@RD
00B7   00E8           01070         movwf mm72
  000000B8            01071 F1_000059 equ $ ; IN [7TIMER HC154.BAS] SELECT CASE hh11
  000000B8            01072 F1_000060 equ $ ; IN [7TIMER HC154.BAS] CASE 63,6,91,79,102,109,125,7,127,111
00B8   303F           01073         movlw 63
00B9   024D           01074         subwf hh11,W
                      01075         set@page BC@LL3
00BC   1903           01076         btfsc STATUS,2
00BD   28F4           01077         goto BC@LL3
00BE   3006           01078         movlw 6
00BF   024D           01079         subwf hh11,W
                      01080         set@page BC@LL3
00C2   1903           01081         btfsc STATUS,2
00C3   28F4           01082         goto BC@LL3
00C4   305B           01083         movlw 91
00C5   024D           01084         subwf hh11,W
                      01085         set@page BC@LL3
00C8   1903           01086         btfsc STATUS,2
00C9   28F4           01087         goto BC@LL3
00CA   304F           01088         movlw 79
00CB   024D           01089         subwf hh11,W
                      01090         set@page BC@LL3
00CE   1903           01091         btfsc STATUS,2
00CF   28F4           01092         goto BC@LL3
00D0   3066           01093         movlw 102
00D1   024D           01094         subwf hh11,W
                      01095         set@page BC@LL3
00D4   1903           01096         btfsc STATUS,2
00D5   28F4           01097         goto BC@LL3
00D6   306D           01098         movlw 109
00D7   024D           01099         subwf hh11,W
                      01100         set@page BC@LL3
00DA   1903           01101         btfsc STATUS,2
00DB   28F4           01102         goto BC@LL3
00DC   307D           01103         movlw 125
00DD   024D           01104         subwf hh11,W
                      01105         set@page BC@LL3
00E0   1903           01106         btfsc STATUS,2
00E1   28F4           01107         goto BC@LL3
00E2   3007           01108         movlw 7
00E3   024D           01109         subwf hh11,W
                      01110         set@page BC@LL3
00E6   1903           01111         btfsc STATUS,2
00E7   28F4           01112         goto BC@LL3
00E8   307F           01113         movlw 127
00E9   024D           01114         subwf hh11,W
                      01115         set@page BC@LL3
00EC   1903           01116         btfsc STATUS,2
00ED   28F4           01117         goto BC@LL3
00EE   306F           01118         movlw 111
00EF   024D           01119         subwf hh11,W
                      01120         set@page BC@LL2
00F2   1D03           01121         btfss STATUS,2
00F3   28FA           01122         goto BC@LL2
00F4                  01123 BC@LL3
  000000F4            01124 F1_000061 equ $ ; IN [7TIMER HC154.BAS] goto main
                      01125         F@JUMP main
  000000F7            01126 F1_000062 equ $ ; IN [7TIMER HC154.BAS] CASE else
                      01127         F@JUMP BC@LL5
00FA                  01128 BC@LL2
  000000FA            01129 F1_000063 equ $ ; IN [7TIMER HC154.BAS] hh11 = 0 : hh12 = 0 : mm11 = 0 : mm12 = 0
00FA   01CD           01130         clrf hh11
00FB   01CE           01131         clrf hh12
00FC   01DB           01132         clrf mm11
00FD   01DC           01133         clrf mm12
  000000FE            01134 F1_000064 equ $ ; IN [7TIMER HC154.BAS] hh21 = 0 : hh22 = 0 : mm21 = 0 : mm22 = 0
00FE   01CF           01135         clrf hh21
00FF   01D0           01136         clrf hh22
0100   01DD           01137         clrf mm21
0101   01DE           01138         clrf mm22
  00000102            01139 F1_000065 equ $ ; IN [7TIMER HC154.BAS] hh31 = 0 : hh32 = 0 : mm31 = 0 : mm32 = 0
0102   01D1           01140         clrf hh31
0103   01D2           01141         clrf hh32
0104   01DF           01142         clrf mm31
0105   01E0           01143         clrf mm32
  00000106            01144 F1_000066 equ $ ; IN [7TIMER HC154.BAS] hh41 = 0 : hh42 = 0 : mm41 = 0 : mm42 = 0
0106   01D3           01145         clrf hh41
0107   01D4           01146         clrf hh42
0108   01E1           01147         clrf mm41
0109   01E2           01148         clrf mm42
  0000010A            01149 F1_000067 equ $ ; IN [7TIMER HC154.BAS] hh51 = 0 : hh52 = 0 : mm51 = 0 : mm52 = 0
010A   01D5           01150         clrf hh51
010B   01D6           01151         clrf hh52
010C   01E3           01152         clrf mm51
010D   01E4           01153         clrf mm52
  0000010E            01154 F1_000068 equ $ ; IN [7TIMER HC154.BAS] hh61 = 0 : hh62 = 0 : mm61 = 0 : mm62 = 0
010E   01D7           01155         clrf hh61
010F   01D8           01156         clrf hh62
0110   01E5           01157         clrf mm61
0111   01E6           01158         clrf mm62
  00000112            01159 F1_000069 equ $ ; IN [7TIMER HC154.BAS] hh71 = 0 : hh72 = 0 : mm71 = 0 : mm72 = 0
0112   01D9           01160         clrf hh71
0113   01DA           01161         clrf hh72
0114   01E7           01162         clrf mm71
0115   01E8           01163         clrf mm72
  00000116            01164 F1_000070 equ $ ; IN [7TIMER HC154.BAS] ENDSELECT
0116                  01165 BC@LL5
0116                  01166 BC@LL1
0116                  01167 main
  00000116            01168 F1_000073 equ $ ; IN [7TIMER HC154.BAS] FOR I = 0 TO 28
0116   01CC           01169         clrf _I
0117                  01170 FR@LB7
0117   301D           01171         movlw 29
0118   024C           01172         subwf _I,W
                      01173         set@page NX@LB8
011B   1803           01174         btfsc STATUS,0
011C   2928           01175         goto NX@LB8
  0000011D            01176 F1_000074 equ $ ; IN [7TIMER HC154.BAS] wrt[I] = 0
011D   084C           01177         movf _I,W
011E   3E2E           01178         addlw wrt
011F   0084           01179         movwf FSR
0120   3000           01180         movlw 0
0121   0080           01181         movwf INDF
0122                  01182 CT@LB9
  00000122            01183 F1_000075 equ $ ; IN [7TIMER HC154.BAS] NEXT I
0122   3001           01184         movlw 1
0123   07CC           01185         addwf _I,F
                      01186         set@page FR@LB7
0126   1C03           01187         btfss STATUS,0
0127   2917           01188         goto FR@LB7
0128                  01189 NX@LB8
0128                  01190 start
  00000128            01191 F1_000077 equ $ ; IN [7TIMER HC154.BAS] if setup = 1 THEN goto setting1
                      01192         set@page BC@LL10
012A   1E07           01193         btfss PORTC,4
012B   292F           01194         goto BC@LL10
                      01195         F@JUMP setting1
012F                  01196 BC@LL10
  0000012F            01197 F1_000078 equ $ ; IN [7TIMER HC154.BAS] GOSUB scan
                      01198         f@call scan
  00000132            01199 F1_000079 equ $ ; IN [7TIMER HC154.BAS] goto start
                      01200         F@JUMP start
0134                  01201 setting1
  00000134            01202 F1_000082 equ $ ; IN [7TIMER HC154.BAS] wrt[1] = 1
0134   3001           01203         movlw 1
0135   00AF           01204         movwf wrt#1
  00000136            01205 F1_000083 equ $ ; IN [7TIMER HC154.BAS] if up = 1 THEN hh11 = hh11 + 1
                      01206         set@page BC@LL12
0138   1F07           01207         btfss PORTC,6
0139   293B           01208         goto BC@LL12
013A   0ACD           01209         incf hh11,F
013B                  01210 BC@LL12
  0000013B            01211 F1_000084 equ $ ; IN [7TIMER HC154.BAS] if down = 1 THEN hh11 = hh11 - 1
                      01212         set@page BC@LL14
013D   1F87           01213         btfss PORTC,7
013E   2940           01214         goto BC@LL14
013F   03CD           01215         decf hh11,F
0140                  01216 BC@LL14
  00000140            01217 F1_000085 equ $ ; IN [7TIMER HC154.BAS] if hh11 < 0 THEN hh11 = 9
                      01218         set@page BC@LL16
0142   1FCD           01219         btfss hh11,7
0143   2946           01220         goto BC@LL16
0144   3009           01221         movlw 9
0145   00CD           01222         movwf hh11
0146                  01223 BC@LL16
  00000146            01224 F1_000086 equ $ ; IN [7TIMER HC154.BAS] if hh11 = 10 THEN hh11 = 0
0146   300A           01225         movlw 10
0147   024D           01226         subwf hh11,W
                      01227         set@page BC@LL18
014A   1D03           01228         btfss STATUS,2
014B   294D           01229         goto BC@LL18
014C   01CD           01230         clrf hh11
014D                  01231 BC@LL18
  0000014D            01232 F1_000087 equ $ ; IN [7TIMER HC154.BAS] FOR delay = 0 TO 300
014D   01CB           01233         clrf delay
014E                  01234 FR@LB20
  0000014E            01235 F1_000088 equ $ ; IN [7TIMER HC154.BAS] GOSUB rescan
                      01236         f@call rescan
0151                  01237 CT@LB22
  00000151            01238 F1_000089 equ $ ; IN [7TIMER HC154.BAS] NEXT delay
0151   3001           01239         movlw 1
0152   07CB           01240         addwf delay,F
                      01241         set@page FR@LB20
0155   1C03           01242         btfss STATUS,0
0156   294E           01243         goto FR@LB20
0157                  01244 NX@LB21
  00000157            01245 F1_000090 equ $ ; IN [7TIMER HC154.BAS] EWRITE 0,[hh11]
0157   1703           01246         bsf STATUS,6
  00000002            01247 ram_bank = 2
0158   018D           01248         clrf EEADR
0159   1303           01249         bcf STATUS,6
  00000000            01250 ram_bank = 0
015A   084D           01251         movf hh11,W
                      01252         f@call EE@WR
  0000015D            01253 F1_000091 equ $ ; IN [7TIMER HC154.BAS] if nxt = 1 THEN goto setting2
                      01254         set@page BC@LL23
015F   1E87           01255         btfss PORTC,5
0160   2964           01256         goto BC@LL23
                      01257         F@JUMP setting2
0164                  01258 BC@LL23
  00000164            01259 F1_000092 equ $ ; IN [7TIMER HC154.BAS] if setup = 0 THEN goto main
                      01260         set@page BC@LL25
0166   1A07           01261         btfsc PORTC,4
0167   296A           01262         goto BC@LL25
                      01263         F@JUMP main
016A                  01264 BC@LL25
  0000016A            01265 F1_000093 equ $ ; IN [7TIMER HC154.BAS] goto setting1
                      01266         F@JUMP setting1
016C                  01267 setting2
  0000016C            01268 F1_000096 equ $ ; IN [7TIMER HC154.BAS] wrt[2] = 1
016C   3001           01269         movlw 1
016D   00B0           01270         movwf wrt#2
  0000016E            01271 F1_000097 equ $ ; IN [7TIMER HC154.BAS] if up = 1 THEN hh12 = hh12 + 1
                      01272         set@page BC@LL27
0170   1F07           01273         btfss PORTC,6
0171   2973           01274         goto BC@LL27
0172   0ACE           01275         incf hh12,F
0173                  01276 BC@LL27
  00000173            01277 F1_000098 equ $ ; IN [7TIMER HC154.BAS] if down = 1 THEN hh12 = hh12 - 1
                      01278         set@page BC@LL29
0175   1F87           01279         btfss PORTC,7
0176   2978           01280         goto BC@LL29
0177   03CE           01281         decf hh12,F
0178                  01282 BC@LL29
  00000178            01283 F1_000099 equ $ ; IN [7TIMER HC154.BAS] if hh12 < 0 THEN hh12 = 9
                      01284         set@page BC@LL31
017A   1FCE           01285         btfss hh12,7
017B   297E           01286         goto BC@LL31
017C   3009           01287         movlw 9
017D   00CE           01288         movwf hh12
017E                  01289 BC@LL31
  0000017E            01290 F1_000100 equ $ ; IN [7TIMER HC154.BAS] if hh12 = 10 THEN hh12 = 0
017E   300A           01291         movlw 10
017F   024E           01292         subwf hh12,W
                      01293         set@page BC@LL33
0182   1D03           01294         btfss STATUS,2
0183   2985           01295         goto BC@LL33
0184   01CE           01296         clrf hh12
0185                  01297 BC@LL33
  00000185            01298 F1_000101 equ $ ; IN [7TIMER HC154.BAS] FOR delay = 0 TO 270
0185   01CB           01299         clrf delay
0186                  01300 FR@LB35
  00000186            01301 F1_000102 equ $ ; IN [7TIMER HC154.BAS] GOSUB rescan
                      01302         f@call rescan
0189                  01303 CT@LB37
  00000189            01304 F1_000103 equ $ ; IN [7TIMER HC154.BAS] NEXT delay
0189   3001           01305         movlw 1
018A   07CB           01306         addwf delay,F
                      01307         set@page FR@LB35
018D   1C03           01308         btfss STATUS,0
018E   2986           01309         goto FR@LB35
018F                  01310 NX@LB36
  0000018F            01311 F1_000104 equ $ ; IN [7TIMER HC154.BAS] EWRITE 1,[hh12]
018F   3001           01312         movlw 1
0190   1703           01313         bsf STATUS,6
  00000002            01314 ram_bank = 2
0191   008D           01315         movwf EEADR
0192   1303           01316         bcf STATUS,6
  00000000            01317 ram_bank = 0
0193   084E           01318         movf hh12,W
                      01319         f@call EE@WR
  00000196            01320 F1_000105 equ $ ; IN [7TIMER HC154.BAS] if nxt = 1 THEN goto setting3
                      01321         set@page BC@LL38
0198   1E87           01322         btfss PORTC,5
0199   299D           01323         goto BC@LL38
                      01324         F@JUMP setting3
019D                  01325 BC@LL38
  0000019D            01326 F1_000106 equ $ ; IN [7TIMER HC154.BAS] if setup = 0 THEN goto main
                      01327         set@page BC@LL40
019F   1A07           01328         btfsc PORTC,4
01A0   29A3           01329         goto BC@LL40
                      01330         F@JUMP main
01A3                  01331 BC@LL40
  000001A3            01332 F1_000107 equ $ ; IN [7TIMER HC154.BAS] goto setting2
                      01333         F@JUMP setting2
01A5                  01334 setting3
  000001A5            01335 F1_000110 equ $ ; IN [7TIMER HC154.BAS] wrt[3] = 1
01A5   3001           01336         movlw 1
01A6   00B1           01337         movwf wrt#3
  000001A7            01338 F1_000111 equ $ ; IN [7TIMER HC154.BAS] if up = 1 THEN mm11 = mm11 + 1
                      01339         set@page BC@LL42
01A9   1F07           01340         btfss PORTC,6
01AA   29AC           01341         goto BC@LL42
01AB   0ADB           01342         incf mm11,F
01AC                  01343 BC@LL42
  000001AC            01344 F1_000112 equ $ ; IN [7TIMER HC154.BAS] if down = 1 THEN mm11 = mm11 - 1
                      01345         set@page BC@LL44
01AE   1F87           01346         btfss PORTC,7
01AF   29B1           01347         goto BC@LL44
01B0   03DB           01348         decf mm11,F
01B1                  01349 BC@LL44
  000001B1            01350 F1_000113 equ $ ; IN [7TIMER HC154.BAS] if mm11 < 0 THEN mm11 = 9
                      01351         set@page BC@LL46
01B3   1FDB           01352         btfss mm11,7
01B4   29B7           01353         goto BC@LL46
01B5   3009           01354         movlw 9
01B6   00DB           01355         movwf mm11
01B7                  01356 BC@LL46
  000001B7            01357 F1_000114 equ $ ; IN [7TIMER HC154.BAS] if mm11 = 10 THEN mm11 = 0
01B7   300A           01358         movlw 10
01B8   025B           01359         subwf mm11,W
                      01360         set@page BC@LL48
01BB   1D03           01361         btfss STATUS,2
01BC   29BE           01362         goto BC@LL48
01BD   01DB           01363         clrf mm11
01BE                  01364 BC@LL48
  000001BE            01365 F1_000115 equ $ ; IN [7TIMER HC154.BAS] FOR delay = 0 TO 250
01BE   01CB           01366         clrf delay
01BF                  01367 FR@LB50
01BF   30FB           01368         movlw 251
01C0   024B           01369         subwf delay,W
                      01370         set@page NX@LB51
01C3   1803           01371         btfsc STATUS,0
01C4   29CE           01372         goto NX@LB51
  000001C5            01373 F1_000116 equ $ ; IN [7TIMER HC154.BAS] GOSUB rescan
                      01374         f@call rescan
01C8                  01375 CT@LB52
  000001C8            01376 F1_000117 equ $ ; IN [7TIMER HC154.BAS] NEXT delay
01C8   3001           01377         movlw 1
01C9   07CB           01378         addwf delay,F
                      01379         set@page FR@LB50
01CC   1C03           01380         btfss STATUS,0
01CD   29BF           01381         goto FR@LB50
01CE                  01382 NX@LB51
  000001CE            01383 F1_000118 equ $ ; IN [7TIMER HC154.BAS] EWRITE 2,[mm11]
01CE   3002           01384         movlw 2
01CF   1703           01385         bsf STATUS,6
  00000002            01386 ram_bank = 2
01D0   008D           01387         movwf EEADR
01D1   1303           01388         bcf STATUS,6
  00000000            01389 ram_bank = 0
01D2   085B           01390         movf mm11,W
                      01391         f@call EE@WR
  000001D5            01392 F1_000119 equ $ ; IN [7TIMER HC154.BAS] if nxt = 1 THEN goto setting4
                      01393         set@page BC@LL53
01D7   1E87           01394         btfss PORTC,5
01D8   29DC           01395         goto BC@LL53
                      01396         F@JUMP setting4
01DC                  01397 BC@LL53
  000001DC            01398 F1_000120 equ $ ; IN [7TIMER HC154.BAS] if setup = 0 THEN goto main
                      01399         set@page BC@LL55
01DE   1A07           01400         btfsc PORTC,4
01DF   29E2           01401         goto BC@LL55
                      01402         F@JUMP main
01E2                  01403 BC@LL55
  000001E2            01404 F1_000121 equ $ ; IN [7TIMER HC154.BAS] goto setting3
                      01405         F@JUMP setting3
01E4                  01406 setting4
  000001E4            01407 F1_000124 equ $ ; IN [7TIMER HC154.BAS] wrt[4] = 1
01E4   3001           01408         movlw 1
01E5   00B2           01409         movwf wrt#4
  000001E6            01410 F1_000125 equ $ ; IN [7TIMER HC154.BAS] if up = 1 THEN mm12 = mm12 + 1
                      01411         set@page BC@LL57
01E8   1F07           01412         btfss PORTC,6
01E9   29EB           01413         goto BC@LL57
01EA   0ADC           01414         incf mm12,F
01EB                  01415 BC@LL57
  000001EB            01416 F1_000126 equ $ ; IN [7TIMER HC154.BAS] if down = 1 THEN mm12 = mm12 - 1
                      01417         set@page BC@LL59
01ED   1F87           01418         btfss PORTC,7
01EE   29F0           01419         goto BC@LL59
01EF   03DC           01420         decf mm12,F
01F0                  01421 BC@LL59
  000001F0            01422 F1_000127 equ $ ; IN [7TIMER HC154.BAS] if mm12 < 0 THEN mm12 = 9
                      01423         set@page BC@LL61
01F2   1FDC           01424         btfss mm12,7
01F3   29F6           01425         goto BC@LL61
01F4   3009           01426         movlw 9
01F5   00DC           01427         movwf mm12
01F6                  01428 BC@LL61
  000001F6            01429 F1_000128 equ $ ; IN [7TIMER HC154.BAS] if mm12 = 10 THEN mm12 = 0
01F6   300A           01430         movlw 10
01F7   025C           01431         subwf mm12,W
                      01432         set@page BC@LL63
01FA   1D03           01433         btfss STATUS,2
01FB   29FD           01434         goto BC@LL63
01FC   01DC           01435         clrf mm12
01FD                  01436 BC@LL63
  000001FD            01437 F1_000129 equ $ ; IN [7TIMER HC154.BAS] FOR delay = 0 TO 200
01FD   01CB           01438         clrf delay
01FE                  01439 FR@LB65
01FE   30C9           01440         movlw 201
01FF   024B           01441         subwf delay,W
                      01442         set@page NX@LB66
0202   1803           01443         btfsc STATUS,0
0203   2A0D           01444         goto NX@LB66
  00000204            01445 F1_000130 equ $ ; IN [7TIMER HC154.BAS] GOSUB rescan
                      01446         f@call rescan
0207                  01447 CT@LB67
  00000207            01448 F1_000131 equ $ ; IN [7TIMER HC154.BAS] NEXT delay
0207   3001           01449         movlw 1
0208   07CB           01450         addwf delay,F
                      01451         set@page FR@LB65
020B   1C03           01452         btfss STATUS,0
020C   29FE           01453         goto FR@LB65
020D                  01454 NX@LB66
  0000020D            01455 F1_000132 equ $ ; IN [7TIMER HC154.BAS] EWRITE 3,[mm12]
020D   3003           01456         movlw 3
020E   1703           01457         bsf STATUS,6
  00000002            01458 ram_bank = 2
020F   008D           01459         movwf EEADR
0210   1303           01460         bcf STATUS,6
  00000000            01461 ram_bank = 0
0211   085C           01462         movf mm12,W
                      01463         f@call EE@WR
  00000214            01464 F1_000133 equ $ ; IN [7TIMER HC154.BAS] if nxt = 1 THEN goto setting5
                      01465         set@page BC@LL68
0216   1E87           01466         btfss PORTC,5
0217   2A1B           01467         goto BC@LL68
                      01468         F@JUMP setting5
021B                  01469 BC@LL68
  0000021B            01470 F1_000134 equ $ ; IN [7TIMER HC154.BAS] if setup = 0 THEN goto main
                      01471         set@page BC@LL70
021D   1A07           01472         btfsc PORTC,4
021E   2A21           01473         goto BC@LL70
                      01474         F@JUMP main
0221                  01475 BC@LL70
  00000221            01476 F1_000135 equ $ ; IN [7TIMER HC154.BAS] goto setting4
                      01477         F@JUMP setting4
0223                  01478 setting5
  00000223            01479 F1_000138 equ $ ; IN [7TIMER HC154.BAS] wrt[5] = 1
0223   3001           01480         movlw 1
0224   00B3           01481         movwf wrt#5
  00000225            01482 F1_000139 equ $ ; IN [7TIMER HC154.BAS] if up = 1 THEN hh21 = hh21 + 1
                      01483         set@page BC@LL72
0227   1F07           01484         btfss PORTC,6
0228   2A2A           01485         goto BC@LL72
0229   0ACF           01486         incf hh21,F
022A                  01487 BC@LL72
  0000022A            01488 F1_000140 equ $ ; IN [7TIMER HC154.BAS] if down = 1 THEN hh21 = hh21 - 1
                      01489         set@page BC@LL74
022C   1F87           01490         btfss PORTC,7
022D   2A2F           01491         goto BC@LL74
022E   03CF           01492         decf hh21,F
022F                  01493 BC@LL74
  0000022F            01494 F1_000141 equ $ ; IN [7TIMER HC154.BAS] if hh21 < 0 THEN hh21 = 9
                      01495         set@page BC@LL76
0231   1FCF           01496         btfss hh21,7
0232   2A35           01497         goto BC@LL76
0233   3009           01498         movlw 9
0234   00CF           01499         movwf hh21
0235                  01500 BC@LL76
  00000235            01501 F1_000142 equ $ ; IN [7TIMER HC154.BAS] if hh21 = 10 THEN hh21 = 0
0235   300A           01502         movlw 10
0236   024F           01503         subwf hh21,W
                      01504         set@page BC@LL78
0239   1D03           01505         btfss STATUS,2
023A   2A3C           01506         goto BC@LL78
023B   01CF           01507         clrf hh21
023C                  01508 BC@LL78
  0000023C            01509 F1_000143 equ $ ; IN [7TIMER HC154.BAS] FOR delay = 0 TO 150
023C   01CB           01510         clrf delay
023D                  01511 FR@LB80
023D   3097           01512         movlw 151
023E   024B           01513         subwf delay,W
                      01514         set@page NX@LB81
0241   1803           01515         btfsc STATUS,0
0242   2A4C           01516         goto NX@LB81
  00000243            01517 F1_000144 equ $ ; IN [7TIMER HC154.BAS] GOSUB rescan
                      01518         f@call rescan
0246                  01519 CT@LB82
  00000246            01520 F1_000145 equ $ ; IN [7TIMER HC154.BAS] NEXT delay
0246   3001           01521         movlw 1
0247   07CB           01522         addwf delay,F
                      01523         set@page FR@LB80
024A   1C03           01524         btfss STATUS,0
024B   2A3D           01525         goto FR@LB80
024C                  01526 NX@LB81
  0000024C            01527 F1_000146 equ $ ; IN [7TIMER HC154.BAS] EWRITE 4,[hh21]
024C   3004           01528         movlw 4
024D   1703           01529         bsf STATUS,6
  00000002            01530 ram_bank = 2
024E   008D           01531         movwf EEADR
024F   1303           01532         bcf STATUS,6
  00000000            01533 ram_bank = 0
0250   084F           01534         movf hh21,W
                      01535         f@call EE@WR
  00000253            01536 F1_000147 equ $ ; IN [7TIMER HC154.BAS] if nxt = 1 THEN goto setting6
                      01537         set@page BC@LL83
0255   1E87           01538         btfss PORTC,5
0256   2A5A           01539         goto BC@LL83
                      01540         F@JUMP setting6
025A                  01541 BC@LL83
  0000025A            01542 F1_000148 equ $ ; IN [7TIMER HC154.BAS] if setup = 0 THEN goto main
                      01543         set@page BC@LL85
025C   1A07           01544         btfsc PORTC,4
025D   2A60           01545         goto BC@LL85
                      01546         F@JUMP main
0260                  01547 BC@LL85
  00000260            01548 F1_000149 equ $ ; IN [7TIMER HC154.BAS] goto setting5
                      01549         F@JUMP setting5
0262                  01550 setting6
  00000262            01551 F1_000152 equ $ ; IN [7TIMER HC154.BAS] wrt[6] = 1
0262   3001           01552         movlw 1
0263   00B4           01553         movwf wrt#6
  00000264            01554 F1_000153 equ $ ; IN [7TIMER HC154.BAS] if up = 1 THEN hh21 = hh21 + 1
                      01555         set@page BC@LL87
0266   1F07           01556         btfss PORTC,6
0267   2A69           01557         goto BC@LL87
0268   0ACF           01558         incf hh21,F
0269                  01559 BC@LL87
  00000269            01560 F1_000154 equ $ ; IN [7TIMER HC154.BAS] if down = 1 THEN hh21 = hh21 - 1
                      01561         set@page BC@LL89
026B   1F87           01562         btfss PORTC,7
026C   2A6E           01563         goto BC@LL89
026D   03CF           01564         decf hh21,F
026E                  01565 BC@LL89
  0000026E            01566 F1_000155 equ $ ; IN [7TIMER HC154.BAS] if hh21 < 0 THEN hh21 = 9
                      01567         set@page BC@LL91
0270   1FCF           01568         btfss hh21,7
0271   2A74           01569         goto BC@LL91
0272   3009           01570         movlw 9
0273   00CF           01571         movwf hh21
0274                  01572 BC@LL91
  00000274            01573 F1_000156 equ $ ; IN [7TIMER HC154.BAS] if hh21 = 10 THEN hh21 = 0
0274   300A           01574         movlw 10
0275   024F           01575         subwf hh21,W
                      01576         set@page BC@LL93
0278   1D03           01577         btfss STATUS,2
0279   2A7B           01578         goto BC@LL93
027A   01CF           01579         clrf hh21
027B                  01580 BC@LL93
  0000027B            01581 F1_000157 equ $ ; IN [7TIMER HC154.BAS] FOR delay = 0 TO 100
027B   01CB           01582         clrf delay
027C                  01583 FR@LB95
027C   3065           01584         movlw 101
027D   024B           01585         subwf delay,W
                      01586         set@page NX@LB96
0280   1803           01587         btfsc STATUS,0
0281   2A8B           01588         goto NX@LB96
  00000282            01589 F1_000158 equ $ ; IN [7TIMER HC154.BAS] GOSUB rescan
                      01590         f@call rescan
0285                  01591 CT@LB97
  00000285            01592 F1_000159 equ $ ; IN [7TIMER HC154.BAS] NEXT delay
0285   3001           01593         movlw 1
0286   07CB           01594         addwf delay,F
                      01595         set@page FR@LB95
0289   1C03           01596         btfss STATUS,0
028A   2A7C           01597         goto FR@LB95
028B                  01598 NX@LB96
  0000028B            01599 F1_000160 equ $ ; IN [7TIMER HC154.BAS] EWRITE 5,[hh21]
028B   3005           01600         movlw 5
028C   1703           01601         bsf STATUS,6
  00000002            01602 ram_bank = 2
028D   008D           01603         movwf EEADR
028E   1303           01604         bcf STATUS,6
  00000000            01605 ram_bank = 0
028F   084F           01606         movf hh21,W
                      01607         f@call EE@WR
  00000292            01608 F1_000161 equ $ ; IN [7TIMER HC154.BAS] if nxt = 1 THEN goto setting7
                      01609         set@page BC@LL98
0294   1E87           01610         btfss PORTC,5
0295   2A99           01611         goto BC@LL98
                      01612         F@JUMP setting7
0299                  01613 BC@LL98
  00000299            01614 F1_000162 equ $ ; IN [7TIMER HC154.BAS] if setup = 0 THEN goto main
                      01615         set@page BC@LL100
029B   1A07           01616         btfsc PORTC,4
029C   2A9F           01617         goto BC@LL100
                      01618         F@JUMP main
029F                  01619 BC@LL100
  0000029F            01620 F1_000163 equ $ ; IN [7TIMER HC154.BAS] goto setting6
                      01621         F@JUMP setting6
02A1                  01622 setting7
  000002A1            01623 F1_000166 equ $ ; IN [7TIMER HC154.BAS] wrt[7] = 1
02A1   3001           01624         movlw 1
02A2   00B5           01625         movwf wrt#7
  000002A3            01626 F1_000167 equ $ ; IN [7TIMER HC154.BAS] if up = 1 THEN mm21 = mm21 + 1
                      01627         set@page BC@LL102
02A5   1F07           01628         btfss PORTC,6
02A6   2AA8           01629         goto BC@LL102
02A7   0ADD           01630         incf mm21,F
02A8                  01631 BC@LL102
  000002A8            01632 F1_000168 equ $ ; IN [7TIMER HC154.BAS] if down = 1 THEN mm21 = mm21 - 1
                      01633         set@page BC@LL104
02AA   1F87           01634         btfss PORTC,7
02AB   2AAD           01635         goto BC@LL104
02AC   03DD           01636         decf mm21,F
02AD                  01637 BC@LL104
  000002AD            01638 F1_000169 equ $ ; IN [7TIMER HC154.BAS] if mm21 < 0 THEN mm21 = 9
                      01639         set@page BC@LL106
02AF   1FDD           01640         btfss mm21,7
02B0   2AB3           01641         goto BC@LL106
02B1   3009           01642         movlw 9
02B2   00DD           01643         movwf mm21
02B3                  01644 BC@LL106
  000002B3            01645 F1_000170 equ $ ; IN [7TIMER HC154.BAS] if mm21 = 10 THEN mm21 = 0
02B3   300A           01646         movlw 10
02B4   025D           01647         subwf mm21,W
                      01648         set@page BC@LL108
02B7   1D03           01649         btfss STATUS,2
02B8   2ABA           01650         goto BC@LL108
02B9   01DD           01651         clrf mm21
02BA                  01652 BC@LL108
  000002BA            01653 F1_000171 equ $ ; IN [7TIMER HC154.BAS] FOR delay = 0 TO 50
02BA   01CB           01654         clrf delay
02BB                  01655 FR@LB110
02BB   3033           01656         movlw 51
02BC   024B           01657         subwf delay,W
                      01658         set@page NX@LB111
02BF   1803           01659         btfsc STATUS,0
02C0   2ACA           01660         goto NX@LB111
  000002C1            01661 F1_000172 equ $ ; IN [7TIMER HC154.BAS] GOSUB rescan
                      01662         f@call rescan
02C4                  01663 CT@LB112
  000002C4            01664 F1_000173 equ $ ; IN [7TIMER HC154.BAS] NEXT delay
02C4   3001           01665         movlw 1
02C5   07CB           01666         addwf delay,F
                      01667         set@page FR@LB110
02C8   1C03           01668         btfss STATUS,0
02C9   2ABB           01669         goto FR@LB110
02CA                  01670 NX@LB111
  000002CA            01671 F1_000174 equ $ ; IN [7TIMER HC154.BAS] EWRITE 6,[mm21]
02CA   3006           01672         movlw 6
02CB   1703           01673         bsf STATUS,6
  00000002            01674 ram_bank = 2
02CC   008D           01675         movwf EEADR
02CD   1303           01676         bcf STATUS,6
  00000000            01677 ram_bank = 0
02CE   085D           01678         movf mm21,W
                      01679         f@call EE@WR
  000002D1            01680 F1_000175 equ $ ; IN [7TIMER HC154.BAS] if nxt = 1 THEN goto setting8
                      01681         set@page BC@LL113
02D3   1E87           01682         btfss PORTC,5
02D4   2AD8           01683         goto BC@LL113
                      01684         F@JUMP setting8
02D8                  01685 BC@LL113
  000002D8            01686 F1_000176 equ $ ; IN [7TIMER HC154.BAS] if setup = 0 THEN goto main
                      01687         set@page BC@LL115
02DA   1A07           01688         btfsc PORTC,4
02DB   2ADE           01689         goto BC@LL115
                      01690         F@JUMP main
02DE                  01691 BC@LL115
  000002DE            01692 F1_000177 equ $ ; IN [7TIMER HC154.BAS] goto setting7
                      01693         F@JUMP setting7
02E0                  01694 setting8
  000002E0            01695 F1_000180 equ $ ; IN [7TIMER HC154.BAS] wrt[8] = 1
02E0   3001           01696         movlw 1
02E1   00B6           01697         movwf wrt#8
  000002E2            01698 F1_000181 equ $ ; IN [7TIMER HC154.BAS] if up = 1 THEN mm22 = mm22 + 1
                      01699         set@page BC@LL117
02E4   1F07           01700         btfss PORTC,6
02E5   2AE7           01701         goto BC@LL117
02E6   0ADE           01702         incf mm22,F
02E7                  01703 BC@LL117
  000002E7            01704 F1_000182 equ $ ; IN [7TIMER HC154.BAS] if down = 1 THEN mm22 = mm22 - 1
                      01705         set@page BC@LL119
02E9   1F87           01706         btfss PORTC,7
02EA   2AEC           01707         goto BC@LL119
02EB   03DE           01708         decf mm22,F
02EC                  01709 BC@LL119
  000002EC            01710 F1_000183 equ $ ; IN [7TIMER HC154.BAS] if mm22 < 0 THEN mm22 = 9
                      01711         set@page BC@LL121
02EE   1FDE           01712         btfss mm22,7
02EF   2AF2           01713         goto BC@LL121
02F0   3009           01714         movlw 9
02F1   00DE           01715         movwf mm22
02F2                  01716 BC@LL121
  000002F2            01717 F1_000184 equ $ ; IN [7TIMER HC154.BAS] if mm22 = 10 THEN mm22 = 0
02F2   300A           01718         movlw 10
02F3   025E           01719         subwf mm22,W
                      01720         set@page BC@LL123
02F6   1D03           01721         btfss STATUS,2
02F7   2AF9           01722         goto BC@LL123
02F8   01DE           01723         clrf mm22
02F9                  01724 BC@LL123
  000002F9            01725 F1_000185 equ $ ; IN [7TIMER HC154.BAS] FOR delay = 0 TO 50
02F9   01CB           01726         clrf delay
02FA                  01727 FR@LB125
02FA   3033           01728         movlw 51
02FB   024B           01729         subwf delay,W
                      01730         set@page NX@LB126
02FE   1803           01731         btfsc STATUS,0
02FF   2B09           01732         goto NX@LB126
  00000300            01733 F1_000186 equ $ ; IN [7TIMER HC154.BAS] GOSUB rescan
                      01734         f@call rescan
0303                  01735 CT@LB127
  00000303            01736 F1_000187 equ $ ; IN [7TIMER HC154.BAS] NEXT delay
0303   3001           01737         movlw 1
0304   07CB           01738         addwf delay,F
                      01739         set@page FR@LB125
0307   1C03           01740         btfss STATUS,0
0308   2AFA           01741         goto FR@LB125
0309                  01742 NX@LB126
  00000309            01743 F1_000188 equ $ ; IN [7TIMER HC154.BAS] EWRITE 7,[mm22]
0309   3007           01744         movlw 7
030A   1703           01745         bsf STATUS,6
  00000002            01746 ram_bank = 2
030B   008D           01747         movwf EEADR
030C   1303           01748         bcf STATUS,6
  00000000            01749 ram_bank = 0
030D   085E           01750         movf mm22,W
                      01751         f@call EE@WR
  00000310            01752 F1_000189 equ $ ; IN [7TIMER HC154.BAS] if nxt = 1 THEN goto setting9
                      01753         set@page BC@LL128
0312   1E87           01754         btfss PORTC,5
0313   2B17           01755         goto BC@LL128
                      01756         F@JUMP setting9
0317                  01757 BC@LL128
  00000317            01758 F1_000190 equ $ ; IN [7TIMER HC154.BAS] if setup = 0 THEN goto main
                      01759         set@page BC@LL130
0319   1A07           01760         btfsc PORTC,4
031A   2B1D           01761         goto BC@LL130
                      01762         F@JUMP main
031D                  01763 BC@LL130
  0000031D            01764 F1_000191 equ $ ; IN [7TIMER HC154.BAS] goto setting8
                      01765         F@JUMP setting8
031F                  01766 setting9
  0000031F            01767 F1_000194 equ $ ; IN [7TIMER HC154.BAS] wrt[9] = 1
031F   3001           01768         movlw 1
0320   00B7           01769         movwf wrt#9
  00000321            01770 F1_000195 equ $ ; IN [7TIMER HC154.BAS] if up = 1 THEN hh31 = hh31 + 1
                      01771         set@page BC@LL132
0323   1F07           01772         btfss PORTC,6
0324   2B26           01773         goto BC@LL132
0325   0AD1           01774         incf hh31,F
0326                  01775 BC@LL132
  00000326            01776 F1_000196 equ $ ; IN [7TIMER HC154.BAS] if down = 1 THEN hh31 = hh31 - 1
                      01777         set@page BC@LL134
0328   1F87           01778         btfss PORTC,7
0329   2B2B           01779         goto BC@LL134
032A   03D1           01780         decf hh31,F
032B                  01781 BC@LL134
  0000032B            01782 F1_000197 equ $ ; IN [7TIMER HC154.BAS] if hh31 < 0 THEN hh31 = 9
                      01783         set@page BC@LL136
032D   1FD1           01784         btfss hh31,7
032E   2B31           01785         goto BC@LL136
032F   3009           01786         movlw 9
0330   00D1           01787         movwf hh31
0331                  01788 BC@LL136
  00000331            01789 F1_000198 equ $ ; IN [7TIMER HC154.BAS] if hh31 = 10 THEN hh31 = 0
0331   300A           01790         movlw 10
0332   0251           01791         subwf hh31,W
                      01792         set@page BC@LL138
0335   1D03           01793         btfss STATUS,2
0336   2B38           01794         goto BC@LL138
0337   01D1           01795         clrf hh31
0338                  01796 BC@LL138
  00000338            01797 F1_000199 equ $ ; IN [7TIMER HC154.BAS] FOR delay = 0 TO 50
0338   01CB           01798         clrf delay
0339                  01799 FR@LB140
0339   3033           01800         movlw 51
033A   024B           01801         subwf delay,W
                      01802         set@page NX@LB141
033D   1803           01803         btfsc STATUS,0
033E   2B48           01804         goto NX@LB141
  0000033F            01805 F1_000200 equ $ ; IN [7TIMER HC154.BAS] GOSUB rescan
                      01806         f@call rescan
0342                  01807 CT@LB142
  00000342            01808 F1_000201 equ $ ; IN [7TIMER HC154.BAS] NEXT delay
0342   3001           01809         movlw 1
0343   07CB           01810         addwf delay,F
                      01811         set@page FR@LB140
0346   1C03           01812         btfss STATUS,0
0347   2B39           01813         goto FR@LB140
0348                  01814 NX@LB141
  00000348            01815 F1_000202 equ $ ; IN [7TIMER HC154.BAS] EWRITE 8,[hh31]
0348   3008           01816         movlw 8
0349   1703           01817         bsf STATUS,6
  00000002            01818 ram_bank = 2
034A   008D           01819         movwf EEADR
034B   1303           01820         bcf STATUS,6
  00000000            01821 ram_bank = 0
034C   0851           01822         movf hh31,W
                      01823         f@call EE@WR
  0000034F            01824 F1_000203 equ $ ; IN [7TIMER HC154.BAS] if nxt = 1 THEN goto setting10
                      01825         set@page BC@LL143
0351   1E87           01826         btfss PORTC,5
0352   2B56           01827         goto BC@LL143
                      01828         F@JUMP setting10
0356                  01829 BC@LL143
  00000356            01830 F1_000204 equ $ ; IN [7TIMER HC154.BAS] if setup = 0 THEN goto main
                      01831         set@page BC@LL145
0358   1A07           01832         btfsc PORTC,4
0359   2B5C           01833         goto BC@LL145
                      01834         F@JUMP main
035C                  01835 BC@LL145
  0000035C            01836 F1_000205 equ $ ; IN [7TIMER HC154.BAS] goto setting9
                      01837         F@JUMP setting9
035E                  01838 setting10
  0000035E            01839 F1_000208 equ $ ; IN [7TIMER HC154.BAS] wrt[10] = 1
035E   3001           01840         movlw 1
035F   00B8           01841         movwf wrt#10
  00000360            01842 F1_000209 equ $ ; IN [7TIMER HC154.BAS] if up = 1 THEN hh32 = hh32 + 1
                      01843         set@page BC@LL147
0362   1F07           01844         btfss PORTC,6
0363   2B65           01845         goto BC@LL147
0364   0AD2           01846         incf hh32,F
0365                  01847 BC@LL147
  00000365            01848 F1_000210 equ $ ; IN [7TIMER HC154.BAS] if down = 1 THEN hh32 = hh32 - 1
                      01849         set@page BC@LL149
0367   1F87           01850         btfss PORTC,7
0368   2B6A           01851         goto BC@LL149
0369   03D2           01852         decf hh32,F
036A                  01853 BC@LL149
  0000036A            01854 F1_000211 equ $ ; IN [7TIMER HC154.BAS] if hh32 < 0 THEN hh32 = 9
                      01855         set@page BC@LL151
036C   1FD2           01856         btfss hh32,7
036D   2B70           01857         goto BC@LL151
036E   3009           01858         movlw 9
036F   00D2           01859         movwf hh32
0370                  01860 BC@LL151
  00000370            01861 F1_000212 equ $ ; IN [7TIMER HC154.BAS] if hh32 = 10 THEN hh32 = 0
0370   300A           01862         movlw 10
0371   0252           01863         subwf hh32,W
                      01864         set@page BC@LL153
0374   1D03           01865         btfss STATUS,2
0375   2B77           01866         goto BC@LL153
0376   01D2           01867         clrf hh32
0377                  01868 BC@LL153
  00000377            01869 F1_000213 equ $ ; IN [7TIMER HC154.BAS] FOR delay = 0 TO 50
0377   01CB           01870         clrf delay
0378                  01871 FR@LB155
0378   3033           01872         movlw 51
0379   024B           01873         subwf delay,W
                      01874         set@page NX@LB156
037C   1803           01875         btfsc STATUS,0
037D   2B87           01876         goto NX@LB156
  0000037E            01877 F1_000214 equ $ ; IN [7TIMER HC154.BAS] GOSUB rescan
                      01878         f@call rescan
0381                  01879 CT@LB157
  00000381            01880 F1_000215 equ $ ; IN [7TIMER HC154.BAS] NEXT delay
0381   3001           01881         movlw 1
0382   07CB           01882         addwf delay,F
                      01883         set@page FR@LB155
0385   1C03           01884         btfss STATUS,0
0386   2B78           01885         goto FR@LB155
0387                  01886 NX@LB156
  00000387            01887 F1_000216 equ $ ; IN [7TIMER HC154.BAS] EWRITE 9,[hh32]
0387   3009           01888         movlw 9
0388   1703           01889         bsf STATUS,6
  00000002            01890 ram_bank = 2
0389   008D           01891         movwf EEADR
038A   1303           01892         bcf STATUS,6
  00000000            01893 ram_bank = 0
038B   0852           01894         movf hh32,W
                      01895         f@call EE@WR
  0000038E            01896 F1_000217 equ $ ; IN [7TIMER HC154.BAS] if nxt = 1 THEN goto setting11
                      01897         set@page BC@LL158
0390   1E87           01898         btfss PORTC,5
0391   2B95           01899         goto BC@LL158
                      01900         F@JUMP setting11
0395                  01901 BC@LL158
  00000395            01902 F1_000218 equ $ ; IN [7TIMER HC154.BAS] if setup = 0 THEN goto main
                      01903         set@page BC@LL160
0397   1A07           01904         btfsc PORTC,4
0398   2B9B           01905         goto BC@LL160
                      01906         F@JUMP main
039B                  01907 BC@LL160
  0000039B            01908 F1_000219 equ $ ; IN [7TIMER HC154.BAS] goto setting10
                      01909         F@JUMP setting10
039D                  01910 setting11
  0000039D            01911 F1_000222 equ $ ; IN [7TIMER HC154.BAS] wrt[11] = 1
039D   3001           01912         movlw 1
039E   00B9           01913         movwf wrt#11
  0000039F            01914 F1_000223 equ $ ; IN [7TIMER HC154.BAS] if up = 1 THEN mm31 = mm31 + 1
                      01915         set@page BC@LL162
03A1   1F07           01916         btfss PORTC,6
03A2   2BA4           01917         goto BC@LL162
03A3   0ADF           01918         incf mm31,F
03A4                  01919 BC@LL162
  000003A4            01920 F1_000224 equ $ ; IN [7TIMER HC154.BAS] if down = 1 THEN mm31 = mm31 - 1
                      01921         set@page BC@LL164
03A6   1F87           01922         btfss PORTC,7
03A7   2BA9           01923         goto BC@LL164
03A8   03DF           01924         decf mm31,F
03A9                  01925 BC@LL164
  000003A9            01926 F1_000225 equ $ ; IN [7TIMER HC154.BAS] if mm31 < 0 THEN mm31 = 9
                      01927         set@page BC@LL166
03AB   1FDF           01928         btfss mm31,7
03AC   2BAF           01929         goto BC@LL166
03AD   3009           01930         movlw 9
03AE   00DF           01931         movwf mm31
03AF                  01932 BC@LL166
  000003AF            01933 F1_000226 equ $ ; IN [7TIMER HC154.BAS] if mm31 = 10 THEN mm31 = 0
03AF   300A           01934         movlw 10
03B0   025F           01935         subwf mm31,W
                      01936         set@page BC@LL168
03B3   1D03           01937         btfss STATUS,2
03B4   2BB6           01938         goto BC@LL168
03B5   01DF           01939         clrf mm31
03B6                  01940 BC@LL168
  000003B6            01941 F1_000227 equ $ ; IN [7TIMER HC154.BAS] FOR delay = 0 TO 50
03B6   01CB           01942         clrf delay
03B7                  01943 FR@LB170
03B7   3033           01944         movlw 51
03B8   024B           01945         subwf delay,W
                      01946         set@page NX@LB171
03BB   1803           01947         btfsc STATUS,0
03BC   2BC6           01948         goto NX@LB171
  000003BD            01949 F1_000228 equ $ ; IN [7TIMER HC154.BAS] GOSUB rescan
                      01950         f@call rescan
03C0                  01951 CT@LB172
  000003C0            01952 F1_000229 equ $ ; IN [7TIMER HC154.BAS] NEXT delay
03C0   3001           01953         movlw 1
03C1   07CB           01954         addwf delay,F
                      01955         set@page FR@LB170
03C4   1C03           01956         btfss STATUS,0
03C5   2BB7           01957         goto FR@LB170
03C6                  01958 NX@LB171
  000003C6            01959 F1_000230 equ $ ; IN [7TIMER HC154.BAS] EWRITE 10,[mm31]
03C6   300A           01960         movlw 10
03C7   1703           01961         bsf STATUS,6
  00000002            01962 ram_bank = 2
03C8   008D           01963         movwf EEADR
03C9   1303           01964         bcf STATUS,6
  00000000            01965 ram_bank = 0
03CA   085F           01966         movf mm31,W
                      01967         f@call EE@WR
  000003CD            01968 F1_000231 equ $ ; IN [7TIMER HC154.BAS] if nxt = 1 THEN goto setting12
                      01969         set@page BC@LL173
03CF   1E87           01970         btfss PORTC,5
03D0   2BD4           01971         goto BC@LL173
                      01972         F@JUMP setting12
03D4                  01973 BC@LL173
  000003D4            01974 F1_000232 equ $ ; IN [7TIMER HC154.BAS] if setup = 0 THEN goto main
                      01975         set@page BC@LL175
03D6   1A07           01976         btfsc PORTC,4
03D7   2BDA           01977         goto BC@LL175
                      01978         F@JUMP main
03DA                  01979 BC@LL175
  000003DA            01980 F1_000233 equ $ ; IN [7TIMER HC154.BAS] goto setting11
                      01981         F@JUMP setting11
03DC                  01982 setting12
  000003DC            01983 F1_000236 equ $ ; IN [7TIMER HC154.BAS] wrt[12] = 1
03DC   3001           01984         movlw 1
03DD   00BA           01985         movwf wrt#12
  000003DE            01986 F1_000237 equ $ ; IN [7TIMER HC154.BAS] if up = 1 THEN mm32 = mm32 + 1
                      01987         set@page BC@LL177
03E0   1F07           01988         btfss PORTC,6
03E1   2BE3           01989         goto BC@LL177
03E2   0AE0           01990         incf mm32,F
03E3                  01991 BC@LL177
  000003E3            01992 F1_000238 equ $ ; IN [7TIMER HC154.BAS] if down = 1 THEN mm32 = mm32 - 1
                      01993         set@page BC@LL179
03E5   1F87           01994         btfss PORTC,7
03E6   2BE8           01995         goto BC@LL179
03E7   03E0           01996         decf mm32,F
03E8                  01997 BC@LL179
  000003E8            01998 F1_000239 equ $ ; IN [7TIMER HC154.BAS] if mm32 < 0 THEN mm32 = 9
                      01999         set@page BC@LL181
03EA   1FE0           02000         btfss mm32,7
03EB   2BEE           02001         goto BC@LL181
03EC   3009           02002         movlw 9
03ED   00E0           02003         movwf mm32
03EE                  02004 BC@LL181
  000003EE            02005 F1_000240 equ $ ; IN [7TIMER HC154.BAS] if mm32 = 10 THEN mm32 = 0
03EE   300A           02006         movlw 10
03EF   0260           02007         subwf mm32,W
                      02008         set@page BC@LL183
03F2   1D03           02009         btfss STATUS,2
03F3   2BF5           02010         goto BC@LL183
03F4   01E0           02011         clrf mm32
03F5                  02012 BC@LL183
  000003F5            02013 F1_000241 equ $ ; IN [7TIMER HC154.BAS] FOR delay = 0 TO 50
03F5   01CB           02014         clrf delay
03F6                  02015 FR@LB185
03F6   3033           02016         movlw 51
03F7   024B           02017         subwf delay,W
                      02018         set@page NX@LB186
03FA   1803           02019         btfsc STATUS,0
03FB   2C05           02020         goto NX@LB186
  000003FC            02021 F1_000242 equ $ ; IN [7TIMER HC154.BAS] GOSUB rescan
                      02022         f@call rescan
03FF                  02023 CT@LB187
  000003FF            02024 F1_000243 equ $ ; IN [7TIMER HC154.BAS] NEXT delay
03FF   3001           02025         movlw 1
0400   07CB           02026         addwf delay,F
                      02027         set@page FR@LB185
0403   1C03           02028         btfss STATUS,0
0404   2BF6           02029         goto FR@LB185
0405                  02030 NX@LB186
  00000405            02031 F1_000244 equ $ ; IN [7TIMER HC154.BAS] EWRITE 11,[mm32]
0405   300B           02032         movlw 11
0406   1703           02033         bsf STATUS,6
  00000002            02034 ram_bank = 2
0407   008D           02035         movwf EEADR
0408   1303           02036         bcf STATUS,6
  00000000            02037 ram_bank = 0
0409   0860           02038         movf mm32,W
                      02039         f@call EE@WR
  0000040C            02040 F1_000245 equ $ ; IN [7TIMER HC154.BAS] if nxt = 1 THEN goto setting13
                      02041         set@page BC@LL188
040E   1E87           02042         btfss PORTC,5
040F   2C13           02043         goto BC@LL188
                      02044         F@JUMP setting13
0413                  02045 BC@LL188
  00000413            02046 F1_000246 equ $ ; IN [7TIMER HC154.BAS] if setup = 0 THEN goto main
                      02047         set@page BC@LL190
0415   1A07           02048         btfsc PORTC,4
0416   2C19           02049         goto BC@LL190
                      02050         F@JUMP main
0419                  02051 BC@LL190
  00000419            02052 F1_000247 equ $ ; IN [7TIMER HC154.BAS] goto setting12
                      02053         F@JUMP setting12
041B                  02054 setting13
  0000041B            02055 F1_000250 equ $ ; IN [7TIMER HC154.BAS] wrt[13] = 1
041B   3001           02056         movlw 1
041C   00BB           02057         movwf wrt#13
  0000041D            02058 F1_000251 equ $ ; IN [7TIMER HC154.BAS] if up = 1 THEN hh41 = hh41 + 1
                      02059         set@page BC@LL192
041F   1F07           02060         btfss PORTC,6
0420   2C22           02061         goto BC@LL192
0421   0AD3           02062         incf hh41,F
0422                  02063 BC@LL192
  00000422            02064 F1_000252 equ $ ; IN [7TIMER HC154.BAS] if down = 1 THEN hh41 = hh41 - 1
                      02065         set@page BC@LL194
0424   1F87           02066         btfss PORTC,7
0425   2C27           02067         goto BC@LL194
0426   03D3           02068         decf hh41,F
0427                  02069 BC@LL194
  00000427            02070 F1_000253 equ $ ; IN [7TIMER HC154.BAS] if hh41 < 0 THEN hh41 = 9
                      02071         set@page BC@LL196
0429   1FD3           02072         btfss hh41,7
042A   2C2D           02073         goto BC@LL196
042B   3009           02074         movlw 9
042C   00D3           02075         movwf hh41
042D                  02076 BC@LL196
  0000042D            02077 F1_000254 equ $ ; IN [7TIMER HC154.BAS] if hh41 = 10 THEN hh41 = 0
042D   300A           02078         movlw 10
042E   0253           02079         subwf hh41,W
                      02080         set@page BC@LL198
0431   1D03           02081         btfss STATUS,2
0432   2C34           02082         goto BC@LL198
0433   01D3           02083         clrf hh41
0434                  02084 BC@LL198
  00000434            02085 F1_000255 equ $ ; IN [7TIMER HC154.BAS] FOR delay = 0 TO 50
0434   01CB           02086         clrf delay
0435                  02087 FR@LB200
0435   3033           02088         movlw 51
0436   024B           02089         subwf delay,W
                      02090         set@page NX@LB201
0439   1803           02091         btfsc STATUS,0
043A   2C44           02092         goto NX@LB201
  0000043B            02093 F1_000256 equ $ ; IN [7TIMER HC154.BAS] GOSUB rescan
                      02094         f@call rescan
043E                  02095 CT@LB202
  0000043E            02096 F1_000257 equ $ ; IN [7TIMER HC154.BAS] NEXT delay
043E   3001           02097         movlw 1
043F   07CB           02098         addwf delay,F
                      02099         set@page FR@LB200
0442   1C03           02100         btfss STATUS,0
0443   2C35           02101         goto FR@LB200
0444                  02102 NX@LB201
  00000444            02103 F1_000258 equ $ ; IN [7TIMER HC154.BAS] EWRITE 12,[hh41]
0444   300C           02104         movlw 12
0445   1703           02105         bsf STATUS,6
  00000002            02106 ram_bank = 2
0446   008D           02107         movwf EEADR
0447   1303           02108         bcf STATUS,6
  00000000            02109 ram_bank = 0
0448   0853           02110         movf hh41,W
                      02111         f@call EE@WR
  0000044B            02112 F1_000259 equ $ ; IN [7TIMER HC154.BAS] if nxt = 1 THEN goto setting14
                      02113         set@page BC@LL203
044D   1E87           02114         btfss PORTC,5
044E   2C52           02115         goto BC@LL203
                      02116         F@JUMP setting14
0452                  02117 BC@LL203
  00000452            02118 F1_000260 equ $ ; IN [7TIMER HC154.BAS] if setup = 0 THEN goto main
                      02119         set@page BC@LL205
0454   1A07           02120         btfsc PORTC,4
0455   2C58           02121         goto BC@LL205
                      02122         F@JUMP main
0458                  02123 BC@LL205
  00000458            02124 F1_000261 equ $ ; IN [7TIMER HC154.BAS] goto setting13
                      02125         F@JUMP setting13
045A                  02126 setting14
  0000045A            02127 F1_000264 equ $ ; IN [7TIMER HC154.BAS] wrt[14] = 1
045A   3001           02128         movlw 1
045B   00BC           02129         movwf wrt#14
  0000045C            02130 F1_000265 equ $ ; IN [7TIMER HC154.BAS] if up = 1 THEN hh42 = hh42 + 1
                      02131         set@page BC@LL207
045E   1F07           02132         btfss PORTC,6
045F   2C61           02133         goto BC@LL207
0460   0AD4           02134         incf hh42,F
0461                  02135 BC@LL207
  00000461            02136 F1_000266 equ $ ; IN [7TIMER HC154.BAS] if down = 1 THEN hh42 = hh42 - 1
                      02137         set@page BC@LL209
0463   1F87           02138         btfss PORTC,7
0464   2C66           02139         goto BC@LL209
0465   03D4           02140         decf hh42,F
0466                  02141 BC@LL209
  00000466            02142 F1_000267 equ $ ; IN [7TIMER HC154.BAS] if hh42 < 0 THEN hh42 = 9
                      02143         set@page BC@LL211
0468   1FD4           02144         btfss hh42,7
0469   2C6C           02145         goto BC@LL211
046A   3009           02146         movlw 9
046B   00D4           02147         movwf hh42
046C                  02148 BC@LL211
  0000046C            02149 F1_000268 equ $ ; IN [7TIMER HC154.BAS] if hh42 = 10 THEN hh42 = 0
046C   300A           02150         movlw 10
046D   0254           02151         subwf hh42,W
                      02152         set@page BC@LL213
0470   1D03           02153         btfss STATUS,2
0471   2C73           02154         goto BC@LL213
0472   01D4           02155         clrf hh42
0473                  02156 BC@LL213
  00000473            02157 F1_000269 equ $ ; IN [7TIMER HC154.BAS] FOR delay = 0 TO 50
0473   01CB           02158         clrf delay
0474                  02159 FR@LB215
0474   3033           02160         movlw 51
0475   024B           02161         subwf delay,W
                      02162         set@page NX@LB216
0478   1803           02163         btfsc STATUS,0
0479   2C83           02164         goto NX@LB216
  0000047A            02165 F1_000270 equ $ ; IN [7TIMER HC154.BAS] GOSUB rescan
                      02166         f@call rescan
047D                  02167 CT@LB217
  0000047D            02168 F1_000271 equ $ ; IN [7TIMER HC154.BAS] NEXT delay
047D   3001           02169         movlw 1
047E   07CB           02170         addwf delay,F
                      02171         set@page FR@LB215
0481   1C03           02172         btfss STATUS,0
0482   2C74           02173         goto FR@LB215
0483                  02174 NX@LB216
  00000483            02175 F1_000272 equ $ ; IN [7TIMER HC154.BAS] EWRITE 13,[hh42]
0483   300D           02176         movlw 13
0484   1703           02177         bsf STATUS,6
  00000002            02178 ram_bank = 2
0485   008D           02179         movwf EEADR
0486   1303           02180         bcf STATUS,6
  00000000            02181 ram_bank = 0
0487   0854           02182         movf hh42,W
                      02183         f@call EE@WR
  0000048A            02184 F1_000273 equ $ ; IN [7TIMER HC154.BAS] if nxt = 1 THEN goto setting15
                      02185         set@page BC@LL218
048C   1E87           02186         btfss PORTC,5
048D   2C91           02187         goto BC@LL218
                      02188         F@JUMP setting15
0491                  02189 BC@LL218
  00000491            02190 F1_000274 equ $ ; IN [7TIMER HC154.BAS] if setup = 0 THEN goto main
                      02191         set@page BC@LL220
0493   1A07           02192         btfsc PORTC,4
0494   2C97           02193         goto BC@LL220
                      02194         F@JUMP main
0497                  02195 BC@LL220
  00000497            02196 F1_000275 equ $ ; IN [7TIMER HC154.BAS] goto setting14
                      02197         F@JUMP setting14
0499                  02198 setting15
  00000499            02199 F1_000278 equ $ ; IN [7TIMER HC154.BAS] wrt[15] = 1
0499   3001           02200         movlw 1
049A   00BD           02201         movwf wrt#15
  0000049B            02202 F1_000279 equ $ ; IN [7TIMER HC154.BAS] if up = 1 THEN mm41 = mm41 + 1
                      02203         set@page BC@LL222
049D   1F07           02204         btfss PORTC,6
049E   2CA0           02205         goto BC@LL222
049F   0AE1           02206         incf mm41,F
04A0                  02207 BC@LL222
  000004A0            02208 F1_000280 equ $ ; IN [7TIMER HC154.BAS] if down = 1 THEN mm41 = mm41 - 1
                      02209         set@page BC@LL224
04A2   1F87           02210         btfss PORTC,7
04A3   2CA5           02211         goto BC@LL224
04A4   03E1           02212         decf mm41,F
04A5                  02213 BC@LL224
  000004A5            02214 F1_000281 equ $ ; IN [7TIMER HC154.BAS] if mm41 < 0 THEN mm41 = 9
                      02215         set@page BC@LL226
04A7   1FE1           02216         btfss mm41,7
04A8   2CAB           02217         goto BC@LL226
04A9   3009           02218         movlw 9
04AA   00E1           02219         movwf mm41
04AB                  02220 BC@LL226
  000004AB            02221 F1_000282 equ $ ; IN [7TIMER HC154.BAS] if mm41 = 10 THEN mm41 = 0
04AB   300A           02222         movlw 10
04AC   0261           02223         subwf mm41,W
                      02224         set@page BC@LL228
04AF   1D03           02225         btfss STATUS,2
04B0   2CB2           02226         goto BC@LL228
04B1   01E1           02227         clrf mm41
04B2                  02228 BC@LL228
  000004B2            02229 F1_000283 equ $ ; IN [7TIMER HC154.BAS] FOR delay = 0 TO 40
04B2   01CB           02230         clrf delay
04B3                  02231 FR@LB230
04B3   3029           02232         movlw 41
04B4   024B           02233         subwf delay,W
                      02234         set@page NX@LB231
04B7   1803           02235         btfsc STATUS,0
04B8   2CC2           02236         goto NX@LB231
  000004B9            02237 F1_000284 equ $ ; IN [7TIMER HC154.BAS] GOSUB rescan
                      02238         f@call rescan
04BC                  02239 CT@LB232
  000004BC            02240 F1_000285 equ $ ; IN [7TIMER HC154.BAS] NEXT delay
04BC   3001           02241         movlw 1
04BD   07CB           02242         addwf delay,F
                      02243         set@page FR@LB230
04C0   1C03           02244         btfss STATUS,0
04C1   2CB3           02245         goto FR@LB230
04C2                  02246 NX@LB231
  000004C2            02247 F1_000286 equ $ ; IN [7TIMER HC154.BAS] EWRITE 14,[mm41]
04C2   300E           02248         movlw 14
04C3   1703           02249         bsf STATUS,6
  00000002            02250 ram_bank = 2
04C4   008D           02251         movwf EEADR
04C5   1303           02252         bcf STATUS,6
  00000000            02253 ram_bank = 0
04C6   0861           02254         movf mm41,W
                      02255         f@call EE@WR
  000004C9            02256 F1_000287 equ $ ; IN [7TIMER HC154.BAS] if nxt = 1 THEN goto setting16
                      02257         set@page BC@LL233
04CB   1E87           02258         btfss PORTC,5
04CC   2CD0           02259         goto BC@LL233
                      02260         F@JUMP setting16
04D0                  02261 BC@LL233
  000004D0            02262 F1_000288 equ $ ; IN [7TIMER HC154.BAS] if setup = 0 THEN goto main
                      02263         set@page BC@LL235
04D2   1A07           02264         btfsc PORTC,4
04D3   2CD6           02265         goto BC@LL235
                      02266         F@JUMP main
04D6                  02267 BC@LL235
  000004D6            02268 F1_000289 equ $ ; IN [7TIMER HC154.BAS] goto setting15
                      02269         F@JUMP setting15
04D8                  02270 setting16
  000004D8            02271 F1_000292 equ $ ; IN [7TIMER HC154.BAS] wrt[16] = 1
04D8   3001           02272         movlw 1
04D9   00BE           02273         movwf wrt#16
  000004DA            02274 F1_000293 equ $ ; IN [7TIMER HC154.BAS] if up = 1 THEN mm42 = mm42 + 1
                      02275         set@page BC@LL237
04DC   1F07           02276         btfss PORTC,6
04DD   2CDF           02277         goto BC@LL237
04DE   0AE2           02278         incf mm42,F
04DF                  02279 BC@LL237
  000004DF            02280 F1_000294 equ $ ; IN [7TIMER HC154.BAS] if down = 1 THEN mm42 = mm42 - 1
                      02281         set@page BC@LL239
04E1   1F87           02282         btfss PORTC,7
04E2   2CE4           02283         goto BC@LL239
04E3   03E2           02284         decf mm42,F
04E4                  02285 BC@LL239
  000004E4            02286 F1_000295 equ $ ; IN [7TIMER HC154.BAS] if mm42 < 0 THEN mm42 = 9
                      02287         set@page BC@LL241
04E6   1FE2           02288         btfss mm42,7
04E7   2CEA           02289         goto BC@LL241
04E8   3009           02290         movlw 9
04E9   00E2           02291         movwf mm42
04EA                  02292 BC@LL241
  000004EA            02293 F1_000296 equ $ ; IN [7TIMER HC154.BAS] if mm42 = 10 THEN mm42 = 0
04EA   300A           02294         movlw 10
04EB   0262           02295         subwf mm42,W
                      02296         set@page BC@LL243
04EE   1D03           02297         btfss STATUS,2
04EF   2CF1           02298         goto BC@LL243
04F0   01E2           02299         clrf mm42
04F1                  02300 BC@LL243
  000004F1            02301 F1_000297 equ $ ; IN [7TIMER HC154.BAS] FOR delay = 0 TO 40
04F1   01CB           02302         clrf delay
04F2                  02303 FR@LB245
04F2   3029           02304         movlw 41
04F3   024B           02305         subwf delay,W
                      02306         set@page NX@LB246
04F6   1803           02307         btfsc STATUS,0
04F7   2D01           02308         goto NX@LB246
  000004F8            02309 F1_000298 equ $ ; IN [7TIMER HC154.BAS] GOSUB rescan
                      02310         f@call rescan
04FB                  02311 CT@LB247
  000004FB            02312 F1_000299 equ $ ; IN [7TIMER HC154.BAS] NEXT delay
04FB   3001           02313         movlw 1
04FC   07CB           02314         addwf delay,F
                      02315         set@page FR@LB245
04FF   1C03           02316         btfss STATUS,0
0500   2CF2           02317         goto FR@LB245
0501                  02318 NX@LB246
  00000501            02319 F1_000300 equ $ ; IN [7TIMER HC154.BAS] EWRITE 15,[mm42]
0501   300F           02320         movlw 15
0502   1703           02321         bsf STATUS,6
  00000002            02322 ram_bank = 2
0503   008D           02323         movwf EEADR
0504   1303           02324         bcf STATUS,6
  00000000            02325 ram_bank = 0
0505   0862           02326         movf mm42,W
                      02327         f@call EE@WR
  00000508            02328 F1_000301 equ $ ; IN [7TIMER HC154.BAS] if nxt = 1 THEN goto setting17
                      02329         set@page BC@LL248
050A   1E87           02330         btfss PORTC,5
050B   2D0F           02331         goto BC@LL248
                      02332         F@JUMP setting17
050F                  02333 BC@LL248
  0000050F            02334 F1_000302 equ $ ; IN [7TIMER HC154.BAS] if setup = 0 THEN goto main
                      02335         set@page BC@LL250
0511   1A07           02336         btfsc PORTC,4
0512   2D15           02337         goto BC@LL250
                      02338         F@JUMP main
0515                  02339 BC@LL250
  00000515            02340 F1_000303 equ $ ; IN [7TIMER HC154.BAS] goto setting16
                      02341         F@JUMP setting16
0517                  02342 setting17
  00000517            02343 F1_000306 equ $ ; IN [7TIMER HC154.BAS] wrt[17] = 1
0517   3001           02344         movlw 1
0518   00BF           02345         movwf wrt#17
  00000519            02346 F1_000307 equ $ ; IN [7TIMER HC154.BAS] if up = 1 THEN hh51 = hh51 + 1
                      02347         set@page BC@LL252
051B   1F07           02348         btfss PORTC,6
051C   2D1E           02349         goto BC@LL252
051D   0AD5           02350         incf hh51,F
051E                  02351 BC@LL252
  0000051E            02352 F1_000308 equ $ ; IN [7TIMER HC154.BAS] if down = 1 THEN hh51 = hh51 - 1
                      02353         set@page BC@LL254
0520   1F87           02354         btfss PORTC,7
0521   2D23           02355         goto BC@LL254
0522   03D5           02356         decf hh51,F
0523                  02357 BC@LL254
  00000523            02358 F1_000309 equ $ ; IN [7TIMER HC154.BAS] if hh51 < 0 THEN hh51 = 9
                      02359         set@page BC@LL256
0525   1FD5           02360         btfss hh51,7
0526   2D29           02361         goto BC@LL256
0527   3009           02362         movlw 9
0528   00D5           02363         movwf hh51
0529                  02364 BC@LL256
  00000529            02365 F1_000310 equ $ ; IN [7TIMER HC154.BAS] if hh51 = 10 THEN hh51 = 0
0529   300A           02366         movlw 10
052A   0255           02367         subwf hh51,W
                      02368         set@page BC@LL258
052D   1D03           02369         btfss STATUS,2
052E   2D30           02370         goto BC@LL258
052F   01D5           02371         clrf hh51
0530                  02372 BC@LL258
  00000530            02373 F1_000311 equ $ ; IN [7TIMER HC154.BAS] FOR delay = 0 TO 40
0530   01CB           02374         clrf delay
0531                  02375 FR@LB260
0531   3029           02376         movlw 41
0532   024B           02377         subwf delay,W
                      02378         set@page NX@LB261
0535   1803           02379         btfsc STATUS,0
0536   2D40           02380         goto NX@LB261
  00000537            02381 F1_000312 equ $ ; IN [7TIMER HC154.BAS] GOSUB rescan
                      02382         f@call rescan
053A                  02383 CT@LB262
  0000053A            02384 F1_000313 equ $ ; IN [7TIMER HC154.BAS] NEXT delay
053A   3001           02385         movlw 1
053B   07CB           02386         addwf delay,F
                      02387         set@page FR@LB260
053E   1C03           02388         btfss STATUS,0
053F   2D31           02389         goto FR@LB260
0540                  02390 NX@LB261
  00000540            02391 F1_000314 equ $ ; IN [7TIMER HC154.BAS] EWRITE 16,[hh51]
0540   3010           02392         movlw 16
0541   1703           02393         bsf STATUS,6
  00000002            02394 ram_bank = 2
0542   008D           02395         movwf EEADR
0543   1303           02396         bcf STATUS,6
  00000000            02397 ram_bank = 0
0544   0855           02398         movf hh51,W
                      02399         f@call EE@WR
  00000547            02400 F1_000315 equ $ ; IN [7TIMER HC154.BAS] if nxt = 1 THEN goto setting18
                      02401         set@page BC@LL263
0549   1E87           02402         btfss PORTC,5
054A   2D4E           02403         goto BC@LL263
                      02404         F@JUMP setting18
054E                  02405 BC@LL263
  0000054E            02406 F1_000316 equ $ ; IN [7TIMER HC154.BAS] if setup = 0 THEN goto main
                      02407         set@page BC@LL265
0550   1A07           02408         btfsc PORTC,4
0551   2D54           02409         goto BC@LL265
                      02410         F@JUMP main
0554                  02411 BC@LL265
  00000554            02412 F1_000317 equ $ ; IN [7TIMER HC154.BAS] goto setting17
                      02413         F@JUMP setting17
0556                  02414 setting18
  00000556            02415 F1_000320 equ $ ; IN [7TIMER HC154.BAS] wrt[18] = 1
0556   3001           02416         movlw 1
0557   00C0           02417         movwf wrt#18
  00000558            02418 F1_000321 equ $ ; IN [7TIMER HC154.BAS] if up = 1 THEN hh52 = hh52 + 1
                      02419         set@page BC@LL267
055A   1F07           02420         btfss PORTC,6
055B   2D5D           02421         goto BC@LL267
055C   0AD6           02422         incf hh52,F
055D                  02423 BC@LL267
  0000055D            02424 F1_000322 equ $ ; IN [7TIMER HC154.BAS] if down = 1 THEN hh52 = hh52 - 1
                      02425         set@page BC@LL269
055F   1F87           02426         btfss PORTC,7
0560   2D62           02427         goto BC@LL269
0561   03D6           02428         decf hh52,F
0562                  02429 BC@LL269
  00000562            02430 F1_000323 equ $ ; IN [7TIMER HC154.BAS] if hh52 < 0 THEN hh52 = 9
                      02431         set@page BC@LL271
0564   1FD6           02432         btfss hh52,7
0565   2D68           02433         goto BC@LL271
0566   3009           02434         movlw 9
0567   00D6           02435         movwf hh52
0568                  02436 BC@LL271
  00000568            02437 F1_000324 equ $ ; IN [7TIMER HC154.BAS] if hh52 = 10 THEN hh52 = 0
0568   300A           02438         movlw 10
0569   0256           02439         subwf hh52,W
                      02440         set@page BC@LL273
056C   1D03           02441         btfss STATUS,2
056D   2D6F           02442         goto BC@LL273
056E   01D6           02443         clrf hh52
056F                  02444 BC@LL273
  0000056F            02445 F1_000325 equ $ ; IN [7TIMER HC154.BAS] FOR delay = 0 TO 40
056F   01CB           02446         clrf delay
0570                  02447 FR@LB275
0570   3029           02448         movlw 41
0571   024B           02449         subwf delay,W
                      02450         set@page NX@LB276
0574   1803           02451         btfsc STATUS,0
0575   2D7F           02452         goto NX@LB276
  00000576            02453 F1_000326 equ $ ; IN [7TIMER HC154.BAS] GOSUB rescan
                      02454         f@call rescan
0579                  02455 CT@LB277
  00000579            02456 F1_000327 equ $ ; IN [7TIMER HC154.BAS] NEXT delay
0579   3001           02457         movlw 1
057A   07CB           02458         addwf delay,F
                      02459         set@page FR@LB275
057D   1C03           02460         btfss STATUS,0
057E   2D70           02461         goto FR@LB275
057F                  02462 NX@LB276
  0000057F            02463 F1_000328 equ $ ; IN [7TIMER HC154.BAS] EWRITE 17,[hh52]
057F   3011           02464         movlw 17
0580   1703           02465         bsf STATUS,6
  00000002            02466 ram_bank = 2
0581   008D           02467         movwf EEADR
0582   1303           02468         bcf STATUS,6
  00000000            02469 ram_bank = 0
0583   0856           02470         movf hh52,W
                      02471         f@call EE@WR
  00000586            02472 F1_000329 equ $ ; IN [7TIMER HC154.BAS] if nxt = 1 THEN goto setting19
                      02473         set@page BC@LL278
0588   1E87           02474         btfss PORTC,5
0589   2D8D           02475         goto BC@LL278
                      02476         F@JUMP setting19
058D                  02477 BC@LL278
  0000058D            02478 F1_000330 equ $ ; IN [7TIMER HC154.BAS] if setup = 0 THEN goto main
                      02479         set@page BC@LL280
058F   1A07           02480         btfsc PORTC,4
0590   2D93           02481         goto BC@LL280
                      02482         F@JUMP main
0593                  02483 BC@LL280
  00000593            02484 F1_000331 equ $ ; IN [7TIMER HC154.BAS] goto setting18
                      02485         F@JUMP setting18
0595                  02486 setting19
  00000595            02487 F1_000334 equ $ ; IN [7TIMER HC154.BAS] wrt[19] = 1
0595   3001           02488         movlw 1
0596   00C1           02489         movwf wrt#19
  00000597            02490 F1_000335 equ $ ; IN [7TIMER HC154.BAS] if up = 1 THEN mm51 = mm51 + 1
                      02491         set@page BC@LL282
0599   1F07           02492         btfss PORTC,6
059A   2D9C           02493         goto BC@LL282
059B   0AE3           02494         incf mm51,F
059C                  02495 BC@LL282
  0000059C            02496 F1_000336 equ $ ; IN [7TIMER HC154.BAS] if down = 1 THEN mm51 = mm51 - 1
                      02497         set@page BC@LL284
059E   1F87           02498         btfss PORTC,7
059F   2DA1           02499         goto BC@LL284
05A0   03E3           02500         decf mm51,F
05A1                  02501 BC@LL284
  000005A1            02502 F1_000337 equ $ ; IN [7TIMER HC154.BAS] if mm51 < 0 THEN mm51 = 9
                      02503         set@page BC@LL286
05A3   1FE3           02504         btfss mm51,7
05A4   2DA7           02505         goto BC@LL286
05A5   3009           02506         movlw 9
05A6   00E3           02507         movwf mm51
05A7                  02508 BC@LL286
  000005A7            02509 F1_000338 equ $ ; IN [7TIMER HC154.BAS] if mm51 = 10 THEN mm51 = 0
05A7   300A           02510         movlw 10
05A8   0263           02511         subwf mm51,W
                      02512         set@page BC@LL288
05AB   1D03           02513         btfss STATUS,2
05AC   2DAE           02514         goto BC@LL288
05AD   01E3           02515         clrf mm51
05AE                  02516 BC@LL288
  000005AE            02517 F1_000339 equ $ ; IN [7TIMER HC154.BAS] FOR delay = 0 TO 40
05AE   01CB           02518         clrf delay
05AF                  02519 FR@LB290
05AF   3029           02520         movlw 41
05B0   024B           02521         subwf delay,W
                      02522         set@page NX@LB291
05B3   1803           02523         btfsc STATUS,0
05B4   2DBE           02524         goto NX@LB291
  000005B5            02525 F1_000340 equ $ ; IN [7TIMER HC154.BAS] GOSUB rescan
                      02526         f@call rescan
05B8                  02527 CT@LB292
  000005B8            02528 F1_000341 equ $ ; IN [7TIMER HC154.BAS] NEXT delay
05B8   3001           02529         movlw 1
05B9   07CB           02530         addwf delay,F
                      02531         set@page FR@LB290
05BC   1C03           02532         btfss STATUS,0
05BD   2DAF           02533         goto FR@LB290
05BE                  02534 NX@LB291
  000005BE            02535 F1_000342 equ $ ; IN [7TIMER HC154.BAS] EWRITE 18,[mm51]
05BE   3012           02536         movlw 18
05BF   1703           02537         bsf STATUS,6
  00000002            02538 ram_bank = 2
05C0   008D           02539         movwf EEADR
05C1   1303           02540         bcf STATUS,6
  00000000            02541 ram_bank = 0
05C2   0863           02542         movf mm51,W
                      02543         f@call EE@WR
  000005C5            02544 F1_000343 equ $ ; IN [7TIMER HC154.BAS] if nxt = 1 THEN goto setting20
                      02545         set@page BC@LL293
05C7   1E87           02546         btfss PORTC,5
05C8   2DCC           02547         goto BC@LL293
                      02548         F@JUMP setting20
05CC                  02549 BC@LL293
  000005CC            02550 F1_000344 equ $ ; IN [7TIMER HC154.BAS] if setup = 0 THEN goto main
                      02551         set@page BC@LL295
05CE   1A07           02552         btfsc PORTC,4
05CF   2DD2           02553         goto BC@LL295
                      02554         F@JUMP main
05D2                  02555 BC@LL295
  000005D2            02556 F1_000345 equ $ ; IN [7TIMER HC154.BAS] goto setting19
                      02557         F@JUMP setting19
05D4                  02558 setting20
  000005D4            02559 F1_000348 equ $ ; IN [7TIMER HC154.BAS] wrt[20] = 1
05D4   3001           02560         movlw 1
05D5   00C2           02561         movwf wrt#20
  000005D6            02562 F1_000349 equ $ ; IN [7TIMER HC154.BAS] if up = 1 THEN mm52 = mm52 + 1
                      02563         set@page BC@LL297
05D8   1F07           02564         btfss PORTC,6
05D9   2DDB           02565         goto BC@LL297
05DA   0AE4           02566         incf mm52,F
05DB                  02567 BC@LL297
  000005DB            02568 F1_000350 equ $ ; IN [7TIMER HC154.BAS] if down = 1 THEN mm52 = mm52 - 1
                      02569         set@page BC@LL299
05DD   1F87           02570         btfss PORTC,7
05DE   2DE0           02571         goto BC@LL299
05DF   03E4           02572         decf mm52,F
05E0                  02573 BC@LL299
  000005E0            02574 F1_000351 equ $ ; IN [7TIMER HC154.BAS] if mm52 < 0 THEN mm52 = 9
                      02575         set@page BC@LL301
05E2   1FE4           02576         btfss mm52,7
05E3   2DE6           02577         goto BC@LL301
05E4   3009           02578         movlw 9
05E5   00E4           02579         movwf mm52
05E6                  02580 BC@LL301
  000005E6            02581 F1_000352 equ $ ; IN [7TIMER HC154.BAS] if mm52 = 10 THEN mm52 = 0
05E6   300A           02582         movlw 10
05E7   0264           02583         subwf mm52,W
                      02584         set@page BC@LL303
05EA   1D03           02585         btfss STATUS,2
05EB   2DED           02586         goto BC@LL303
05EC   01E4           02587         clrf mm52
05ED                  02588 BC@LL303
  000005ED            02589 F1_000353 equ $ ; IN [7TIMER HC154.BAS] FOR delay = 0 TO 40
05ED   01CB           02590         clrf delay
05EE                  02591 FR@LB305
05EE   3029           02592         movlw 41
05EF   024B           02593         subwf delay,W
                      02594         set@page NX@LB306
05F2   1803           02595         btfsc STATUS,0
05F3   2DFD           02596         goto NX@LB306
  000005F4            02597 F1_000354 equ $ ; IN [7TIMER HC154.BAS] GOSUB rescan
                      02598         f@call rescan
05F7                  02599 CT@LB307
  000005F7            02600 F1_000355 equ $ ; IN [7TIMER HC154.BAS] NEXT delay
05F7   3001           02601         movlw 1
05F8   07CB           02602         addwf delay,F
                      02603         set@page FR@LB305
05FB   1C03           02604         btfss STATUS,0
05FC   2DEE           02605         goto FR@LB305
05FD                  02606 NX@LB306
  000005FD            02607 F1_000356 equ $ ; IN [7TIMER HC154.BAS] EWRITE 19,[mm52]
05FD   3013           02608         movlw 19
05FE   1703           02609         bsf STATUS,6
  00000002            02610 ram_bank = 2
05FF   008D           02611         movwf EEADR
0600   1303           02612         bcf STATUS,6
  00000000            02613 ram_bank = 0
0601   0864           02614         movf mm52,W
                      02615         f@call EE@WR
  00000604            02616 F1_000357 equ $ ; IN [7TIMER HC154.BAS] if nxt = 1 THEN goto setting21
                      02617         set@page BC@LL308
0606   1E87           02618         btfss PORTC,5
0607   2E0B           02619         goto BC@LL308
                      02620         F@JUMP setting21
060B                  02621 BC@LL308
  0000060B            02622 F1_000358 equ $ ; IN [7TIMER HC154.BAS] if setup = 0 THEN goto main
                      02623         set@page BC@LL310
060D   1A07           02624         btfsc PORTC,4
060E   2E11           02625         goto BC@LL310
                      02626         F@JUMP main
0611                  02627 BC@LL310
  00000611            02628 F1_000359 equ $ ; IN [7TIMER HC154.BAS] goto setting20
                      02629         F@JUMP setting20
0613                  02630 setting21
  00000613            02631 F1_000362 equ $ ; IN [7TIMER HC154.BAS] wrt[21] = 1
0613   3001           02632         movlw 1
0614   00C3           02633         movwf wrt#21
  00000615            02634 F1_000363 equ $ ; IN [7TIMER HC154.BAS] if up = 1 THEN hh61 = hh61 + 1
                      02635         set@page BC@LL312
0617   1F07           02636         btfss PORTC,6
0618   2E1A           02637         goto BC@LL312
0619   0AD7           02638         incf hh61,F
061A                  02639 BC@LL312
  0000061A            02640 F1_000364 equ $ ; IN [7TIMER HC154.BAS] if down = 1 THEN hh61 = hh61 - 1
                      02641         set@page BC@LL314
061C   1F87           02642         btfss PORTC,7
061D   2E1F           02643         goto BC@LL314
061E   03D7           02644         decf hh61,F
061F                  02645 BC@LL314
  0000061F            02646 F1_000365 equ $ ; IN [7TIMER HC154.BAS] if hh61 < 0 THEN hh61 = 9
                      02647         set@page BC@LL316
0621   1FD7           02648         btfss hh61,7
0622   2E25           02649         goto BC@LL316
0623   3009           02650         movlw 9
0624   00D7           02651         movwf hh61
0625                  02652 BC@LL316
  00000625            02653 F1_000366 equ $ ; IN [7TIMER HC154.BAS] if hh61 = 10 THEN hh61 = 0
0625   300A           02654         movlw 10
0626   0257           02655         subwf hh61,W
                      02656         set@page BC@LL318
0629   1D03           02657         btfss STATUS,2
062A   2E2C           02658         goto BC@LL318
062B   01D7           02659         clrf hh61
062C                  02660 BC@LL318
  0000062C            02661 F1_000367 equ $ ; IN [7TIMER HC154.BAS] FOR delay = 0 TO 30
062C   01CB           02662         clrf delay
062D                  02663 FR@LB320
062D   301F           02664         movlw 31
062E   024B           02665         subwf delay,W
                      02666         set@page NX@LB321
0631   1803           02667         btfsc STATUS,0
0632   2E3C           02668         goto NX@LB321
  00000633            02669 F1_000368 equ $ ; IN [7TIMER HC154.BAS] GOSUB rescan
                      02670         f@call rescan
0636                  02671 CT@LB322
  00000636            02672 F1_000369 equ $ ; IN [7TIMER HC154.BAS] NEXT delay
0636   3001           02673         movlw 1
0637   07CB           02674         addwf delay,F
                      02675         set@page FR@LB320
063A   1C03           02676         btfss STATUS,0
063B   2E2D           02677         goto FR@LB320
063C                  02678 NX@LB321
  0000063C            02679 F1_000370 equ $ ; IN [7TIMER HC154.BAS] EWRITE 20,[hh61]
063C   3014           02680         movlw 20
063D   1703           02681         bsf STATUS,6
  00000002            02682 ram_bank = 2
063E   008D           02683         movwf EEADR
063F   1303           02684         bcf STATUS,6
  00000000            02685 ram_bank = 0
0640   0857           02686         movf hh61,W
                      02687         f@call EE@WR
  00000643            02688 F1_000371 equ $ ; IN [7TIMER HC154.BAS] if nxt = 1 THEN goto setting22
                      02689         set@page BC@LL323
0645   1E87           02690         btfss PORTC,5
0646   2E4A           02691         goto BC@LL323
                      02692         F@JUMP setting22
064A                  02693 BC@LL323
  0000064A            02694 F1_000372 equ $ ; IN [7TIMER HC154.BAS] if setup = 0 THEN goto main
                      02695         set@page BC@LL325
064C   1A07           02696         btfsc PORTC,4
064D   2E50           02697         goto BC@LL325
                      02698         F@JUMP main
0650                  02699 BC@LL325
  00000650            02700 F1_000373 equ $ ; IN [7TIMER HC154.BAS] goto setting21
                      02701         F@JUMP setting21
0652                  02702 setting22
  00000652            02703 F1_000376 equ $ ; IN [7TIMER HC154.BAS] wrt[22] = 1
0652   3001           02704         movlw 1
0653   00C4           02705         movwf wrt#22
  00000654            02706 F1_000377 equ $ ; IN [7TIMER HC154.BAS] if up = 1 THEN hh62 = hh62 + 1
                      02707         set@page BC@LL327
0656   1F07           02708         btfss PORTC,6
0657   2E59           02709         goto BC@LL327
0658   0AD8           02710         incf hh62,F
0659                  02711 BC@LL327
  00000659            02712 F1_000378 equ $ ; IN [7TIMER HC154.BAS] if down = 1 THEN hh62 = hh62 - 1
                      02713         set@page BC@LL329
065B   1F87           02714         btfss PORTC,7
065C   2E5E           02715         goto BC@LL329
065D   03D8           02716         decf hh62,F
065E                  02717 BC@LL329
  0000065E            02718 F1_000379 equ $ ; IN [7TIMER HC154.BAS] if hh62 < 0 THEN hh62 = 9
                      02719         set@page BC@LL331
0660   1FD8           02720         btfss hh62,7
0661   2E64           02721         goto BC@LL331
0662   3009           02722         movlw 9
0663   00D8           02723         movwf hh62
0664                  02724 BC@LL331
  00000664            02725 F1_000380 equ $ ; IN [7TIMER HC154.BAS] if hh62 = 10 THEN hh62 = 0
0664   300A           02726         movlw 10
0665   0258           02727         subwf hh62,W
                      02728         set@page BC@LL333
0668   1D03           02729         btfss STATUS,2
0669   2E6B           02730         goto BC@LL333
066A   01D8           02731         clrf hh62
066B                  02732 BC@LL333
  0000066B            02733 F1_000381 equ $ ; IN [7TIMER HC154.BAS] FOR delay = 0 TO 30
066B   01CB           02734         clrf delay
066C                  02735 FR@LB335
066C   301F           02736         movlw 31
066D   024B           02737         subwf delay,W
                      02738         set@page NX@LB336
0670   1803           02739         btfsc STATUS,0
0671   2E7B           02740         goto NX@LB336
  00000672            02741 F1_000382 equ $ ; IN [7TIMER HC154.BAS] GOSUB rescan
                      02742         f@call rescan
0675                  02743 CT@LB337
  00000675            02744 F1_000383 equ $ ; IN [7TIMER HC154.BAS] NEXT delay
0675   3001           02745         movlw 1
0676   07CB           02746         addwf delay,F
                      02747         set@page FR@LB335
0679   1C03           02748         btfss STATUS,0
067A   2E6C           02749         goto FR@LB335
067B                  02750 NX@LB336
  0000067B            02751 F1_000384 equ $ ; IN [7TIMER HC154.BAS] EWRITE 21,[hh62]
067B   3015           02752         movlw 21
067C   1703           02753         bsf STATUS,6
  00000002            02754 ram_bank = 2
067D   008D           02755         movwf EEADR
067E   1303           02756         bcf STATUS,6
  00000000            02757 ram_bank = 0
067F   0858           02758         movf hh62,W
                      02759         f@call EE@WR
  00000682            02760 F1_000385 equ $ ; IN [7TIMER HC154.BAS] if nxt = 1 THEN goto setting23
                      02761         set@page BC@LL338
0684   1E87           02762         btfss PORTC,5
0685   2E89           02763         goto BC@LL338
                      02764         F@JUMP setting23
0689                  02765 BC@LL338
  00000689            02766 F1_000386 equ $ ; IN [7TIMER HC154.BAS] if setup = 0 THEN goto main
                      02767         set@page BC@LL340
068B   1A07           02768         btfsc PORTC,4
068C   2E8F           02769         goto BC@LL340
                      02770         F@JUMP main
068F                  02771 BC@LL340
  0000068F            02772 F1_000387 equ $ ; IN [7TIMER HC154.BAS] goto setting22
                      02773         F@JUMP setting22
0691                  02774 setting23
  00000691            02775 F1_000390 equ $ ; IN [7TIMER HC154.BAS] wrt[23] = 1
0691   3001           02776         movlw 1
0692   00C5           02777         movwf wrt#23
  00000693            02778 F1_000391 equ $ ; IN [7TIMER HC154.BAS] if up = 1 THEN mm61 = mm61 + 1
                      02779         set@page BC@LL342
0695   1F07           02780         btfss PORTC,6
0696   2E98           02781         goto BC@LL342
0697   0AE5           02782         incf mm61,F
0698                  02783 BC@LL342
  00000698            02784 F1_000392 equ $ ; IN [7TIMER HC154.BAS] if down = 1 THEN mm61 = mm61 - 1
                      02785         set@page BC@LL344
069A   1F87           02786         btfss PORTC,7
069B   2E9D           02787         goto BC@LL344
069C   03E5           02788         decf mm61,F
069D                  02789 BC@LL344
  0000069D            02790 F1_000393 equ $ ; IN [7TIMER HC154.BAS] if mm61 < 0 THEN mm61 = 9
                      02791         set@page BC@LL346
069F   1FE5           02792         btfss mm61,7
06A0   2EA3           02793         goto BC@LL346
06A1   3009           02794         movlw 9
06A2   00E5           02795         movwf mm61
06A3                  02796 BC@LL346
  000006A3            02797 F1_000394 equ $ ; IN [7TIMER HC154.BAS] if mm61 = 10 THEN mm61 = 0
06A3   300A           02798         movlw 10
06A4   0265           02799         subwf mm61,W
                      02800         set@page BC@LL348
06A7   1D03           02801         btfss STATUS,2
06A8   2EAA           02802         goto BC@LL348
06A9   01E5           02803         clrf mm61
06AA                  02804 BC@LL348
  000006AA            02805 F1_000395 equ $ ; IN [7TIMER HC154.BAS] FOR delay = 0 TO 30
06AA   01CB           02806         clrf delay
06AB                  02807 FR@LB350
06AB   301F           02808         movlw 31
06AC   024B           02809         subwf delay,W
                      02810         set@page NX@LB351
06AF   1803           02811         btfsc STATUS,0
06B0   2EBA           02812         goto NX@LB351
  000006B1            02813 F1_000396 equ $ ; IN [7TIMER HC154.BAS] GOSUB rescan
                      02814         f@call rescan
06B4                  02815 CT@LB352
  000006B4            02816 F1_000397 equ $ ; IN [7TIMER HC154.BAS] NEXT delay
06B4   3001           02817         movlw 1
06B5   07CB           02818         addwf delay,F
                      02819         set@page FR@LB350
06B8   1C03           02820         btfss STATUS,0
06B9   2EAB           02821         goto FR@LB350
06BA                  02822 NX@LB351
  000006BA            02823 F1_000398 equ $ ; IN [7TIMER HC154.BAS] EWRITE 22,[mm61]
06BA   3016           02824         movlw 22
06BB   1703           02825         bsf STATUS,6
  00000002            02826 ram_bank = 2
06BC   008D           02827         movwf EEADR
06BD   1303           02828         bcf STATUS,6
  00000000            02829 ram_bank = 0
06BE   0865           02830         movf mm61,W
                      02831         f@call EE@WR
  000006C1            02832 F1_000399 equ $ ; IN [7TIMER HC154.BAS] if nxt = 1 THEN goto setting24
                      02833         set@page BC@LL353
06C3   1E87           02834         btfss PORTC,5
06C4   2EC8           02835         goto BC@LL353
                      02836         F@JUMP setting24
06C8                  02837 BC@LL353
  000006C8            02838 F1_000400 equ $ ; IN [7TIMER HC154.BAS] if setup = 0 THEN goto main
                      02839         set@page BC@LL355
06CA   1A07           02840         btfsc PORTC,4
06CB   2ECE           02841         goto BC@LL355
                      02842         F@JUMP main
06CE                  02843 BC@LL355
  000006CE            02844 F1_000401 equ $ ; IN [7TIMER HC154.BAS] goto setting23
                      02845         F@JUMP setting23
06D0                  02846 setting24
  000006D0            02847 F1_000404 equ $ ; IN [7TIMER HC154.BAS] wrt[24] = 1
06D0   3001           02848         movlw 1
06D1   00C6           02849         movwf wrt#24
  000006D2            02850 F1_000405 equ $ ; IN [7TIMER HC154.BAS] if up = 1 THEN mm62 = mm62 + 1
                      02851         set@page BC@LL357
06D4   1F07           02852         btfss PORTC,6
06D5   2ED7           02853         goto BC@LL357
06D6   0AE6           02854         incf mm62,F
06D7                  02855 BC@LL357
  000006D7            02856 F1_000406 equ $ ; IN [7TIMER HC154.BAS] if down = 1 THEN mm62 = mm62 - 1
                      02857         set@page BC@LL359
06D9   1F87           02858         btfss PORTC,7
06DA   2EDC           02859         goto BC@LL359
06DB   03E6           02860         decf mm62,F
06DC                  02861 BC@LL359
  000006DC            02862 F1_000407 equ $ ; IN [7TIMER HC154.BAS] if mm62 < 0 THEN mm62 = 9
                      02863         set@page BC@LL361
06DE   1FE6           02864         btfss mm62,7
06DF   2EE2           02865         goto BC@LL361
06E0   3009           02866         movlw 9
06E1   00E6           02867         movwf mm62
06E2                  02868 BC@LL361
  000006E2            02869 F1_000408 equ $ ; IN [7TIMER HC154.BAS] if mm62 = 10 THEN mm62 = 0
06E2   300A           02870         movlw 10
06E3   0266           02871         subwf mm62,W
                      02872         set@page BC@LL363
06E6   1D03           02873         btfss STATUS,2
06E7   2EE9           02874         goto BC@LL363
06E8   01E6           02875         clrf mm62
06E9                  02876 BC@LL363
  000006E9            02877 F1_000409 equ $ ; IN [7TIMER HC154.BAS] FOR delay = 0 TO 30
06E9   01CB           02878         clrf delay
06EA                  02879 FR@LB365
06EA   301F           02880         movlw 31
06EB   024B           02881         subwf delay,W
                      02882         set@page NX@LB366
06EE   1803           02883         btfsc STATUS,0
06EF   2EF9           02884         goto NX@LB366
  000006F0            02885 F1_000410 equ $ ; IN [7TIMER HC154.BAS] GOSUB rescan
                      02886         f@call rescan
06F3                  02887 CT@LB367
  000006F3            02888 F1_000411 equ $ ; IN [7TIMER HC154.BAS] NEXT delay
06F3   3001           02889         movlw 1
06F4   07CB           02890         addwf delay,F
                      02891         set@page FR@LB365
06F7   1C03           02892         btfss STATUS,0
06F8   2EEA           02893         goto FR@LB365
06F9                  02894 NX@LB366
  000006F9            02895 F1_000412 equ $ ; IN [7TIMER HC154.BAS] EWRITE 23,[mm62]
06F9   3017           02896         movlw 23
06FA   1703           02897         bsf STATUS,6
  00000002            02898 ram_bank = 2
06FB   008D           02899         movwf EEADR
06FC   1303           02900         bcf STATUS,6
  00000000            02901 ram_bank = 0
06FD   0866           02902         movf mm62,W
                      02903         f@call EE@WR
  00000700            02904 F1_000413 equ $ ; IN [7TIMER HC154.BAS] if nxt = 1 THEN goto setting25
                      02905         set@page BC@LL368
0702   1E87           02906         btfss PORTC,5
0703   2F07           02907         goto BC@LL368
                      02908         F@JUMP setting25
0707                  02909 BC@LL368
  00000707            02910 F1_000414 equ $ ; IN [7TIMER HC154.BAS] if setup = 0 THEN goto main
                      02911         set@page BC@LL370
0709   1A07           02912         btfsc PORTC,4
070A   2F0D           02913         goto BC@LL370
                      02914         F@JUMP main
070D                  02915 BC@LL370
  0000070D            02916 F1_000415 equ $ ; IN [7TIMER HC154.BAS] goto setting24
                      02917         F@JUMP setting24
070F                  02918 setting25
  0000070F            02919 F1_000418 equ $ ; IN [7TIMER HC154.BAS] wrt[25] = 1
070F   3001           02920         movlw 1
0710   00C7           02921         movwf wrt#25
  00000711            02922 F1_000419 equ $ ; IN [7TIMER HC154.BAS] if up = 1 THEN hh71 = hh71 + 1
                      02923         set@page BC@LL372
0713   1F07           02924         btfss PORTC,6
0714   2F16           02925         goto BC@LL372
0715   0AD9           02926         incf hh71,F
0716                  02927 BC@LL372
  00000716            02928 F1_000420 equ $ ; IN [7TIMER HC154.BAS] if down = 1 THEN hh71 = hh71 - 1
                      02929         set@page BC@LL374
0718   1F87           02930         btfss PORTC,7
0719   2F1B           02931         goto BC@LL374
071A   03D9           02932         decf hh71,F
071B                  02933 BC@LL374
  0000071B            02934 F1_000421 equ $ ; IN [7TIMER HC154.BAS] if hh71 < 0 THEN hh71 = 9
                      02935         set@page BC@LL376
071D   1FD9           02936         btfss hh71,7
071E   2F21           02937         goto BC@LL376
071F   3009           02938         movlw 9
0720   00D9           02939         movwf hh71
0721                  02940 BC@LL376
  00000721            02941 F1_000422 equ $ ; IN [7TIMER HC154.BAS] if hh71 = 10 THEN hh71 = 0
0721   300A           02942         movlw 10
0722   0259           02943         subwf hh71,W
                      02944         set@page BC@LL378
0725   1D03           02945         btfss STATUS,2
0726   2F28           02946         goto BC@LL378
0727   01D9           02947         clrf hh71
0728                  02948 BC@LL378
  00000728            02949 F1_000423 equ $ ; IN [7TIMER HC154.BAS] FOR delay = 0 TO 30
0728   01CB           02950         clrf delay
0729                  02951 FR@LB380
0729   301F           02952         movlw 31
072A   024B           02953         subwf delay,W
                      02954         set@page NX@LB381
072D   1803           02955         btfsc STATUS,0
072E   2F38           02956         goto NX@LB381
  0000072F            02957 F1_000424 equ $ ; IN [7TIMER HC154.BAS] GOSUB rescan
                      02958         f@call rescan
0732                  02959 CT@LB382
  00000732            02960 F1_000425 equ $ ; IN [7TIMER HC154.BAS] NEXT delay
0732   3001           02961         movlw 1
0733   07CB           02962         addwf delay,F
                      02963         set@page FR@LB380
0736   1C03           02964         btfss STATUS,0
0737   2F29           02965         goto FR@LB380
0738                  02966 NX@LB381
  00000738            02967 F1_000426 equ $ ; IN [7TIMER HC154.BAS] EWRITE 24,[hh71]
0738   3018           02968         movlw 24
0739   1703           02969         bsf STATUS,6
  00000002            02970 ram_bank = 2
073A   008D           02971         movwf EEADR
073B   1303           02972         bcf STATUS,6
  00000000            02973 ram_bank = 0
073C   0859           02974         movf hh71,W
                      02975         f@call EE@WR
  0000073F            02976 F1_000427 equ $ ; IN [7TIMER HC154.BAS] if nxt = 1 THEN goto setting26
                      02977         set@page BC@LL383
0741   1E87           02978         btfss PORTC,5
0742   2F46           02979         goto BC@LL383
                      02980         F@JUMP setting26
0746                  02981 BC@LL383
  00000746            02982 F1_000428 equ $ ; IN [7TIMER HC154.BAS] if setup = 0 THEN goto main
                      02983         set@page BC@LL385
0748   1A07           02984         btfsc PORTC,4
0749   2F4C           02985         goto BC@LL385
                      02986         F@JUMP main
074C                  02987 BC@LL385
  0000074C            02988 F1_000429 equ $ ; IN [7TIMER HC154.BAS] goto setting25
                      02989         F@JUMP setting25
074E                  02990 setting26
  0000074E            02991 F1_000432 equ $ ; IN [7TIMER HC154.BAS] wrt[26] = 1
074E   3001           02992         movlw 1
074F   00C8           02993         movwf wrt#26
  00000750            02994 F1_000433 equ $ ; IN [7TIMER HC154.BAS] if up = 1 THEN hh72 = hh72 + 1
                      02995         set@page BC@LL387
0752   1F07           02996         btfss PORTC,6
0753   2F55           02997         goto BC@LL387
0754   0ADA           02998         incf hh72,F
0755                  02999 BC@LL387
  00000755            03000 F1_000434 equ $ ; IN [7TIMER HC154.BAS] if down = 1 THEN hh72 = hh72 - 1
                      03001         set@page BC@LL389
0757   1F87           03002         btfss PORTC,7
0758   2F5A           03003         goto BC@LL389
0759   03DA           03004         decf hh72,F
075A                  03005 BC@LL389
  0000075A            03006 F1_000435 equ $ ; IN [7TIMER HC154.BAS] if hh72 < 0 THEN hh72 = 9
                      03007         set@page BC@LL391
075C   1FDA           03008         btfss hh72,7
075D   2F60           03009         goto BC@LL391
075E   3009           03010         movlw 9
075F   00DA           03011         movwf hh72
0760                  03012 BC@LL391
  00000760            03013 F1_000436 equ $ ; IN [7TIMER HC154.BAS] if hh72 = 10 THEN hh72 = 0
0760   300A           03014         movlw 10
0761   025A           03015         subwf hh72,W
                      03016         set@page BC@LL393
0764   1D03           03017         btfss STATUS,2
0765   2F67           03018         goto BC@LL393
0766   01DA           03019         clrf hh72
0767                  03020 BC@LL393
  00000767            03021 F1_000437 equ $ ; IN [7TIMER HC154.BAS] FOR delay = 0 TO 20
0767   01CB           03022         clrf delay
0768                  03023 FR@LB395
0768   3015           03024         movlw 21
0769   024B           03025         subwf delay,W
                      03026         set@page NX@LB396
076C   1803           03027         btfsc STATUS,0
076D   2F77           03028         goto NX@LB396
  0000076E            03029 F1_000438 equ $ ; IN [7TIMER HC154.BAS] GOSUB rescan
                      03030         f@call rescan
0771                  03031 CT@LB397
  00000771            03032 F1_000439 equ $ ; IN [7TIMER HC154.BAS] NEXT delay
0771   3001           03033         movlw 1
0772   07CB           03034         addwf delay,F
                      03035         set@page FR@LB395
0775   1C03           03036         btfss STATUS,0
0776   2F68           03037         goto FR@LB395
0777                  03038 NX@LB396
  00000777            03039 F1_000440 equ $ ; IN [7TIMER HC154.BAS] EWRITE 25,[hh72]
0777   3019           03040         movlw 25
0778   1703           03041         bsf STATUS,6
  00000002            03042 ram_bank = 2
0779   008D           03043         movwf EEADR
077A   1303           03044         bcf STATUS,6
  00000000            03045 ram_bank = 0
077B   085A           03046         movf hh72,W
                      03047         f@call EE@WR
  0000077E            03048 F1_000441 equ $ ; IN [7TIMER HC154.BAS] if nxt = 1 THEN goto setting27
                      03049         set@page BC@LL398
0780   1E87           03050         btfss PORTC,5
0781   2F85           03051         goto BC@LL398
                      03052         F@JUMP setting27
0785                  03053 BC@LL398
  00000785            03054 F1_000442 equ $ ; IN [7TIMER HC154.BAS] if setup = 0 THEN goto main
                      03055         set@page BC@LL400
0787   1A07           03056         btfsc PORTC,4
0788   2F8B           03057         goto BC@LL400
                      03058         F@JUMP main
078B                  03059 BC@LL400
  0000078B            03060 F1_000443 equ $ ; IN [7TIMER HC154.BAS] goto setting26
                      03061         F@JUMP setting26
078D                  03062 setting27
  0000078D            03063 F1_000446 equ $ ; IN [7TIMER HC154.BAS] wrt[27] = 1
078D   3001           03064         movlw 1
078E   00C9           03065         movwf wrt#27
  0000078F            03066 F1_000447 equ $ ; IN [7TIMER HC154.BAS] if up = 1 THEN mm71 = mm71 + 1
                      03067         set@page BC@LL402
0791   1F07           03068         btfss PORTC,6
0792   2F94           03069         goto BC@LL402
0793   0AE7           03070         incf mm71,F
0794                  03071 BC@LL402
  00000794            03072 F1_000448 equ $ ; IN [7TIMER HC154.BAS] if down = 1 THEN mm71 = mm71 - 1
                      03073         set@page BC@LL404
0796   1F87           03074         btfss PORTC,7
0797   2F99           03075         goto BC@LL404
0798   03E7           03076         decf mm71,F
0799                  03077 BC@LL404
  00000799            03078 F1_000449 equ $ ; IN [7TIMER HC154.BAS] if mm71 < 0 THEN mm71 = 9
                      03079         set@page BC@LL406
079B   1FE7           03080         btfss mm71,7
079C   2F9F           03081         goto BC@LL406
079D   3009           03082         movlw 9
079E   00E7           03083         movwf mm71
079F                  03084 BC@LL406
  0000079F            03085 F1_000450 equ $ ; IN [7TIMER HC154.BAS] if mm71 = 10 THEN mm71 = 0
079F   300A           03086         movlw 10
07A0   0267           03087         subwf mm71,W
                      03088         set@page BC@LL408
07A3   1D03           03089         btfss STATUS,2
07A4   2FA6           03090         goto BC@LL408
07A5   01E7           03091         clrf mm71
07A6                  03092 BC@LL408
  000007A6            03093 F1_000451 equ $ ; IN [7TIMER HC154.BAS] FOR delay = 0 TO 20
07A6   01CB           03094         clrf delay
07A7                  03095 FR@LB410
07A7   3015           03096         movlw 21
07A8   024B           03097         subwf delay,W
                      03098         set@page NX@LB411
07AB   1803           03099         btfsc STATUS,0
07AC   2FB6           03100         goto NX@LB411
  000007AD            03101 F1_000452 equ $ ; IN [7TIMER HC154.BAS] GOSUB rescan
                      03102         f@call rescan
07B0                  03103 CT@LB412
  000007B0            03104 F1_000453 equ $ ; IN [7TIMER HC154.BAS] NEXT delay
07B0   3001           03105         movlw 1
07B1   07CB           03106         addwf delay,F
                      03107         set@page FR@LB410
07B4   1C03           03108         btfss STATUS,0
07B5   2FA7           03109         goto FR@LB410
07B6                  03110 NX@LB411
  000007B6            03111 F1_000454 equ $ ; IN [7TIMER HC154.BAS] EWRITE 26,[mm71]
07B6   301A           03112         movlw 26
07B7   1703           03113         bsf STATUS,6
  00000002            03114 ram_bank = 2
07B8   008D           03115         movwf EEADR
07B9   1303           03116         bcf STATUS,6
  00000000            03117 ram_bank = 0
07BA   0867           03118         movf mm71,W
                      03119         f@call EE@WR
  000007BD            03120 F1_000455 equ $ ; IN [7TIMER HC154.BAS] if nxt = 1 THEN goto setting28
                      03121         set@page BC@LL413
07BF   1E87           03122         btfss PORTC,5
07C0   2FC4           03123         goto BC@LL413
                      03124         F@JUMP setting28
07C4                  03125 BC@LL413
  000007C4            03126 F1_000456 equ $ ; IN [7TIMER HC154.BAS] if setup = 0 THEN goto main
                      03127         set@page BC@LL415
07C6   1A07           03128         btfsc PORTC,4
07C7   2FCA           03129         goto BC@LL415
                      03130         F@JUMP main
07CA                  03131 BC@LL415
  000007CA            03132 F1_000457 equ $ ; IN [7TIMER HC154.BAS] goto setting27
                      03133         F@JUMP setting27
07CC                  03134 setting28
  000007CC            03135 F1_000460 equ $ ; IN [7TIMER HC154.BAS] wrt[28] = 1
07CC   3001           03136         movlw 1
07CD   00CA           03137         movwf wrt#28
  000007CE            03138 F1_000461 equ $ ; IN [7TIMER HC154.BAS] if up = 1 THEN mm72 = mm72 + 1
                      03139         set@page BC@LL417
07D0   1F07           03140         btfss PORTC,6
07D1   2FD3           03141         goto BC@LL417
07D2   0AE8           03142         incf mm72,F
07D3                  03143 BC@LL417
  000007D3            03144 F1_000462 equ $ ; IN [7TIMER HC154.BAS] if down = 1 THEN mm72 = mm72 - 1
                      03145         set@page BC@LL419
07D5   1F87           03146         btfss PORTC,7
07D6   2FD8           03147         goto BC@LL419
07D7   03E8           03148         decf mm72,F
07D8                  03149 BC@LL419
  000007D8            03150 F1_000463 equ $ ; IN [7TIMER HC154.BAS] if mm72 < 0 THEN mm72 = 9
                      03151         set@page BC@LL421
07DA   1FE8           03152         btfss mm72,7
07DB   2FDE           03153         goto BC@LL421
07DC   3009           03154         movlw 9
07DD   00E8           03155         movwf mm72
07DE                  03156 BC@LL421
  000007DE            03157 F1_000464 equ $ ; IN [7TIMER HC154.BAS] if mm72 = 10 THEN mm72 = 0
07DE   300A           03158         movlw 10
07DF   0268           03159         subwf mm72,W
                      03160         set@page BC@LL423
07E2   1D03           03161         btfss STATUS,2
07E3   2FE5           03162         goto BC@LL423
07E4   01E8           03163         clrf mm72
07E5                  03164 BC@LL423
  000007E5            03165 F1_000465 equ $ ; IN [7TIMER HC154.BAS] FOR delay = 0 TO 20
07E5   01CB           03166         clrf delay
07E6                  03167 FR@LB425
07E6   3015           03168         movlw 21
07E7   024B           03169         subwf delay,W
                      03170         set@page NX@LB426
07EA   1803           03171         btfsc STATUS,0
07EB   2FF5           03172         goto NX@LB426
  000007EC            03173 F1_000466 equ $ ; IN [7TIMER HC154.BAS] GOSUB rescan
                      03174         f@call rescan
07EF                  03175 CT@LB427
  000007EF            03176 F1_000467 equ $ ; IN [7TIMER HC154.BAS] NEXT delay
07EF   3001           03177         movlw 1
07F0   07CB           03178         addwf delay,F
                      03179         set@page FR@LB425
07F3   1C03           03180         btfss STATUS,0
07F4   2FE6           03181         goto FR@LB425
07F5                  03182 NX@LB426
  000007F5            03183 F1_000468 equ $ ; IN [7TIMER HC154.BAS] EWRITE 27,[mm72]
07F5   301B           03184         movlw 27
07F6   1703           03185         bsf STATUS,6
  00000002            03186 ram_bank = 2
07F7   008D           03187         movwf EEADR
07F8   1303           03188         bcf STATUS,6
  00000000            03189 ram_bank = 0
07F9   0868           03190         movf mm72,W
                      03191         f@call EE@WR
  000007FC            03192 F1_000469 equ $ ; IN [7TIMER HC154.BAS] if nxt = 1 THEN goto main
                      03193         set@page BC@LL428
07FE   1E87           03194         btfss PORTC,5
07FF   2802           03195         goto BC@LL428
                      03196         F@JUMP main
0802                  03197 BC@LL428
  00000802            03198 F1_000470 equ $ ; IN [7TIMER HC154.BAS] if setup = 0 THEN goto main
                      03199         set@page BC@LL430
0804   1A07           03200         btfsc PORTC,4
0805   2808           03201         goto BC@LL430
                      03202         F@JUMP main
0808                  03203 BC@LL430
  00000808            03204 F1_000471 equ $ ; IN [7TIMER HC154.BAS] goto setting28
                      03205         F@JUMP setting28
080A                  03206 rescan
  0000080A            03207 F1_000474 equ $ ; IN [7TIMER HC154.BAS] if wrt[1] = 1 THEN
080A   082F           03208         movf wrt#1,W
080B   00A2           03209         movwf PBP#VAR0
080C   3001           03210         movlw 1
080D   0222           03211         subwf PBP#VAR0,W
                      03212         set@page BC@LL432
0810   1D03           03213         btfss STATUS,2
0811   281F           03214         goto BC@LL432
  00000812            03215 F1_000475 equ $ ; IN [7TIMER HC154.BAS] seg = hh11
0812   084D           03216         movf hh11,W
0813   00AC           03217         movwf seg
  00000814            03218 F1_000476 equ $ ; IN [7TIMER HC154.BAS] GOSUB DISPLAY : dta = seg
                      03219         f@call DISPLAY
0817   082C           03220         movf seg,W
0818   0086           03221         movwf PORTB
  00000819            03222 F1_000477 equ $ ; IN [7TIMER HC154.BAS] digit1 = 1 : DELAYMS 1 : digit1 = 0 : digit2 = 0
0819   3001           03223         movlw 1
081A   0087           03224         movwf PORTC
                      03225         f@call DL@MS
081D   0187           03226         clrf PORTC
081E   0185           03227         clrf PORTA
  0000081F            03228 F1_000478 equ $ ; IN [7TIMER HC154.BAS] endif
081F                  03229 BC@LL432
  0000081F            03230 F1_000479 equ $ ; IN [7TIMER HC154.BAS] if wrt[2] = 1 THEN
081F   0830           03231         movf wrt#2,W
0820   00A2           03232         movwf PBP#VAR0
0821   3001           03233         movlw 1
0822   0222           03234         subwf PBP#VAR0,W
                      03235         set@page BC@LL434
0825   1D03           03236         btfss STATUS,2
0826   2835           03237         goto BC@LL434
  00000827            03238 F1_000480 equ $ ; IN [7TIMER HC154.BAS] seg = hh12
0827   084E           03239         movf hh12,W
0828   00AC           03240         movwf seg
  00000829            03241 F1_000481 equ $ ; IN [7TIMER HC154.BAS] GOSUB DISPLAY : dta = seg
                      03242         f@call DISPLAY
082C   082C           03243         movf seg,W
082D   0086           03244         movwf PORTB
  0000082E            03245 F1_000482 equ $ ; IN [7TIMER HC154.BAS] digit1 = 2 : DELAYMS 1 : digit1 = 0 : digit2 = 0
082E   3002           03246         movlw 2
082F   0087           03247         movwf PORTC
0830   3001           03248         movlw 1
                      03249         f@call DL@MS
0833   0187           03250         clrf PORTC
0834   0185           03251         clrf PORTA
  00000835            03252 F1_000483 equ $ ; IN [7TIMER HC154.BAS] endif
0835                  03253 BC@LL434
  00000835            03254 F1_000484 equ $ ; IN [7TIMER HC154.BAS] if wrt[3] = 1 THEN
0835   0831           03255         movf wrt#3,W
0836   00A2           03256         movwf PBP#VAR0
0837   3001           03257         movlw 1
0838   0222           03258         subwf PBP#VAR0,W
                      03259         set@page BC@LL436
083B   1D03           03260         btfss STATUS,2
083C   284B           03261         goto BC@LL436
  0000083D            03262 F1_000485 equ $ ; IN [7TIMER HC154.BAS] seg = mm11
083D   085B           03263         movf mm11,W
083E   00AC           03264         movwf seg
  0000083F            03265 F1_000486 equ $ ; IN [7TIMER HC154.BAS] GOSUB DISPLAY : dta = seg
                      03266         f@call DISPLAY
0842   082C           03267         movf seg,W
0843   0086           03268         movwf PORTB
  00000844            03269 F1_000487 equ $ ; IN [7TIMER HC154.BAS] digit1 = 3 : DELAYMS 1 : digit1 = 0 : digit2 = 0
0844   3003           03270         movlw 3
0845   0087           03271         movwf PORTC
0846   3001           03272         movlw 1
                      03273         f@call DL@MS
0849   0187           03274         clrf PORTC
084A   0185           03275         clrf PORTA
  0000084B            03276 F1_000488 equ $ ; IN [7TIMER HC154.BAS] endif
084B                  03277 BC@LL436
  0000084B            03278 F1_000489 equ $ ; IN [7TIMER HC154.BAS] if wrt[4] = 1 THEN
084B   0832           03279         movf wrt#4,W
084C   00A2           03280         movwf PBP#VAR0
084D   3001           03281         movlw 1
084E   0222           03282         subwf PBP#VAR0,W
                      03283         set@page BC@LL438
0851   1D03           03284         btfss STATUS,2
0852   2861           03285         goto BC@LL438
  00000853            03286 F1_000490 equ $ ; IN [7TIMER HC154.BAS] seg = mm12
0853   085C           03287         movf mm12,W
0854   00AC           03288         movwf seg
  00000855            03289 F1_000491 equ $ ; IN [7TIMER HC154.BAS] GOSUB DISPLAY : dta = seg
                      03290         f@call DISPLAY
0858   082C           03291         movf seg,W
0859   0086           03292         movwf PORTB
  0000085A            03293 F1_000492 equ $ ; IN [7TIMER HC154.BAS] digit1 = 4 : DELAYMS 1 : digit1 = 0 : digit2 = 0
085A   3004           03294         movlw 4
085B   0087           03295         movwf PORTC
085C   3001           03296         movlw 1
                      03297         f@call DL@MS
085F   0187           03298         clrf PORTC
0860   0185           03299         clrf PORTA
  00000861            03300 F1_000493 equ $ ; IN [7TIMER HC154.BAS] endif
0861                  03301 BC@LL438
  00000861            03302 F1_000494 equ $ ; IN [7TIMER HC154.BAS] if wrt[5] = 1 THEN
0861   0833           03303         movf wrt#5,W
0862   00A2           03304         movwf PBP#VAR0
0863   3001           03305         movlw 1
0864   0222           03306         subwf PBP#VAR0,W
                      03307         set@page BC@LL440
0867   1D03           03308         btfss STATUS,2
0868   2877           03309         goto BC@LL440
  00000869            03310 F1_000495 equ $ ; IN [7TIMER HC154.BAS] seg = hh21
0869   084F           03311         movf hh21,W
086A   00AC           03312         movwf seg
  0000086B            03313 F1_000496 equ $ ; IN [7TIMER HC154.BAS] GOSUB DISPLAY : dta = seg
                      03314         f@call DISPLAY
086E   082C           03315         movf seg,W
086F   0086           03316         movwf PORTB
  00000870            03317 F1_000497 equ $ ; IN [7TIMER HC154.BAS] digit1 = 5 : DELAYMS 1 : digit1 = 0 : digit2 = 0
0870   3005           03318         movlw 5
0871   0087           03319         movwf PORTC
0872   3001           03320         movlw 1
                      03321         f@call DL@MS
0875   0187           03322         clrf PORTC
0876   0185           03323         clrf PORTA
  00000877            03324 F1_000498 equ $ ; IN [7TIMER HC154.BAS] endif
0877                  03325 BC@LL440
  00000877            03326 F1_000499 equ $ ; IN [7TIMER HC154.BAS] if wrt[6] = 1 THEN
0877   0834           03327         movf wrt#6,W
0878   00A2           03328         movwf PBP#VAR0
0879   3001           03329         movlw 1
087A   0222           03330         subwf PBP#VAR0,W
                      03331         set@page BC@LL442
087D   1D03           03332         btfss STATUS,2
087E   288D           03333         goto BC@LL442
  0000087F            03334 F1_000500 equ $ ; IN [7TIMER HC154.BAS] seg = hh22
087F   0850           03335         movf hh22,W
0880   00AC           03336         movwf seg
  00000881            03337 F1_000501 equ $ ; IN [7TIMER HC154.BAS] GOSUB DISPLAY : dta = seg
                      03338         f@call DISPLAY
0884   082C           03339         movf seg,W
0885   0086           03340         movwf PORTB
  00000886            03341 F1_000502 equ $ ; IN [7TIMER HC154.BAS] digit1 = 6 : DELAYMS 1 : digit1 = 0 : digit2 = 0
0886   3006           03342         movlw 6
0887   0087           03343         movwf PORTC
0888   3001           03344         movlw 1
                      03345         f@call DL@MS
088B   0187           03346         clrf PORTC
088C   0185           03347         clrf PORTA
  0000088D            03348 F1_000503 equ $ ; IN [7TIMER HC154.BAS] endif
088D                  03349 BC@LL442
  0000088D            03350 F1_000504 equ $ ; IN [7TIMER HC154.BAS] if wrt[7] = 1 THEN
088D   0835           03351         movf wrt#7,W
088E   00A2           03352         movwf PBP#VAR0
088F   3001           03353         movlw 1
0890   0222           03354         subwf PBP#VAR0,W
                      03355         set@page BC@LL444
0893   1D03           03356         btfss STATUS,2
0894   28A3           03357         goto BC@LL444
  00000895            03358 F1_000505 equ $ ; IN [7TIMER HC154.BAS] seg = mm21
0895   085D           03359         movf mm21,W
0896   00AC           03360         movwf seg
  00000897            03361 F1_000506 equ $ ; IN [7TIMER HC154.BAS] GOSUB DISPLAY : dta = seg
                      03362         f@call DISPLAY
089A   082C           03363         movf seg,W
089B   0086           03364         movwf PORTB
  0000089C            03365 F1_000507 equ $ ; IN [7TIMER HC154.BAS] digit1 = 7 : DELAYMS 1 : digit1 = 0 : digit2 = 0
089C   3007           03366         movlw 7
089D   0087           03367         movwf PORTC
089E   3001           03368         movlw 1
                      03369         f@call DL@MS
08A1   0187           03370         clrf PORTC
08A2   0185           03371         clrf PORTA
  000008A3            03372 F1_000508 equ $ ; IN [7TIMER HC154.BAS] endif
08A3                  03373 BC@LL444
  000008A3            03374 F1_000509 equ $ ; IN [7TIMER HC154.BAS] if wrt[8] = 1 THEN
08A3   0836           03375         movf wrt#8,W
08A4   00A2           03376         movwf PBP#VAR0
08A5   3001           03377         movlw 1
08A6   0222           03378         subwf PBP#VAR0,W
                      03379         set@page BC@LL446
08A9   1D03           03380         btfss STATUS,2
08AA   28B9           03381         goto BC@LL446
  000008AB            03382 F1_000510 equ $ ; IN [7TIMER HC154.BAS] seg = mm22
08AB   085E           03383         movf mm22,W
08AC   00AC           03384         movwf seg
  000008AD            03385 F1_000511 equ $ ; IN [7TIMER HC154.BAS] GOSUB DISPLAY : dta = seg
                      03386         f@call DISPLAY
08B0   082C           03387         movf seg,W
08B1   0086           03388         movwf PORTB
  000008B2            03389 F1_000512 equ $ ; IN [7TIMER HC154.BAS] digit1 = 8 : DELAYMS 1 : digit1 = 0 : digit2 = 0
08B2   3008           03390         movlw 8
08B3   0087           03391         movwf PORTC
08B4   3001           03392         movlw 1
                      03393         f@call DL@MS
08B7   0187           03394         clrf PORTC
08B8   0185           03395         clrf PORTA
  000008B9            03396 F1_000513 equ $ ; IN [7TIMER HC154.BAS] endif
08B9                  03397 BC@LL446
  000008B9            03398 F1_000514 equ $ ; IN [7TIMER HC154.BAS] if wrt[9] = 1 THEN
08B9   0837           03399         movf wrt#9,W
08BA   00A2           03400         movwf PBP#VAR0
08BB   3001           03401         movlw 1
08BC   0222           03402         subwf PBP#VAR0,W
                      03403         set@page BC@LL448
08BF   1D03           03404         btfss STATUS,2
08C0   28CF           03405         goto BC@LL448
  000008C1            03406 F1_000515 equ $ ; IN [7TIMER HC154.BAS] seg = hh31
08C1   0851           03407         movf hh31,W
08C2   00AC           03408         movwf seg
  000008C3            03409 F1_000516 equ $ ; IN [7TIMER HC154.BAS] GOSUB DISPLAY : dta = seg
                      03410         f@call DISPLAY
08C6   082C           03411         movf seg,W
08C7   0086           03412         movwf PORTB
  000008C8            03413 F1_000517 equ $ ; IN [7TIMER HC154.BAS] digit1 = 9 : DELAYMS 1 : digit1 = 0 : digit2 = 0
08C8   3009           03414         movlw 9
08C9   0087           03415         movwf PORTC
08CA   3001           03416         movlw 1
                      03417         f@call DL@MS
08CD   0187           03418         clrf PORTC
08CE   0185           03419         clrf PORTA
  000008CF            03420 F1_000518 equ $ ; IN [7TIMER HC154.BAS] endif
08CF                  03421 BC@LL448
  000008CF            03422 F1_000519 equ $ ; IN [7TIMER HC154.BAS] if wrt[10] = 1 THEN
08CF   0838           03423         movf wrt#10,W
08D0   00A2           03424         movwf PBP#VAR0
08D1   3001           03425         movlw 1
08D2   0222           03426         subwf PBP#VAR0,W
                      03427         set@page BC@LL450
08D5   1D03           03428         btfss STATUS,2
08D6   28E5           03429         goto BC@LL450
  000008D7            03430 F1_000520 equ $ ; IN [7TIMER HC154.BAS] seg = hh32
08D7   0852           03431         movf hh32,W
08D8   00AC           03432         movwf seg
  000008D9            03433 F1_000521 equ $ ; IN [7TIMER HC154.BAS] GOSUB DISPLAY : dta = seg
                      03434         f@call DISPLAY
08DC   082C           03435         movf seg,W
08DD   0086           03436         movwf PORTB
  000008DE            03437 F1_000522 equ $ ; IN [7TIMER HC154.BAS] digit1 = 10 : DELAYMS 1 : digit1 = 0 : digit2 = 0
08DE   300A           03438         movlw 10
08DF   0087           03439         movwf PORTC
08E0   3001           03440         movlw 1
                      03441         f@call DL@MS
08E3   0187           03442         clrf PORTC
08E4   0185           03443         clrf PORTA
  000008E5            03444 F1_000523 equ $ ; IN [7TIMER HC154.BAS] endif
08E5                  03445 BC@LL450
  000008E5            03446 F1_000524 equ $ ; IN [7TIMER HC154.BAS] if wrt[11] = 1 THEN
08E5   0839           03447         movf wrt#11,W
08E6   00A2           03448         movwf PBP#VAR0
08E7   3001           03449         movlw 1
08E8   0222           03450         subwf PBP#VAR0,W
                      03451         set@page BC@LL452
08EB   1D03           03452         btfss STATUS,2
08EC   28FB           03453         goto BC@LL452
  000008ED            03454 F1_000525 equ $ ; IN [7TIMER HC154.BAS] seg = mm31
08ED   085F           03455         movf mm31,W
08EE   00AC           03456         movwf seg
  000008EF            03457 F1_000526 equ $ ; IN [7TIMER HC154.BAS] GOSUB DISPLAY : dta = seg
                      03458         f@call DISPLAY
08F2   082C           03459         movf seg,W
08F3   0086           03460         movwf PORTB
  000008F4            03461 F1_000527 equ $ ; IN [7TIMER HC154.BAS] digit1 = 11 : DELAYMS 1 : digit1 = 0 : digit2 = 0
08F4   300B           03462         movlw 11
08F5   0087           03463         movwf PORTC
08F6   3001           03464         movlw 1
                      03465         f@call DL@MS
08F9   0187           03466         clrf PORTC
08FA   0185           03467         clrf PORTA
  000008FB            03468 F1_000528 equ $ ; IN [7TIMER HC154.BAS] endif
08FB                  03469 BC@LL452
  000008FB            03470 F1_000529 equ $ ; IN [7TIMER HC154.BAS] if wrt[12] = 1 THEN
08FB   083A           03471         movf wrt#12,W
08FC   00A2           03472         movwf PBP#VAR0
08FD   3001           03473         movlw 1
08FE   0222           03474         subwf PBP#VAR0,W
                      03475         set@page BC@LL454
0901   1D03           03476         btfss STATUS,2
0902   2911           03477         goto BC@LL454
  00000903            03478 F1_000530 equ $ ; IN [7TIMER HC154.BAS] seg = mm32
0903   0860           03479         movf mm32,W
0904   00AC           03480         movwf seg
  00000905            03481 F1_000531 equ $ ; IN [7TIMER HC154.BAS] GOSUB DISPLAY : dta = seg
                      03482         f@call DISPLAY
0908   082C           03483         movf seg,W
0909   0086           03484         movwf PORTB
  0000090A            03485 F1_000532 equ $ ; IN [7TIMER HC154.BAS] digit1 = 12 : DELAYMS 1 : digit1 = 0 : digit2 = 0
090A   300C           03486         movlw 12
090B   0087           03487         movwf PORTC
090C   3001           03488         movlw 1
                      03489         f@call DL@MS
090F   0187           03490         clrf PORTC
0910   0185           03491         clrf PORTA
  00000911            03492 F1_000533 equ $ ; IN [7TIMER HC154.BAS] endif
0911                  03493 BC@LL454
  00000911            03494 F1_000534 equ $ ; IN [7TIMER HC154.BAS] if wrt[13] = 1 THEN
0911   083B           03495         movf wrt#13,W
0912   00A2           03496         movwf PBP#VAR0
0913   3001           03497         movlw 1
0914   0222           03498         subwf PBP#VAR0,W
                      03499         set@page BC@LL456
0917   1D03           03500         btfss STATUS,2
0918   2927           03501         goto BC@LL456
  00000919            03502 F1_000535 equ $ ; IN [7TIMER HC154.BAS] seg = hh41
0919   0853           03503         movf hh41,W
091A   00AC           03504         movwf seg
  0000091B            03505 F1_000536 equ $ ; IN [7TIMER HC154.BAS] GOSUB DISPLAY : dta = seg
                      03506         f@call DISPLAY
091E   082C           03507         movf seg,W
091F   0086           03508         movwf PORTB
  00000920            03509 F1_000537 equ $ ; IN [7TIMER HC154.BAS] digit1 = 13 : DELAYMS 1 : digit1 = 0 : digit2 = 0
0920   300D           03510         movlw 13
0921   0087           03511         movwf PORTC
0922   3001           03512         movlw 1
                      03513         f@call DL@MS
0925   0187           03514         clrf PORTC
0926   0185           03515         clrf PORTA
  00000927            03516 F1_000538 equ $ ; IN [7TIMER HC154.BAS] endif
0927                  03517 BC@LL456
  00000927            03518 F1_000539 equ $ ; IN [7TIMER HC154.BAS] if wrt[14] = 1 THEN
0927   083C           03519         movf wrt#14,W
0928   00A2           03520         movwf PBP#VAR0
0929   3001           03521         movlw 1
092A   0222           03522         subwf PBP#VAR0,W
                      03523         set@page BC@LL458
092D   1D03           03524         btfss STATUS,2
092E   293D           03525         goto BC@LL458
  0000092F            03526 F1_000540 equ $ ; IN [7TIMER HC154.BAS] seg = hh42
092F   0854           03527         movf hh42,W
0930   00AC           03528         movwf seg
  00000931            03529 F1_000541 equ $ ; IN [7TIMER HC154.BAS] GOSUB DISPLAY : dta = seg
                      03530         f@call DISPLAY
0934   082C           03531         movf seg,W
0935   0086           03532         movwf PORTB
  00000936            03533 F1_000542 equ $ ; IN [7TIMER HC154.BAS] digit1 = 14 : DELAYMS 1 : digit1 = 0 : digit2 = 0
0936   300E           03534         movlw 14
0937   0087           03535         movwf PORTC
0938   3001           03536         movlw 1
                      03537         f@call DL@MS
093B   0187           03538         clrf PORTC
093C   0185           03539         clrf PORTA
  0000093D            03540 F1_000543 equ $ ; IN [7TIMER HC154.BAS] endif
093D                  03541 BC@LL458
  0000093D            03542 F1_000544 equ $ ; IN [7TIMER HC154.BAS] if wrt[15] = 1 THEN
093D   083D           03543         movf wrt#15,W
093E   00A2           03544         movwf PBP#VAR0
093F   3001           03545         movlw 1
0940   0222           03546         subwf PBP#VAR0,W
                      03547         set@page BC@LL460
0943   1D03           03548         btfss STATUS,2
0944   2953           03549         goto BC@LL460
  00000945            03550 F1_000545 equ $ ; IN [7TIMER HC154.BAS] seg = mm41
0945   0861           03551         movf mm41,W
0946   00AC           03552         movwf seg
  00000947            03553 F1_000546 equ $ ; IN [7TIMER HC154.BAS] GOSUB DISPLAY : dta = seg
                      03554         f@call DISPLAY
094A   082C           03555         movf seg,W
094B   0086           03556         movwf PORTB
  0000094C            03557 F1_000547 equ $ ; IN [7TIMER HC154.BAS] digit1 = 15 : DELAYMS 1 : digit1 = 0 : digit2 = 0
094C   300F           03558         movlw 15
094D   0087           03559         movwf PORTC
094E   3001           03560         movlw 1
                      03561         f@call DL@MS
0951   0187           03562         clrf PORTC
0952   0185           03563         clrf PORTA
  00000953            03564 F1_000548 equ $ ; IN [7TIMER HC154.BAS] endif
0953                  03565 BC@LL460
  00000953            03566 F1_000549 equ $ ; IN [7TIMER HC154.BAS] if wrt[16] = 1 THEN
0953   083E           03567         movf wrt#16,W
0954   00A2           03568         movwf PBP#VAR0
0955   3001           03569         movlw 1
0956   0222           03570         subwf PBP#VAR0,W
                      03571         set@page BC@LL462
0959   1D03           03572         btfss STATUS,2
095A   2968           03573         goto BC@LL462
  0000095B            03574 F1_000550 equ $ ; IN [7TIMER HC154.BAS] seg = mm42
095B   0862           03575         movf mm42,W
095C   00AC           03576         movwf seg
  0000095D            03577 F1_000551 equ $ ; IN [7TIMER HC154.BAS] GOSUB DISPLAY : dta = seg
                      03578         f@call DISPLAY
0960   082C           03579         movf seg,W
0961   0086           03580         movwf PORTB
  00000962            03581 F1_000552 equ $ ; IN [7TIMER HC154.BAS] digit2 = 1 : DELAYMS 1 : digit1 = 0 : digit2 = 0
0962   3001           03582         movlw 1
0963   0085           03583         movwf PORTA
                      03584         f@call DL@MS
0966   0187           03585         clrf PORTC
0967   0185           03586         clrf PORTA
  00000968            03587 F1_000553 equ $ ; IN [7TIMER HC154.BAS] endif
0968                  03588 BC@LL462
  00000968            03589 F1_000554 equ $ ; IN [7TIMER HC154.BAS] if wrt[17] = 1 THEN
0968   083F           03590         movf wrt#17,W
0969   00A2           03591         movwf PBP#VAR0
096A   3001           03592         movlw 1
096B   0222           03593         subwf PBP#VAR0,W
                      03594         set@page BC@LL464
096E   1D03           03595         btfss STATUS,2
096F   297E           03596         goto BC@LL464
  00000970            03597 F1_000555 equ $ ; IN [7TIMER HC154.BAS] seg = hh51
0970   0855           03598         movf hh51,W
0971   00AC           03599         movwf seg
  00000972            03600 F1_000556 equ $ ; IN [7TIMER HC154.BAS] GOSUB DISPLAY : dta = seg
                      03601         f@call DISPLAY
0975   082C           03602         movf seg,W
0976   0086           03603         movwf PORTB
  00000977            03604 F1_000557 equ $ ; IN [7TIMER HC154.BAS] digit2 = 2 : DELAYMS 1 : digit1 = 0 : digit2 = 0
0977   3002           03605         movlw 2
0978   0085           03606         movwf PORTA
0979   3001           03607         movlw 1
                      03608         f@call DL@MS
097C   0187           03609         clrf PORTC
097D   0185           03610         clrf PORTA
  0000097E            03611 F1_000558 equ $ ; IN [7TIMER HC154.BAS] endif
097E                  03612 BC@LL464
  0000097E            03613 F1_000559 equ $ ; IN [7TIMER HC154.BAS] if wrt[18] = 1 THEN
097E   0840           03614         movf wrt#18,W
097F   00A2           03615         movwf PBP#VAR0
0980   3001           03616         movlw 1
0981   0222           03617         subwf PBP#VAR0,W
                      03618         set@page BC@LL466
0984   1D03           03619         btfss STATUS,2
0985   2994           03620         goto BC@LL466
  00000986            03621 F1_000560 equ $ ; IN [7TIMER HC154.BAS] seg = hh52
0986   0856           03622         movf hh52,W
0987   00AC           03623         movwf seg
  00000988            03624 F1_000561 equ $ ; IN [7TIMER HC154.BAS] GOSUB DISPLAY : dta = seg
                      03625         f@call DISPLAY
098B   082C           03626         movf seg,W
098C   0086           03627         movwf PORTB
  0000098D            03628 F1_000562 equ $ ; IN [7TIMER HC154.BAS] digit2 = 3 : DELAYMS 1 : digit1 = 0 : digit2 = 0
098D   3003           03629         movlw 3
098E   0085           03630         movwf PORTA
098F   3001           03631         movlw 1
                      03632         f@call DL@MS
0992   0187           03633         clrf PORTC
0993   0185           03634         clrf PORTA
  00000994            03635 F1_000563 equ $ ; IN [7TIMER HC154.BAS] endif
0994                  03636 BC@LL466
  00000994            03637 F1_000564 equ $ ; IN [7TIMER HC154.BAS] if wrt[19] = 1 THEN
0994   0841           03638         movf wrt#19,W
0995   00A2           03639         movwf PBP#VAR0
0996   3001           03640         movlw 1
0997   0222           03641         subwf PBP#VAR0,W
                      03642         set@page BC@LL468
099A   1D03           03643         btfss STATUS,2
099B   29AA           03644         goto BC@LL468
  0000099C            03645 F1_000565 equ $ ; IN [7TIMER HC154.BAS] seg = mm51
099C   0863           03646         movf mm51,W
099D   00AC           03647         movwf seg
  0000099E            03648 F1_000566 equ $ ; IN [7TIMER HC154.BAS] GOSUB DISPLAY : dta = seg
                      03649         f@call DISPLAY
09A1   082C           03650         movf seg,W
09A2   0086           03651         movwf PORTB
  000009A3            03652 F1_000567 equ $ ; IN [7TIMER HC154.BAS] digit2 = 4 : DELAYMS 1 : digit1 = 0 : digit2 = 0
09A3   3004           03653         movlw 4
09A4   0085           03654         movwf PORTA
09A5   3001           03655         movlw 1
                      03656         f@call DL@MS
09A8   0187           03657         clrf PORTC
09A9   0185           03658         clrf PORTA
  000009AA            03659 F1_000568 equ $ ; IN [7TIMER HC154.BAS] endif
09AA                  03660 BC@LL468
  000009AA            03661 F1_000569 equ $ ; IN [7TIMER HC154.BAS] if wrt[20] = 1 THEN
09AA   0842           03662         movf wrt#20,W
09AB   00A2           03663         movwf PBP#VAR0
09AC   3001           03664         movlw 1
09AD   0222           03665         subwf PBP#VAR0,W
                      03666         set@page BC@LL470
09B0   1D03           03667         btfss STATUS,2
09B1   29C0           03668         goto BC@LL470
  000009B2            03669 F1_000570 equ $ ; IN [7TIMER HC154.BAS] seg = mm52
09B2   0864           03670         movf mm52,W
09B3   00AC           03671         movwf seg
  000009B4            03672 F1_000571 equ $ ; IN [7TIMER HC154.BAS] GOSUB DISPLAY : dta = seg
                      03673         f@call DISPLAY
09B7   082C           03674         movf seg,W
09B8   0086           03675         movwf PORTB
  000009B9            03676 F1_000572 equ $ ; IN [7TIMER HC154.BAS] digit2 = 5 : DELAYMS 1 : digit1 = 0 : digit2 = 0
09B9   3005           03677         movlw 5
09BA   0085           03678         movwf PORTA
09BB   3001           03679         movlw 1
                      03680         f@call DL@MS
09BE   0187           03681         clrf PORTC
09BF   0185           03682         clrf PORTA
  000009C0            03683 F1_000573 equ $ ; IN [7TIMER HC154.BAS] endif
09C0                  03684 BC@LL470
  000009C0            03685 F1_000574 equ $ ; IN [7TIMER HC154.BAS] if wrt[21] = 1 THEN
09C0   0843           03686         movf wrt#21,W
09C1   00A2           03687         movwf PBP#VAR0
09C2   3001           03688         movlw 1
09C3   0222           03689         subwf PBP#VAR0,W
                      03690         set@page BC@LL472
09C6   1D03           03691         btfss STATUS,2
09C7   29D6           03692         goto BC@LL472
  000009C8            03693 F1_000575 equ $ ; IN [7TIMER HC154.BAS] seg = hh61
09C8   0857           03694         movf hh61,W
09C9   00AC           03695         movwf seg
  000009CA            03696 F1_000576 equ $ ; IN [7TIMER HC154.BAS] GOSUB DISPLAY : dta = seg
                      03697         f@call DISPLAY
09CD   082C           03698         movf seg,W
09CE   0086           03699         movwf PORTB
  000009CF            03700 F1_000577 equ $ ; IN [7TIMER HC154.BAS] digit2 = 6 : DELAYMS 1 : digit1 = 0 : digit2 = 0
09CF   3006           03701         movlw 6
09D0   0085           03702         movwf PORTA
09D1   3001           03703         movlw 1
                      03704         f@call DL@MS
09D4   0187           03705         clrf PORTC
09D5   0185           03706         clrf PORTA
  000009D6            03707 F1_000578 equ $ ; IN [7TIMER HC154.BAS] endif
09D6                  03708 BC@LL472
  000009D6            03709 F1_000579 equ $ ; IN [7TIMER HC154.BAS] if wrt[22] = 1 THEN
09D6   0844           03710         movf wrt#22,W
09D7   00A2           03711         movwf PBP#VAR0
09D8   3001           03712         movlw 1
09D9   0222           03713         subwf PBP#VAR0,W
                      03714         set@page BC@LL474
09DC   1D03           03715         btfss STATUS,2
09DD   29EC           03716         goto BC@LL474
  000009DE            03717 F1_000580 equ $ ; IN [7TIMER HC154.BAS] seg = hh62
09DE   0858           03718         movf hh62,W
09DF   00AC           03719         movwf seg
  000009E0            03720 F1_000581 equ $ ; IN [7TIMER HC154.BAS] GOSUB DISPLAY : dta = seg
                      03721         f@call DISPLAY
09E3   082C           03722         movf seg,W
09E4   0086           03723         movwf PORTB
  000009E5            03724 F1_000582 equ $ ; IN [7TIMER HC154.BAS] digit2 = 7 : DELAYMS 1 : digit1 = 0 : digit2 = 0
09E5   3007           03725         movlw 7
09E6   0085           03726         movwf PORTA
09E7   3001           03727         movlw 1
                      03728         f@call DL@MS
09EA   0187           03729         clrf PORTC
09EB   0185           03730         clrf PORTA
  000009EC            03731 F1_000583 equ $ ; IN [7TIMER HC154.BAS] endif
09EC                  03732 BC@LL474
  000009EC            03733 F1_000584 equ $ ; IN [7TIMER HC154.BAS] if wrt[23] = 1 THEN
09EC   0845           03734         movf wrt#23,W
09ED   00A2           03735         movwf PBP#VAR0
09EE   3001           03736         movlw 1
09EF   0222           03737         subwf PBP#VAR0,W
                      03738         set@page BC@LL476
09F2   1D03           03739         btfss STATUS,2
09F3   2A02           03740         goto BC@LL476
  000009F4            03741 F1_000585 equ $ ; IN [7TIMER HC154.BAS] seg = mm61
09F4   0865           03742         movf mm61,W
09F5   00AC           03743         movwf seg
  000009F6            03744 F1_000586 equ $ ; IN [7TIMER HC154.BAS] GOSUB DISPLAY : dta = seg
                      03745         f@call DISPLAY
09F9   082C           03746         movf seg,W
09FA   0086           03747         movwf PORTB
  000009FB            03748 F1_000587 equ $ ; IN [7TIMER HC154.BAS] digit2 = 8 : DELAYMS 1 : digit1 = 0 : digit2 = 0
09FB   3008           03749         movlw 8
09FC   0085           03750         movwf PORTA
09FD   3001           03751         movlw 1
                      03752         f@call DL@MS
0A00   0187           03753         clrf PORTC
0A01   0185           03754         clrf PORTA
  00000A02            03755 F1_000588 equ $ ; IN [7TIMER HC154.BAS] endif
0A02                  03756 BC@LL476
  00000A02            03757 F1_000589 equ $ ; IN [7TIMER HC154.BAS] if wrt[24] = 1 THEN
0A02   0846           03758         movf wrt#24,W
0A03   00A2           03759         movwf PBP#VAR0
0A04   3001           03760         movlw 1
0A05   0222           03761         subwf PBP#VAR0,W
                      03762         set@page BC@LL478
0A08   1D03           03763         btfss STATUS,2
0A09   2A18           03764         goto BC@LL478
  00000A0A            03765 F1_000590 equ $ ; IN [7TIMER HC154.BAS] seg = mm62
0A0A   0866           03766         movf mm62,W
0A0B   00AC           03767         movwf seg
  00000A0C            03768 F1_000591 equ $ ; IN [7TIMER HC154.BAS] GOSUB DISPLAY : dta = seg
                      03769         f@call DISPLAY
0A0F   082C           03770         movf seg,W
0A10   0086           03771         movwf PORTB
  00000A11            03772 F1_000592 equ $ ; IN [7TIMER HC154.BAS] digit2 = 9 : DELAYMS 1 : digit1 = 0 : digit2 = 0
0A11   3009           03773         movlw 9
0A12   0085           03774         movwf PORTA
0A13   3001           03775         movlw 1
                      03776         f@call DL@MS
0A16   0187           03777         clrf PORTC
0A17   0185           03778         clrf PORTA
  00000A18            03779 F1_000593 equ $ ; IN [7TIMER HC154.BAS] endif
0A18                  03780 BC@LL478
  00000A18            03781 F1_000594 equ $ ; IN [7TIMER HC154.BAS] if wrt[25] = 1 THEN
0A18   0847           03782         movf wrt#25,W
0A19   00A2           03783         movwf PBP#VAR0
0A1A   3001           03784         movlw 1
0A1B   0222           03785         subwf PBP#VAR0,W
                      03786         set@page BC@LL480
0A1E   1D03           03787         btfss STATUS,2
0A1F   2A2E           03788         goto BC@LL480
  00000A20            03789 F1_000595 equ $ ; IN [7TIMER HC154.BAS] seg = hh71
0A20   0859           03790         movf hh71,W
0A21   00AC           03791         movwf seg
  00000A22            03792 F1_000596 equ $ ; IN [7TIMER HC154.BAS] GOSUB DISPLAY : dta = seg
                      03793         f@call DISPLAY
0A25   082C           03794         movf seg,W
0A26   0086           03795         movwf PORTB
  00000A27            03796 F1_000597 equ $ ; IN [7TIMER HC154.BAS] digit2 = 10 : DELAYMS 1 : digit1 = 0 : digit2 = 0
0A27   300A           03797         movlw 10
0A28   0085           03798         movwf PORTA
0A29   3001           03799         movlw 1
                      03800         f@call DL@MS
0A2C   0187           03801         clrf PORTC
0A2D   0185           03802         clrf PORTA
  00000A2E            03803 F1_000598 equ $ ; IN [7TIMER HC154.BAS] endif
0A2E                  03804 BC@LL480
  00000A2E            03805 F1_000599 equ $ ; IN [7TIMER HC154.BAS] if wrt[26] = 1 THEN
0A2E   0848           03806         movf wrt#26,W
0A2F   00A2           03807         movwf PBP#VAR0
0A30   3001           03808         movlw 1
0A31   0222           03809         subwf PBP#VAR0,W
                      03810         set@page BC@LL482
0A34   1D03           03811         btfss STATUS,2
0A35   2A44           03812         goto BC@LL482
  00000A36            03813 F1_000600 equ $ ; IN [7TIMER HC154.BAS] seg = hh72
0A36   085A           03814         movf hh72,W
0A37   00AC           03815         movwf seg
  00000A38            03816 F1_000601 equ $ ; IN [7TIMER HC154.BAS] GOSUB DISPLAY : dta = seg
                      03817         f@call DISPLAY
0A3B   082C           03818         movf seg,W
0A3C   0086           03819         movwf PORTB
  00000A3D            03820 F1_000602 equ $ ; IN [7TIMER HC154.BAS] digit2 = 11 : DELAYMS 1 : digit1 = 0 : digit2 = 0
0A3D   300B           03821         movlw 11
0A3E   0085           03822         movwf PORTA
0A3F   3001           03823         movlw 1
                      03824         f@call DL@MS
0A42   0187           03825         clrf PORTC
0A43   0185           03826         clrf PORTA
  00000A44            03827 F1_000603 equ $ ; IN [7TIMER HC154.BAS] endif
0A44                  03828 BC@LL482
  00000A44            03829 F1_000604 equ $ ; IN [7TIMER HC154.BAS] if wrt[27] = 1 THEN
0A44   0849           03830         movf wrt#27,W
0A45   00A2           03831         movwf PBP#VAR0
0A46   3001           03832         movlw 1
0A47   0222           03833         subwf PBP#VAR0,W
                      03834         set@page BC@LL484
0A4A   1D03           03835         btfss STATUS,2
0A4B   2A5A           03836         goto BC@LL484
  00000A4C            03837 F1_000605 equ $ ; IN [7TIMER HC154.BAS] seg = mm71
0A4C   0867           03838         movf mm71,W
0A4D   00AC           03839         movwf seg
  00000A4E            03840 F1_000606 equ $ ; IN [7TIMER HC154.BAS] GOSUB DISPLAY : dta = seg
                      03841         f@call DISPLAY
0A51   082C           03842         movf seg,W
0A52   0086           03843         movwf PORTB
  00000A53            03844 F1_000607 equ $ ; IN [7TIMER HC154.BAS] digit2 = 12 : DELAYMS 1 : digit1 = 0 : digit2 = 0
0A53   300C           03845         movlw 12
0A54   0085           03846         movwf PORTA
0A55   3001           03847         movlw 1
                      03848         f@call DL@MS
0A58   0187           03849         clrf PORTC
0A59   0185           03850         clrf PORTA
  00000A5A            03851 F1_000608 equ $ ; IN [7TIMER HC154.BAS] endif
0A5A                  03852 BC@LL484
  00000A5A            03853 F1_000609 equ $ ; IN [7TIMER HC154.BAS] if wrt[28] = 1 THEN
0A5A   084A           03854         movf wrt#28,W
0A5B   00A2           03855         movwf PBP#VAR0
0A5C   3001           03856         movlw 1
0A5D   0222           03857         subwf PBP#VAR0,W
                      03858         set@page BC@LL486
0A60   1D03           03859         btfss STATUS,2
0A61   2A70           03860         goto BC@LL486
  00000A62            03861 F1_000610 equ $ ; IN [7TIMER HC154.BAS] seg = mm72
0A62   0868           03862         movf mm72,W
0A63   00AC           03863         movwf seg
  00000A64            03864 F1_000611 equ $ ; IN [7TIMER HC154.BAS] GOSUB DISPLAY : dta = seg
                      03865         f@call DISPLAY
0A67   082C           03866         movf seg,W
0A68   0086           03867         movwf PORTB
  00000A69            03868 F1_000612 equ $ ; IN [7TIMER HC154.BAS] digit2 = 13 : DELAYMS 1 : digit1 = 0 : digit2 = 0
0A69   300D           03869         movlw 13
0A6A   0085           03870         movwf PORTA
0A6B   3001           03871         movlw 1
                      03872         f@call DL@MS
0A6E   0187           03873         clrf PORTC
0A6F   0185           03874         clrf PORTA
  00000A70            03875 F1_000613 equ $ ; IN [7TIMER HC154.BAS] endif
0A70                  03876 BC@LL486
  00000A70            03877 F1_000614 equ $ ; IN [7TIMER HC154.BAS] return
0A70   0008           03878         return
0A71                  03879 scan
  00000A71            03880 F1_000617 equ $ ; IN [7TIMER HC154.BAS] seg = hh11
0A71   084D           03881         movf hh11,W
0A72   00AC           03882         movwf seg
  00000A73            03883 F1_000618 equ $ ; IN [7TIMER HC154.BAS] GOSUB DISPLAY : dta = seg
                      03884         f@call DISPLAY
0A76   082C           03885         movf seg,W
0A77   0086           03886         movwf PORTB
  00000A78            03887 F1_000619 equ $ ; IN [7TIMER HC154.BAS] digit1 = 1 : DELAYMS 1 : digit1 = 0 : digit2 = 0
0A78   3001           03888         movlw 1
0A79   0087           03889         movwf PORTC
                      03890         f@call DL@MS
0A7C   0187           03891         clrf PORTC
0A7D   0185           03892         clrf PORTA
  00000A7E            03893 F1_000620 equ $ ; IN [7TIMER HC154.BAS] seg = hh12
0A7E   084E           03894         movf hh12,W
0A7F   00AC           03895         movwf seg
  00000A80            03896 F1_000621 equ $ ; IN [7TIMER HC154.BAS] GOSUB DISPLAY : dta = seg
                      03897         f@call DISPLAY
0A83   082C           03898         movf seg,W
0A84   0086           03899         movwf PORTB
  00000A85            03900 F1_000622 equ $ ; IN [7TIMER HC154.BAS] digit1 = 2 : DELAYMS 1 : digit1 = 0 : digit2 = 0
0A85   3002           03901         movlw 2
0A86   0087           03902         movwf PORTC
0A87   3001           03903         movlw 1
                      03904         f@call DL@MS
0A8A   0187           03905         clrf PORTC
0A8B   0185           03906         clrf PORTA
  00000A8C            03907 F1_000623 equ $ ; IN [7TIMER HC154.BAS] seg = mm11
0A8C   085B           03908         movf mm11,W
0A8D   00AC           03909         movwf seg
  00000A8E            03910 F1_000624 equ $ ; IN [7TIMER HC154.BAS] GOSUB DISPLAY : dta = seg
                      03911         f@call DISPLAY
0A91   082C           03912         movf seg,W
0A92   0086           03913         movwf PORTB
  00000A93            03914 F1_000625 equ $ ; IN [7TIMER HC154.BAS] digit1 = 3 : DELAYMS 1 : digit1 = 0 : digit2 = 0
0A93   3003           03915         movlw 3
0A94   0087           03916         movwf PORTC
0A95   3001           03917         movlw 1
                      03918         f@call DL@MS
0A98   0187           03919         clrf PORTC
0A99   0185           03920         clrf PORTA
  00000A9A            03921 F1_000626 equ $ ; IN [7TIMER HC154.BAS] seg = mm12
0A9A   085C           03922         movf mm12,W
0A9B   00AC           03923         movwf seg
  00000A9C            03924 F1_000627 equ $ ; IN [7TIMER HC154.BAS] GOSUB DISPLAY : dta = seg
                      03925         f@call DISPLAY
0A9F   082C           03926         movf seg,W
0AA0   0086           03927         movwf PORTB
  00000AA1            03928 F1_000628 equ $ ; IN [7TIMER HC154.BAS] digit1 = 4 : DELAYMS 1 : digit1 = 0 : digit2 = 0
0AA1   3004           03929         movlw 4
0AA2   0087           03930         movwf PORTC
0AA3   3001           03931         movlw 1
                      03932         f@call DL@MS
0AA6   0187           03933         clrf PORTC
0AA7   0185           03934         clrf PORTA
  00000AA8            03935 F1_000629 equ $ ; IN [7TIMER HC154.BAS] seg = hh21
0AA8   084F           03936         movf hh21,W
0AA9   00AC           03937         movwf seg
  00000AAA            03938 F1_000630 equ $ ; IN [7TIMER HC154.BAS] GOSUB DISPLAY : dta = seg
                      03939         f@call DISPLAY
0AAD   082C           03940         movf seg,W
0AAE   0086           03941         movwf PORTB
  00000AAF            03942 F1_000631 equ $ ; IN [7TIMER HC154.BAS] digit1 = 5 : DELAYMS 1 : digit1 = 0 : digit2 = 0
0AAF   3005           03943         movlw 5
0AB0   0087           03944         movwf PORTC
0AB1   3001           03945         movlw 1
                      03946         f@call DL@MS
0AB4   0187           03947         clrf PORTC
0AB5   0185           03948         clrf PORTA
  00000AB6            03949 F1_000632 equ $ ; IN [7TIMER HC154.BAS] seg = hh22
0AB6   0850           03950         movf hh22,W
0AB7   00AC           03951         movwf seg
  00000AB8            03952 F1_000633 equ $ ; IN [7TIMER HC154.BAS] GOSUB DISPLAY : dta = seg
                      03953         f@call DISPLAY
0ABB   082C           03954         movf seg,W
0ABC   0086           03955         movwf PORTB
  00000ABD            03956 F1_000634 equ $ ; IN [7TIMER HC154.BAS] digit1 = 6 : DELAYMS 1 : digit1 = 0 : digit2 = 0
0ABD   3006           03957         movlw 6
0ABE   0087           03958         movwf PORTC
0ABF   3001           03959         movlw 1
                      03960         f@call DL@MS
0AC2   0187           03961         clrf PORTC
0AC3   0185           03962         clrf PORTA
  00000AC4            03963 F1_000635 equ $ ; IN [7TIMER HC154.BAS] seg = mm21
0AC4   085D           03964         movf mm21,W
0AC5   00AC           03965         movwf seg
  00000AC6            03966 F1_000636 equ $ ; IN [7TIMER HC154.BAS] GOSUB DISPLAY : dta = seg
                      03967         f@call DISPLAY
0AC9   082C           03968         movf seg,W
0ACA   0086           03969         movwf PORTB
  00000ACB            03970 F1_000637 equ $ ; IN [7TIMER HC154.BAS] digit1 = 7 : DELAYMS 1 : digit1 = 0 : digit2 = 0
0ACB   3007           03971         movlw 7
0ACC   0087           03972         movwf PORTC
0ACD   3001           03973         movlw 1
                      03974         f@call DL@MS
0AD0   0187           03975         clrf PORTC
0AD1   0185           03976         clrf PORTA
  00000AD2            03977 F1_000638 equ $ ; IN [7TIMER HC154.BAS] seg = mm22
0AD2   085E           03978         movf mm22,W
0AD3   00AC           03979         movwf seg
  00000AD4            03980 F1_000639 equ $ ; IN [7TIMER HC154.BAS] GOSUB DISPLAY : dta = seg
                      03981         f@call DISPLAY
0AD7   082C           03982         movf seg,W
0AD8   0086           03983         movwf PORTB
  00000AD9            03984 F1_000640 equ $ ; IN [7TIMER HC154.BAS] digit1 = 8 : DELAYMS 1 : digit1 = 0 : digit2 = 0
0AD9   3008           03985         movlw 8
0ADA   0087           03986         movwf PORTC
0ADB   3001           03987         movlw 1
                      03988         f@call DL@MS
0ADE   0187           03989         clrf PORTC
0ADF   0185           03990         clrf PORTA
  00000AE0            03991 F1_000641 equ $ ; IN [7TIMER HC154.BAS] seg = hh31
0AE0   0851           03992         movf hh31,W
0AE1   00AC           03993         movwf seg
  00000AE2            03994 F1_000642 equ $ ; IN [7TIMER HC154.BAS] GOSUB DISPLAY : dta = seg
                      03995         f@call DISPLAY
0AE5   082C           03996         movf seg,W
0AE6   0086           03997         movwf PORTB
  00000AE7            03998 F1_000643 equ $ ; IN [7TIMER HC154.BAS] digit1 = 9 : DELAYMS 1 : digit1 = 0 : digit2 = 0
0AE7   3009           03999         movlw 9
0AE8   0087           04000         movwf PORTC
0AE9   3001           04001         movlw 1
                      04002         f@call DL@MS
0AEC   0187           04003         clrf PORTC
0AED   0185           04004         clrf PORTA
  00000AEE            04005 F1_000644 equ $ ; IN [7TIMER HC154.BAS] seg = hh32
0AEE   0852           04006         movf hh32,W
0AEF   00AC           04007         movwf seg
  00000AF0            04008 F1_000645 equ $ ; IN [7TIMER HC154.BAS] GOSUB DISPLAY : dta = seg
                      04009         f@call DISPLAY
0AF3   082C           04010         movf seg,W
0AF4   0086           04011         movwf PORTB
  00000AF5            04012 F1_000646 equ $ ; IN [7TIMER HC154.BAS] digit1 = 10 : DELAYMS 1 : digit1 = 0 : digit2 = 0
0AF5   300A           04013         movlw 10
0AF6   0087           04014         movwf PORTC
0AF7   3001           04015         movlw 1
                      04016         f@call DL@MS
0AFA   0187           04017         clrf PORTC
0AFB   0185           04018         clrf PORTA
  00000AFC            04019 F1_000647 equ $ ; IN [7TIMER HC154.BAS] seg = mm31
0AFC   085F           04020         movf mm31,W
0AFD   00AC           04021         movwf seg
  00000AFE            04022 F1_000648 equ $ ; IN [7TIMER HC154.BAS] GOSUB DISPLAY : dta = seg
                      04023         f@call DISPLAY
0B01   082C           04024         movf seg,W
0B02   0086           04025         movwf PORTB
  00000B03            04026 F1_000649 equ $ ; IN [7TIMER HC154.BAS] digit1 = 11 : DELAYMS 1 : digit1 = 0 : digit2 = 0
0B03   300B           04027         movlw 11
0B04   0087           04028         movwf PORTC
0B05   3001           04029         movlw 1
                      04030         f@call DL@MS
0B08   0187           04031         clrf PORTC
0B09   0185           04032         clrf PORTA
  00000B0A            04033 F1_000650 equ $ ; IN [7TIMER HC154.BAS] seg = mm32
0B0A   0860           04034         movf mm32,W
0B0B   00AC           04035         movwf seg
  00000B0C            04036 F1_000651 equ $ ; IN [7TIMER HC154.BAS] GOSUB DISPLAY : dta = seg
                      04037         f@call DISPLAY
0B0F   082C           04038         movf seg,W
0B10   0086           04039         movwf PORTB
  00000B11            04040 F1_000652 equ $ ; IN [7TIMER HC154.BAS] digit1 = 12 : DELAYMS 1 : digit1 = 0 : digit2 = 0
0B11   300C           04041         movlw 12
0B12   0087           04042         movwf PORTC
0B13   3001           04043         movlw 1
                      04044         f@call DL@MS
0B16   0187           04045         clrf PORTC
0B17   0185           04046         clrf PORTA
  00000B18            04047 F1_000653 equ $ ; IN [7TIMER HC154.BAS] seg = hh41
0B18   0853           04048         movf hh41,W
0B19   00AC           04049         movwf seg
  00000B1A            04050 F1_000654 equ $ ; IN [7TIMER HC154.BAS] GOSUB DISPLAY : dta = seg
                      04051         f@call DISPLAY
0B1D   082C           04052         movf seg,W
0B1E   0086           04053         movwf PORTB
  00000B1F            04054 F1_000655 equ $ ; IN [7TIMER HC154.BAS] digit1 = 13 : DELAYMS 1 : digit1 = 0 : digit2 = 0
0B1F   300D           04055         movlw 13
0B20   0087           04056         movwf PORTC
0B21   3001           04057         movlw 1
                      04058         f@call DL@MS
0B24   0187           04059         clrf PORTC
0B25   0185           04060         clrf PORTA
  00000B26            04061 F1_000656 equ $ ; IN [7TIMER HC154.BAS] seg = hh42
0B26   0854           04062         movf hh42,W
0B27   00AC           04063         movwf seg
  00000B28            04064 F1_000657 equ $ ; IN [7TIMER HC154.BAS] GOSUB DISPLAY : dta = seg
                      04065         f@call DISPLAY
0B2B   082C           04066         movf seg,W
0B2C   0086           04067         movwf PORTB
  00000B2D            04068 F1_000658 equ $ ; IN [7TIMER HC154.BAS] digit1 = 14 : DELAYMS 1 : digit1 = 0 : digit2 = 0
0B2D   300E           04069         movlw 14
0B2E   0087           04070         movwf PORTC
0B2F   3001           04071         movlw 1
                      04072         f@call DL@MS
0B32   0187           04073         clrf PORTC
0B33   0185           04074         clrf PORTA
  00000B34            04075 F1_000659 equ $ ; IN [7TIMER HC154.BAS] seg = mm41
0B34   0861           04076         movf mm41,W
0B35   00AC           04077         movwf seg
  00000B36            04078 F1_000660 equ $ ; IN [7TIMER HC154.BAS] GOSUB DISPLAY : dta = seg
                      04079         f@call DISPLAY
0B39   082C           04080         movf seg,W
0B3A   0086           04081         movwf PORTB
  00000B3B            04082 F1_000661 equ $ ; IN [7TIMER HC154.BAS] digit1 = 15 : DELAYMS 1 : digit1 = 0 : digit2 = 0
0B3B   300F           04083         movlw 15
0B3C   0087           04084         movwf PORTC
0B3D   3001           04085         movlw 1
                      04086         f@call DL@MS
0B40   0187           04087         clrf PORTC
0B41   0185           04088         clrf PORTA
  00000B42            04089 F1_000662 equ $ ; IN [7TIMER HC154.BAS] seg = mm42
0B42   0862           04090         movf mm42,W
0B43   00AC           04091         movwf seg
  00000B44            04092 F1_000663 equ $ ; IN [7TIMER HC154.BAS] GOSUB DISPLAY : dta = seg
                      04093         f@call DISPLAY
0B47   082C           04094         movf seg,W
0B48   0086           04095         movwf PORTB
  00000B49            04096 F1_000664 equ $ ; IN [7TIMER HC154.BAS] digit2 = 1 : DELAYMS 1 : digit1 = 0 : digit2 = 0
0B49   3001           04097         movlw 1
0B4A   0085           04098         movwf PORTA
                      04099         f@call DL@MS
0B4D   0187           04100         clrf PORTC
0B4E   0185           04101         clrf PORTA
  00000B4F            04102 F1_000665 equ $ ; IN [7TIMER HC154.BAS] seg = hh51
0B4F   0855           04103         movf hh51,W
0B50   00AC           04104         movwf seg
  00000B51            04105 F1_000666 equ $ ; IN [7TIMER HC154.BAS] GOSUB DISPLAY : dta = seg
                      04106         f@call DISPLAY
0B54   082C           04107         movf seg,W
0B55   0086           04108         movwf PORTB
  00000B56            04109 F1_000667 equ $ ; IN [7TIMER HC154.BAS] digit2 = 2 : DELAYMS 1 : digit1 = 0 : digit2 = 0
0B56   3002           04110         movlw 2
0B57   0085           04111         movwf PORTA
0B58   3001           04112         movlw 1
                      04113         f@call DL@MS
0B5B   0187           04114         clrf PORTC
0B5C   0185           04115         clrf PORTA
  00000B5D            04116 F1_000668 equ $ ; IN [7TIMER HC154.BAS] seg = hh52
0B5D   0856           04117         movf hh52,W
0B5E   00AC           04118         movwf seg
  00000B5F            04119 F1_000669 equ $ ; IN [7TIMER HC154.BAS] GOSUB DISPLAY : dta = seg
                      04120         f@call DISPLAY
0B62   082C           04121         movf seg,W
0B63   0086           04122         movwf PORTB
  00000B64            04123 F1_000670 equ $ ; IN [7TIMER HC154.BAS] digit2 = 3 : DELAYMS 1 : digit1 = 0 : digit2 = 0
0B64   3003           04124         movlw 3
0B65   0085           04125         movwf PORTA
0B66   3001           04126         movlw 1
                      04127         f@call DL@MS
0B69   0187           04128         clrf PORTC
0B6A   0185           04129         clrf PORTA
  00000B6B            04130 F1_000671 equ $ ; IN [7TIMER HC154.BAS] seg = mm51
0B6B   0863           04131         movf mm51,W
0B6C   00AC           04132         movwf seg
  00000B6D            04133 F1_000672 equ $ ; IN [7TIMER HC154.BAS] GOSUB DISPLAY : dta = seg
                      04134         f@call DISPLAY
0B70   082C           04135         movf seg,W
0B71   0086           04136         movwf PORTB
  00000B72            04137 F1_000673 equ $ ; IN [7TIMER HC154.BAS] digit2 = 4 : DELAYMS 1 : digit1 = 0 : digit2 = 0
0B72   3004           04138         movlw 4
0B73   0085           04139         movwf PORTA
0B74   3001           04140         movlw 1
                      04141         f@call DL@MS
0B77   0187           04142         clrf PORTC
0B78   0185           04143         clrf PORTA
  00000B79            04144 F1_000674 equ $ ; IN [7TIMER HC154.BAS] seg = mm52
0B79   0864           04145         movf mm52,W
0B7A   00AC           04146         movwf seg
  00000B7B            04147 F1_000675 equ $ ; IN [7TIMER HC154.BAS] GOSUB DISPLAY : dta = seg
                      04148         f@call DISPLAY
0B7E   082C           04149         movf seg,W
0B7F   0086           04150         movwf PORTB
  00000B80            04151 F1_000676 equ $ ; IN [7TIMER HC154.BAS] digit2 = 5 : DELAYMS 1 : digit1 = 0 : digit2 = 0
0B80   3005           04152         movlw 5
0B81   0085           04153         movwf PORTA
0B82   3001           04154         movlw 1
                      04155         f@call DL@MS
0B85   0187           04156         clrf PORTC
0B86   0185           04157         clrf PORTA
  00000B87            04158 F1_000677 equ $ ; IN [7TIMER HC154.BAS] seg = hh61
0B87   0857           04159         movf hh61,W
0B88   00AC           04160         movwf seg
  00000B89            04161 F1_000678 equ $ ; IN [7TIMER HC154.BAS] GOSUB DISPLAY : dta = seg
                      04162         f@call DISPLAY
0B8C   082C           04163         movf seg,W
0B8D   0086           04164         movwf PORTB
  00000B8E            04165 F1_000679 equ $ ; IN [7TIMER HC154.BAS] digit2 = 6 : DELAYMS 1 : digit1 = 0 : digit2 = 0
0B8E   3006           04166         movlw 6
0B8F   0085           04167         movwf PORTA
0B90   3001           04168         movlw 1
                      04169         f@call DL@MS
0B93   0187           04170         clrf PORTC
0B94   0185           04171         clrf PORTA
  00000B95            04172 F1_000680 equ $ ; IN [7TIMER HC154.BAS] seg = hh62
0B95   0858           04173         movf hh62,W
0B96   00AC           04174         movwf seg
  00000B97            04175 F1_000681 equ $ ; IN [7TIMER HC154.BAS] GOSUB DISPLAY : dta = seg
                      04176         f@call DISPLAY
0B9A   082C           04177         movf seg,W
0B9B   0086           04178         movwf PORTB
  00000B9C            04179 F1_000682 equ $ ; IN [7TIMER HC154.BAS] digit2 = 7 : DELAYMS 1 : digit1 = 0 : digit2 = 0
0B9C   3007           04180         movlw 7
0B9D   0085           04181         movwf PORTA
0B9E   3001           04182         movlw 1
                      04183         f@call DL@MS
0BA1   0187           04184         clrf PORTC
0BA2   0185           04185         clrf PORTA
  00000BA3            04186 F1_000683 equ $ ; IN [7TIMER HC154.BAS] seg = mm61
0BA3   0865           04187         movf mm61,W
0BA4   00AC           04188         movwf seg
  00000BA5            04189 F1_000684 equ $ ; IN [7TIMER HC154.BAS] GOSUB DISPLAY : dta = seg
                      04190         f@call DISPLAY
0BA8   082C           04191         movf seg,W
0BA9   0086           04192         movwf PORTB
  00000BAA            04193 F1_000685 equ $ ; IN [7TIMER HC154.BAS] digit2 = 8 : DELAYMS 1 : digit1 = 0 : digit2 = 0
0BAA   3008           04194         movlw 8
0BAB   0085           04195         movwf PORTA
0BAC   3001           04196         movlw 1
                      04197         f@call DL@MS
0BAF   0187           04198         clrf PORTC
0BB0   0185           04199         clrf PORTA
  00000BB1            04200 F1_000686 equ $ ; IN [7TIMER HC154.BAS] seg = mm62
0BB1   0866           04201         movf mm62,W
0BB2   00AC           04202         movwf seg
  00000BB3            04203 F1_000687 equ $ ; IN [7TIMER HC154.BAS] GOSUB DISPLAY : dta = seg
                      04204         f@call DISPLAY
0BB6   082C           04205         movf seg,W
0BB7   0086           04206         movwf PORTB
  00000BB8            04207 F1_000688 equ $ ; IN [7TIMER HC154.BAS] digit2 = 9 : DELAYMS 1 : digit1 = 0 : digit2 = 0
0BB8   3009           04208         movlw 9
0BB9   0085           04209         movwf PORTA
0BBA   3001           04210         movlw 1
                      04211         f@call DL@MS
0BBD   0187           04212         clrf PORTC
0BBE   0185           04213         clrf PORTA
  00000BBF            04214 F1_000689 equ $ ; IN [7TIMER HC154.BAS] seg = hh71
0BBF   0859           04215         movf hh71,W
0BC0   00AC           04216         movwf seg
  00000BC1            04217 F1_000690 equ $ ; IN [7TIMER HC154.BAS] GOSUB DISPLAY : dta = seg
                      04218         f@call DISPLAY
0BC4   082C           04219         movf seg,W
0BC5   0086           04220         movwf PORTB
  00000BC6            04221 F1_000691 equ $ ; IN [7TIMER HC154.BAS] digit2 = 10 : DELAYMS 1 : digit1 = 0 : digit2 = 0
0BC6   300A           04222         movlw 10
0BC7   0085           04223         movwf PORTA
0BC8   3001           04224         movlw 1
                      04225         f@call DL@MS
0BCB   0187           04226         clrf PORTC
0BCC   0185           04227         clrf PORTA
  00000BCD            04228 F1_000692 equ $ ; IN [7TIMER HC154.BAS] seg = hh72
0BCD   085A           04229         movf hh72,W
0BCE   00AC           04230         movwf seg
  00000BCF            04231 F1_000693 equ $ ; IN [7TIMER HC154.BAS] GOSUB DISPLAY : dta = seg
                      04232         f@call DISPLAY
0BD2   082C           04233         movf seg,W
0BD3   0086           04234         movwf PORTB
  00000BD4            04235 F1_000694 equ $ ; IN [7TIMER HC154.BAS] digit2 = 11 : DELAYMS 1 : digit1 = 0 : digit2 = 0
0BD4   300B           04236         movlw 11
0BD5   0085           04237         movwf PORTA
0BD6   3001           04238         movlw 1
                      04239         f@call DL@MS
0BD9   0187           04240         clrf PORTC
0BDA   0185           04241         clrf PORTA
  00000BDB            04242 F1_000695 equ $ ; IN [7TIMER HC154.BAS] seg = mm71
0BDB   0867           04243         movf mm71,W
0BDC   00AC           04244         movwf seg
  00000BDD            04245 F1_000696 equ $ ; IN [7TIMER HC154.BAS] GOSUB DISPLAY : dta = seg
                      04246         f@call DISPLAY
0BE0   082C           04247         movf seg,W
0BE1   0086           04248         movwf PORTB
  00000BE2            04249 F1_000697 equ $ ; IN [7TIMER HC154.BAS] digit2 = 12 : DELAYMS 1 : digit1 = 0 : digit2 = 0
0BE2   300C           04250         movlw 12
0BE3   0085           04251         movwf PORTA
0BE4   3001           04252         movlw 1
                      04253         f@call DL@MS
0BE7   0187           04254         clrf PORTC
0BE8   0185           04255         clrf PORTA
  00000BE9            04256 F1_000698 equ $ ; IN [7TIMER HC154.BAS] seg = mm72
0BE9   0868           04257         movf mm72,W
0BEA   00AC           04258         movwf seg
  00000BEB            04259 F1_000699 equ $ ; IN [7TIMER HC154.BAS] GOSUB DISPLAY : dta = seg
                      04260         f@call DISPLAY
0BEE   082C           04261         movf seg,W
0BEF   0086           04262         movwf PORTB
  00000BF0            04263 F1_000700 equ $ ; IN [7TIMER HC154.BAS] digit2 = 13 : DELAYMS 1 : digit1 = 0 : digit2 = 0
0BF0   300D           04264         movlw 13
0BF1   0085           04265         movwf PORTA
0BF2   3001           04266         movlw 1
                      04267         f@call DL@MS
0BF5   0187           04268         clrf PORTC
0BF6   0185           04269         clrf PORTA
  00000BF7            04270 F1_000701 equ $ ; IN [7TIMER HC154.BAS] return
0BF7   0008           04271         return
0BF8                  04272 DISPLAY
  00000BF8            04273 F1_000704 equ $ ; IN [7TIMER HC154.BAS] seg = LOOKUP seg,[63,6,91,79,102,109,125,7,127,111]
0BF8   082C           04274         movf seg,W
0BF9   3C09           04275         sublw 9
                      04276         set@page LE@LB1
0BFC   1C03           04277         btfss STATUS,0
0BFD   2C13           04278         goto LE@LB1
                      04279         f@call L@LB3
0C01   00AC           04280         movwf seg
                      04281         F@JUMP LE@LB1
0C05                  04282 L@LB3
0C05   300C           04283         movlw ((LK@LB2 >> 8) & 255)
0C06   008A           04284         movwf PCLATH
0C07   082C           04285         movf seg,W
                      04286         if($ >> 8) !=(($ + 10) >> 8)
                      04287         goto SO@LB487
                      04288         org(($ + 255) & 65280)
                      04289 SO@LB487
                      04290         endif
0C08   0782           04291         addwf PCL,F
0C09                  04292 LK@LB2
0C09   343F 3406 345B 04293         dt 63,6,91,79,102,109,125,7,127,111
       344F 3466 346D 
       347D 3407 347F 
       346F 
0C13                  04294 LE@LB1
  00000C13            04295 F1_000705 equ $ ; IN [7TIMER HC154.BAS] return
0C13   0008           04296         return
  00000C14            04297 F1_EOF equ $ ; 7TIMER HC154.BAS
0C14                  04298 PB@LB489
                      04299         F@JUMP PB@LB489
0C17                  04301 __EOF
2007   3F32           04329 __config HS_OSC & WDT_OFF & PWRTE_ON & BODEN_OFF & LVP_OFF & WRTE_ON & CP_OFF & DEBUG_OFF
                      04339         end
MPASM  5.42                               A.S   8-22-2015  12:07:00         PAGE  2


SYMBOL TABLE
  LABEL                             VALUE 

ACKDT                             00000005
ACKEN                             00000004
ACKSTAT                           00000006
ADCON0                            0000001F
ADCON1                            0000009F
ADCS0                             00000006
ADCS1                             00000007
ADDEN                             00000003
ADFM                              00000007
ADIE                              00000006
ADIF                              00000006
ADON                              00000000
ADRESH                            0000001E
ADRESL                            0000009E
ADRESLH                           0000001E
ADRS                              0000002D
BANK0_END                         0X7F
BANK0_START                       0X20
BANK1_END                         0X00EF
BANK1_START                       0X00A0
BANK2_END                         0X016F
BANK2_START                       0X0110
BANK3_END                         0X01EF
BANK3_START                       0X0190
BC@LL1                            00000116
BC@LL10                           0000012F
BC@LL100                          0000029F
BC@LL102                          000002A8
BC@LL104                          000002AD
BC@LL106                          000002B3
BC@LL108                          000002BA
BC@LL113                          000002D8
BC@LL115                          000002DE
BC@LL117                          000002E7
BC@LL119                          000002EC
BC@LL12                           0000013B
BC@LL121                          000002F2
BC@LL123                          000002F9
BC@LL128                          00000317
BC@LL130                          0000031D
BC@LL132                          00000326
BC@LL134                          0000032B
BC@LL136                          00000331
BC@LL138                          00000338
BC@LL14                           00000140
BC@LL143                          00000356
BC@LL145                          0000035C
BC@LL147                          00000365
BC@LL149                          0000036A
BC@LL151                          00000370
BC@LL153                          00000377
BC@LL158                          00000395
BC@LL16                           00000146
BC@LL160                          0000039B
BC@LL162                          000003A4
BC@LL164                          000003A9
BC@LL166                          000003AF
BC@LL168                          000003B6
BC@LL173                          000003D4
BC@LL175                          000003DA
BC@LL177                          000003E3
BC@LL179                          000003E8
BC@LL18                           0000014D
BC@LL181                          000003EE
BC@LL183                          000003F5
BC@LL188                          00000413
BC@LL190                          00000419
BC@LL192                          00000422
BC@LL194                          00000427
BC@LL196                          0000042D
BC@LL198                          00000434
BC@LL2                            000000FA
BC@LL203                          00000452
BC@LL205                          00000458
BC@LL207                          00000461
BC@LL209                          00000466
BC@LL211                          0000046C
BC@LL213                          00000473
BC@LL218                          00000491
BC@LL220                          00000497
BC@LL222                          000004A0
BC@LL224                          000004A5
BC@LL226                          000004AB
BC@LL228                          000004B2
BC@LL23                           00000164
BC@LL233                          000004D0
BC@LL235                          000004D6
BC@LL237                          000004DF
BC@LL239                          000004E4
BC@LL241                          000004EA
BC@LL243                          000004F1
BC@LL248                          0000050F
BC@LL25                           0000016A
BC@LL250                          00000515
BC@LL252                          0000051E
BC@LL254                          00000523
BC@LL256                          00000529
BC@LL258                          00000530
BC@LL263                          0000054E
BC@LL265                          00000554
BC@LL267                          0000055D
BC@LL269                          00000562
BC@LL27                           00000173
BC@LL271                          00000568
BC@LL273                          0000056F
BC@LL278                          0000058D
BC@LL280                          00000593
BC@LL282                          0000059C
BC@LL284                          000005A1
BC@LL286                          000005A7
BC@LL288                          000005AE
BC@LL29                           00000178
BC@LL293                          000005CC
BC@LL295                          000005D2
BC@LL297                          000005DB
BC@LL299                          000005E0
BC@LL3                            000000F4
BC@LL301                          000005E6
BC@LL303                          000005ED
BC@LL308                          0000060B
BC@LL31                           0000017E
BC@LL310                          00000611
BC@LL312                          0000061A
BC@LL314                          0000061F
BC@LL316                          00000625
BC@LL318                          0000062C
BC@LL323                          0000064A
BC@LL325                          00000650
BC@LL327                          00000659
BC@LL329                          0000065E
BC@LL33                           00000185
BC@LL331                          00000664
BC@LL333                          0000066B
BC@LL338                          00000689
BC@LL340                          0000068F
BC@LL342                          00000698
BC@LL344                          0000069D
BC@LL346                          000006A3
BC@LL348                          000006AA
BC@LL353                          000006C8
BC@LL355                          000006CE
BC@LL357                          000006D7
BC@LL359                          000006DC
BC@LL361                          000006E2
BC@LL363                          000006E9
BC@LL368                          00000707
BC@LL370                          0000070D
BC@LL372                          00000716
BC@LL374                          0000071B
BC@LL376                          00000721
BC@LL378                          00000728
BC@LL38                           0000019D
BC@LL383                          00000746
BC@LL385                          0000074C
BC@LL387                          00000755
BC@LL389                          0000075A
BC@LL391                          00000760
BC@LL393                          00000767
BC@LL398                          00000785
BC@LL40                           000001A3
BC@LL400                          0000078B
BC@LL402                          00000794
BC@LL404                          00000799
BC@LL406                          0000079F
BC@LL408                          000007A6
BC@LL413                          000007C4
BC@LL415                          000007CA
BC@LL417                          000007D3
BC@LL419                          000007D8
BC@LL42                           000001AC
BC@LL421                          000007DE
BC@LL423                          000007E5
BC@LL428                          00000802
BC@LL430                          00000808
BC@LL432                          0000081F
BC@LL434                          00000835
BC@LL436                          0000084B
BC@LL438                          00000861
BC@LL44                           000001B1
BC@LL440                          00000877
BC@LL442                          0000088D
BC@LL444                          000008A3
BC@LL446                          000008B9
BC@LL448                          000008CF
BC@LL450                          000008E5
BC@LL452                          000008FB
BC@LL454                          00000911
BC@LL456                          00000927
BC@LL458                          0000093D
BC@LL46                           000001B7
BC@LL460                          00000953
BC@LL462                          00000968
BC@LL464                          0000097E
BC@LL466                          00000994
BC@LL468                          000009AA
BC@LL470                          000009C0
BC@LL472                          000009D6
BC@LL474                          000009EC
BC@LL476                          00000A02
BC@LL478                          00000A18
BC@LL48                           000001BE
BC@LL480                          00000A2E
BC@LL482                          00000A44
BC@LL484                          00000A5A
BC@LL486                          00000A70
BC@LL5                            00000116
BC@LL53                           000001DC
BC@LL55                           000001E2
BC@LL57                           000001EB
BC@LL59                           000001F0
BC@LL61                           000001F6
BC@LL63                           000001FD
BC@LL68                           0000021B
BC@LL70                           00000221
BC@LL72                           0000022A
BC@LL74                           0000022F
BC@LL76                           00000235
BC@LL78                           0000023C
BC@LL83                           0000025A
BC@LL85                           00000260
BC@LL87                           00000269
BC@LL89                           0000026E
BC@LL91                           00000274
BC@LL93                           0000027B
BC@LL98                           00000299
BCLIE                             00000003
BCLIF                             00000003
BF                                00000000
BIT_BIT                           
BIT_BYTE                          
BIT_DWORD                         
BIT_WORD                          
BIT_WREG                          
BODEN_OFF                         00003FBF
BODEN_ON                          00003FFF
BOREN_OFF                         00003FBF
BOREN_ON                          00003FFF
BRGH                              00000002
BYTE_BIT                          
BYTE_BYTE                         
BYTE_DWORD                        
BYTE_WORD                         
BYTE_WREG                         
C                                 00000000
CCP1CON                           00000017
CCP1IE                            00000002
CCP1IF                            00000002
CCP1M0                            00000000
CCP1M1                            00000001
CCP1M2                            00000002
CCP1M3                            00000003
CCP1X                             00000005
CCP1Y                             00000004
CCP2CON                           0000001D
CCP2IE                            00000000
CCP2IF                            00000000
CCP2M0                            00000000
CCP2M1                            00000001
CCP2M2                            00000002
CCP2M3                            00000003
CCP2X                             00000005
CCP2Y                             00000004
CCPR1H                            00000016
CCPR1L                            00000015
CCPR1LH                           00000016
CCPR2H                            0000001C
CCPR2L                            0000001B
CCPR2LH                           0000001C
CHS0                              00000003
CHS1                              00000004
CHS2                              00000005
CKE                               00000006
CKP                               00000004
CPD_OFF                           00003FFF
CPD_ON                            00003EFF
CP_ALL                            00000FCF
CP_HALF                           00001FDF
CP_OFF                            00003FFF
CP_UPPER_256                      00002FEF
CREN                              00000004
CSRC                              00000007
CT@LB112                          000002C4
CT@LB127                          00000303
CT@LB142                          00000342
CT@LB157                          00000381
CT@LB172                          000003C0
CT@LB187                          000003FF
CT@LB202                          0000043E
CT@LB217                          0000047D
CT@LB22                           00000151
CT@LB232                          000004BC
CT@LB247                          000004FB
CT@LB262                          0000053A
CT@LB277                          00000579
CT@LB292                          000005B8
CT@LB307                          000005F7
CT@LB322                          00000636
CT@LB337                          00000675
CT@LB352                          000006B4
CT@LB367                          000006F3
CT@LB37                           00000189
CT@LB382                          00000732
CT@LB397                          00000771
CT@LB412                          000007B0
CT@LB427                          000007EF
CT@LB52                           000001C8
CT@LB67                           00000207
CT@LB82                           00000246
CT@LB9                            00000122
CT@LB97                           00000285
CURRENT@PAGE                      00000000
DATA_ADDRESS                      00000005
DC                                00000001
DEBUG_OFF                         00003FFF
DEBUG_ON                          000037FF
DELAY                             0000004B
DEST@PAGE                         00000000
DIGIT1                            PORTC
DIGIT2                            PORTA
DIGIT_S                           0000002B
DISPLAY                           00000BF8
DL@MS                             0000001E
DL@US                             0000002B
DLUS@W                            0000002C
DLY@P                             00000020
DLY@W                             0000001F
DOWN                              PORTC,7
DTA                               PORTB
DWORD_BIT                         
DWORD_BYTE                        
DWORD_DWORD                       
DWORD_WORD                        
DWORD_WREG                        
D_A                               00000005
EE@RD                             00000004
EE@RD@W                           00000006
EE@WR                             0000000E
EE@WR@W                           0000000E
EEADR                             0000010D
EEADRH                            0000010F
EECON1                            0000018C
EECON2                            0000018D
EEDAT                             0000010C
EEDATA                            0000010C
EEDATH                            0000010E
EEDATL                            0000010C
EEDATLH                           0000010E
EEIE                              00000004
EEIF                              00000004
EEPGD                             00000007
F1_000014                         00000040
F1_000015                         00000044
F1_000045                         00000048
F1_000046                         00000050
F1_000047                         00000058
F1_000048                         00000060
F1_000049                         00000068
F1_000050                         00000070
F1_000051                         00000078
F1_000052                         00000080
F1_000053                         00000088
F1_000054                         00000090
F1_000055                         00000098
F1_000056                         000000A0
F1_000057                         000000A8
F1_000058                         000000B0
F1_000059                         000000B8
F1_000060                         000000B8
F1_000061                         000000F4
F1_000062                         000000F7
F1_000063                         000000FA
F1_000064                         000000FE
F1_000065                         00000102
F1_000066                         00000106
F1_000067                         0000010A
F1_000068                         0000010E
F1_000069                         00000112
F1_000070                         00000116
F1_000073                         00000116
F1_000074                         0000011D
F1_000075                         00000122
F1_000077                         00000128
F1_000078                         0000012F
F1_000079                         00000132
F1_000082                         00000134
F1_000083                         00000136
F1_000084                         0000013B
F1_000085                         00000140
F1_000086                         00000146
F1_000087                         0000014D
F1_000088                         0000014E
F1_000089                         00000151
F1_000090                         00000157
F1_000091                         0000015D
F1_000092                         00000164
F1_000093                         0000016A
F1_000096                         0000016C
F1_000097                         0000016E
F1_000098                         00000173
F1_000099                         00000178
F1_000100                         0000017E
F1_000101                         00000185
F1_000102                         00000186
F1_000103                         00000189
F1_000104                         0000018F
F1_000105                         00000196
F1_000106                         0000019D
F1_000107                         000001A3
F1_000110                         000001A5
F1_000111                         000001A7
F1_000112                         000001AC
F1_000113                         000001B1
F1_000114                         000001B7
F1_000115                         000001BE
F1_000116                         000001C5
F1_000117                         000001C8
F1_000118                         000001CE
F1_000119                         000001D5
F1_000120                         000001DC
F1_000121                         000001E2
F1_000124                         000001E4
F1_000125                         000001E6
F1_000126                         000001EB
F1_000127                         000001F0
F1_000128                         000001F6
F1_000129                         000001FD
F1_000130                         00000204
F1_000131                         00000207
F1_000132                         0000020D
F1_000133                         00000214
F1_000134                         0000021B
F1_000135                         00000221
F1_000138                         00000223
F1_000139                         00000225
F1_000140                         0000022A
F1_000141                         0000022F
F1_000142                         00000235
F1_000143                         0000023C
F1_000144                         00000243
F1_000145                         00000246
F1_000146                         0000024C
F1_000147                         00000253
F1_000148                         0000025A
F1_000149                         00000260
F1_000152                         00000262
F1_000153                         00000264
F1_000154                         00000269
F1_000155                         0000026E
F1_000156                         00000274
F1_000157                         0000027B
F1_000158                         00000282
F1_000159                         00000285
F1_000160                         0000028B
F1_000161                         00000292
F1_000162                         00000299
F1_000163                         0000029F
F1_000166                         000002A1
F1_000167                         000002A3
F1_000168                         000002A8
F1_000169                         000002AD
F1_000170                         000002B3
F1_000171                         000002BA
F1_000172                         000002C1
F1_000173                         000002C4
F1_000174                         000002CA
F1_000175                         000002D1
F1_000176                         000002D8
F1_000177                         000002DE
F1_000180                         000002E0
F1_000181                         000002E2
F1_000182                         000002E7
F1_000183                         000002EC
F1_000184                         000002F2
F1_000185                         000002F9
F1_000186                         00000300
F1_000187                         00000303
F1_000188                         00000309
F1_000189                         00000310
F1_000190                         00000317
F1_000191                         0000031D
F1_000194                         0000031F
F1_000195                         00000321
F1_000196                         00000326
F1_000197                         0000032B
F1_000198                         00000331
F1_000199                         00000338
F1_000200                         0000033F
F1_000201                         00000342
F1_000202                         00000348
F1_000203                         0000034F
F1_000204                         00000356
F1_000205                         0000035C
F1_000208                         0000035E
F1_000209                         00000360
F1_000210                         00000365
F1_000211                         0000036A
F1_000212                         00000370
F1_000213                         00000377
F1_000214                         0000037E
F1_000215                         00000381
F1_000216                         00000387
F1_000217                         0000038E
F1_000218                         00000395
F1_000219                         0000039B
F1_000222                         0000039D
F1_000223                         0000039F
F1_000224                         000003A4
F1_000225                         000003A9
F1_000226                         000003AF
F1_000227                         000003B6
F1_000228                         000003BD
F1_000229                         000003C0
F1_000230                         000003C6
F1_000231                         000003CD
F1_000232                         000003D4
F1_000233                         000003DA
F1_000236                         000003DC
F1_000237                         000003DE
F1_000238                         000003E3
F1_000239                         000003E8
F1_000240                         000003EE
F1_000241                         000003F5
F1_000242                         000003FC
F1_000243                         000003FF
F1_000244                         00000405
F1_000245                         0000040C
F1_000246                         00000413
F1_000247                         00000419
F1_000250                         0000041B
F1_000251                         0000041D
F1_000252                         00000422
F1_000253                         00000427
F1_000254                         0000042D
F1_000255                         00000434
F1_000256                         0000043B
F1_000257                         0000043E
F1_000258                         00000444
F1_000259                         0000044B
F1_000260                         00000452
F1_000261                         00000458
F1_000264                         0000045A
F1_000265                         0000045C
F1_000266                         00000461
F1_000267                         00000466
F1_000268                         0000046C
F1_000269                         00000473
F1_000270                         0000047A
F1_000271                         0000047D
F1_000272                         00000483
F1_000273                         0000048A
F1_000274                         00000491
F1_000275                         00000497
F1_000278                         00000499
F1_000279                         0000049B
F1_000280                         000004A0
F1_000281                         000004A5
F1_000282                         000004AB
F1_000283                         000004B2
F1_000284                         000004B9
F1_000285                         000004BC
F1_000286                         000004C2
F1_000287                         000004C9
F1_000288                         000004D0
F1_000289                         000004D6
F1_000292                         000004D8
F1_000293                         000004DA
F1_000294                         000004DF
F1_000295                         000004E4
F1_000296                         000004EA
F1_000297                         000004F1
F1_000298                         000004F8
F1_000299                         000004FB
F1_000300                         00000501
F1_000301                         00000508
F1_000302                         0000050F
F1_000303                         00000515
F1_000306                         00000517
F1_000307                         00000519
F1_000308                         0000051E
F1_000309                         00000523
F1_000310                         00000529
F1_000311                         00000530
F1_000312                         00000537
F1_000313                         0000053A
F1_000314                         00000540
F1_000315                         00000547
F1_000316                         0000054E
F1_000317                         00000554
F1_000320                         00000556
F1_000321                         00000558
F1_000322                         0000055D
F1_000323                         00000562
F1_000324                         00000568
F1_000325                         0000056F
F1_000326                         00000576
F1_000327                         00000579
F1_000328                         0000057F
F1_000329                         00000586
F1_000330                         0000058D
F1_000331                         00000593
F1_000334                         00000595
F1_000335                         00000597
F1_000336                         0000059C
F1_000337                         000005A1
F1_000338                         000005A7
F1_000339                         000005AE
F1_000340                         000005B5
F1_000341                         000005B8
F1_000342                         000005BE
F1_000343                         000005C5
F1_000344                         000005CC
F1_000345                         000005D2
F1_000348                         000005D4
F1_000349                         000005D6
F1_000350                         000005DB
F1_000351                         000005E0
F1_000352                         000005E6
F1_000353                         000005ED
F1_000354                         000005F4
F1_000355                         000005F7
F1_000356                         000005FD
F1_000357                         00000604
F1_000358                         0000060B
F1_000359                         00000611
F1_000362                         00000613
F1_000363                         00000615
F1_000364                         0000061A
F1_000365                         0000061F
F1_000366                         00000625
F1_000367                         0000062C
F1_000368                         00000633
F1_000369                         00000636
F1_000370                         0000063C
F1_000371                         00000643
F1_000372                         0000064A
F1_000373                         00000650
F1_000376                         00000652
F1_000377                         00000654
F1_000378                         00000659
F1_000379                         0000065E
F1_000380                         00000664
F1_000381                         0000066B
F1_000382                         00000672
F1_000383                         00000675
F1_000384                         0000067B
F1_000385                         00000682
F1_000386                         00000689
F1_000387                         0000068F
F1_000390                         00000691
F1_000391                         00000693
F1_000392                         00000698
F1_000393                         0000069D
F1_000394                         000006A3
F1_000395                         000006AA
F1_000396                         000006B1
F1_000397                         000006B4
F1_000398                         000006BA
F1_000399                         000006C1
F1_000400                         000006C8
F1_000401                         000006CE
F1_000404                         000006D0
F1_000405                         000006D2
F1_000406                         000006D7
F1_000407                         000006DC
F1_000408                         000006E2
F1_000409                         000006E9
F1_000410                         000006F0
F1_000411                         000006F3
F1_000412                         000006F9
F1_000413                         00000700
F1_000414                         00000707
F1_000415                         0000070D
F1_000418                         0000070F
F1_000419                         00000711
F1_000420                         00000716
F1_000421                         0000071B
F1_000422                         00000721
F1_000423                         00000728
F1_000424                         0000072F
F1_000425                         00000732
F1_000426                         00000738
F1_000427                         0000073F
F1_000428                         00000746
F1_000429                         0000074C
F1_000432                         0000074E
F1_000433                         00000750
F1_000434                         00000755
F1_000435                         0000075A
F1_000436                         00000760
F1_000437                         00000767
F1_000438                         0000076E
F1_000439                         00000771
F1_000440                         00000777
F1_000441                         0000077E
F1_000442                         00000785
F1_000443                         0000078B
F1_000446                         0000078D
F1_000447                         0000078F
F1_000448                         00000794
F1_000449                         00000799
F1_000450                         0000079F
F1_000451                         000007A6
F1_000452                         000007AD
F1_000453                         000007B0
F1_000454                         000007B6
F1_000455                         000007BD
F1_000456                         000007C4
F1_000457                         000007CA
F1_000460                         000007CC
F1_000461                         000007CE
F1_000462                         000007D3
F1_000463                         000007D8
F1_000464                         000007DE
F1_000465                         000007E5
F1_000466                         000007EC
F1_000467                         000007EF
F1_000468                         000007F5
F1_000469                         000007FC
F1_000470                         00000802
F1_000471                         00000808
F1_000474                         0000080A
F1_000475                         00000812
F1_000476                         00000814
F1_000477                         00000819
F1_000478                         0000081F
F1_000479                         0000081F
F1_000480                         00000827
F1_000481                         00000829
F1_000482                         0000082E
F1_000483                         00000835
F1_000484                         00000835
F1_000485                         0000083D
F1_000486                         0000083F
F1_000487                         00000844
F1_000488                         0000084B
F1_000489                         0000084B
F1_000490                         00000853
F1_000491                         00000855
F1_000492                         0000085A
F1_000493                         00000861
F1_000494                         00000861
F1_000495                         00000869
F1_000496                         0000086B
F1_000497                         00000870
F1_000498                         00000877
F1_000499                         00000877
F1_000500                         0000087F
F1_000501                         00000881
F1_000502                         00000886
F1_000503                         0000088D
F1_000504                         0000088D
F1_000505                         00000895
F1_000506                         00000897
F1_000507                         0000089C
F1_000508                         000008A3
F1_000509                         000008A3
F1_000510                         000008AB
F1_000511                         000008AD
F1_000512                         000008B2
F1_000513                         000008B9
F1_000514                         000008B9
F1_000515                         000008C1
F1_000516                         000008C3
F1_000517                         000008C8
F1_000518                         000008CF
F1_000519                         000008CF
F1_000520                         000008D7
F1_000521                         000008D9
F1_000522                         000008DE
F1_000523                         000008E5
F1_000524                         000008E5
F1_000525                         000008ED
F1_000526                         000008EF
F1_000527                         000008F4
F1_000528                         000008FB
F1_000529                         000008FB
F1_000530                         00000903
F1_000531                         00000905
F1_000532                         0000090A
F1_000533                         00000911
F1_000534                         00000911
F1_000535                         00000919
F1_000536                         0000091B
F1_000537                         00000920
F1_000538                         00000927
F1_000539                         00000927
F1_000540                         0000092F
F1_000541                         00000931
F1_000542                         00000936
F1_000543                         0000093D
F1_000544                         0000093D
F1_000545                         00000945
F1_000546                         00000947
F1_000547                         0000094C
F1_000548                         00000953
F1_000549                         00000953
F1_000550                         0000095B
F1_000551                         0000095D
F1_000552                         00000962
F1_000553                         00000968
F1_000554                         00000968
F1_000555                         00000970
F1_000556                         00000972
F1_000557                         00000977
F1_000558                         0000097E
F1_000559                         0000097E
F1_000560                         00000986
F1_000561                         00000988
F1_000562                         0000098D
F1_000563                         00000994
F1_000564                         00000994
F1_000565                         0000099C
F1_000566                         0000099E
F1_000567                         000009A3
F1_000568                         000009AA
F1_000569                         000009AA
F1_000570                         000009B2
F1_000571                         000009B4
F1_000572                         000009B9
F1_000573                         000009C0
F1_000574                         000009C0
F1_000575                         000009C8
F1_000576                         000009CA
F1_000577                         000009CF
F1_000578                         000009D6
F1_000579                         000009D6
F1_000580                         000009DE
F1_000581                         000009E0
F1_000582                         000009E5
F1_000583                         000009EC
F1_000584                         000009EC
F1_000585                         000009F4
F1_000586                         000009F6
F1_000587                         000009FB
F1_000588                         00000A02
F1_000589                         00000A02
F1_000590                         00000A0A
F1_000591                         00000A0C
F1_000592                         00000A11
F1_000593                         00000A18
F1_000594                         00000A18
F1_000595                         00000A20
F1_000596                         00000A22
F1_000597                         00000A27
F1_000598                         00000A2E
F1_000599                         00000A2E
F1_000600                         00000A36
F1_000601                         00000A38
F1_000602                         00000A3D
F1_000603                         00000A44
F1_000604                         00000A44
F1_000605                         00000A4C
F1_000606                         00000A4E
F1_000607                         00000A53
F1_000608                         00000A5A
F1_000609                         00000A5A
F1_000610                         00000A62
F1_000611                         00000A64
F1_000612                         00000A69
F1_000613                         00000A70
F1_000614                         00000A70
F1_000617                         00000A71
F1_000618                         00000A73
F1_000619                         00000A78
F1_000620                         00000A7E
F1_000621                         00000A80
F1_000622                         00000A85
F1_000623                         00000A8C
F1_000624                         00000A8E
F1_000625                         00000A93
F1_000626                         00000A9A
F1_000627                         00000A9C
F1_000628                         00000AA1
F1_000629                         00000AA8
F1_000630                         00000AAA
F1_000631                         00000AAF
F1_000632                         00000AB6
F1_000633                         00000AB8
F1_000634                         00000ABD
F1_000635                         00000AC4
F1_000636                         00000AC6
F1_000637                         00000ACB
F1_000638                         00000AD2
F1_000639                         00000AD4
F1_000640                         00000AD9
F1_000641                         00000AE0
F1_000642                         00000AE2
F1_000643                         00000AE7
F1_000644                         00000AEE
F1_000645                         00000AF0
F1_000646                         00000AF5
F1_000647                         00000AFC
F1_000648                         00000AFE
F1_000649                         00000B03
F1_000650                         00000B0A
F1_000651                         00000B0C
F1_000652                         00000B11
F1_000653                         00000B18
F1_000654                         00000B1A
F1_000655                         00000B1F
F1_000656                         00000B26
F1_000657                         00000B28
F1_000658                         00000B2D
F1_000659                         00000B34
F1_000660                         00000B36
F1_000661                         00000B3B
F1_000662                         00000B42
F1_000663                         00000B44
F1_000664                         00000B49
F1_000665                         00000B4F
F1_000666                         00000B51
F1_000667                         00000B56
F1_000668                         00000B5D
F1_000669                         00000B5F
F1_000670                         00000B64
F1_000671                         00000B6B
F1_000672                         00000B6D
F1_000673                         00000B72
F1_000674                         00000B79
F1_000675                         00000B7B
F1_000676                         00000B80
F1_000677                         00000B87
F1_000678                         00000B89
F1_000679                         00000B8E
F1_000680                         00000B95
F1_000681                         00000B97
F1_000682                         00000B9C
F1_000683                         00000BA3
F1_000684                         00000BA5
F1_000685                         00000BAA
F1_000686                         00000BB1
F1_000687                         00000BB3
F1_000688                         00000BB8
F1_000689                         00000BBF
F1_000690                         00000BC1
F1_000691                         00000BC6
F1_000692                         00000BCD
F1_000693                         00000BCF
F1_000694                         00000BD4
F1_000695                         00000BDB
F1_000696                         00000BDD
F1_000697                         00000BE2
F1_000698                         00000BE9
F1_000699                         00000BEB
F1_000700                         00000BF0
F1_000701                         00000BF7
F1_000704                         00000BF8
F1_000705                         00000C13
F1_EOF                            00000C14
F1_SOF                            00000040
F2_EOF                            00000040
F2_SOF                            00000040
F@CALL                            
F@JUMP                            
FERR                              00000002
FIND@PAGE                         
FOSC_EXTRC                        00003FFF
FOSC_HS                           00003FFE
FOSC_LP                           00003FFC
FOSC_XT                           00003FFD
FR@LB110                          000002BB
FR@LB125                          000002FA
FR@LB140                          00000339
FR@LB155                          00000378
FR@LB170                          000003B7
FR@LB185                          000003F6
FR@LB20                           0000014E
FR@LB200                          00000435
FR@LB215                          00000474
FR@LB230                          000004B3
FR@LB245                          000004F2
FR@LB260                          00000531
FR@LB275                          00000570
FR@LB290                          000005AF
FR@LB305                          000005EE
FR@LB320                          0000062D
FR@LB335                          0000066C
FR@LB35                           00000186
FR@LB350                          000006AB
FR@LB365                          000006EA
FR@LB380                          00000729
FR@LB395                          00000768
FR@LB410                          000007A7
FR@LB425                          000007E6
FR@LB50                           000001BF
FR@LB65                           000001FE
FR@LB7                            00000117
FR@LB80                           0000023D
FR@LB95                           0000027C
FSR                               00000004
GCEN                              00000007
GEN4                              00000020
GEN4H                             00000021
GIE                               00000007
GO                                00000002
GO_DONE                           00000002
HH11                              0000004D
HH12                              0000004E
HH21                              0000004F
HH22                              00000050
HH31                              00000051
HH32                              00000052
HH41                              00000053
HH42                              00000054
HH51                              00000055
HH52                              00000056
HH61                              00000057
HH62                              00000058
HH71                              00000059
HH72                              0000005A
HS_OSC                            00003FFE
I2C_DATA                          00000005
I2C_READ                          00000002
I2C_START                         00000003
I2C_STOP                          00000004
I@NT                              0000003B
I@NT2                             0000003C
INDF                              00000000
INTCON                            0000000B
INTE                              00000004
INTEDG                            00000006
INTF                              00000001
IRP                               00000007
JUMP                              
L@LB3                             00000C05
LABEL_WORD                        
LCD#TYPE                          0
LE@LB1                            00000C13
LK@LB2                            00000C09
LP_OSC                            00003FFC
LVP_OFF                           00003F7F
LVP_ON                            00003FFF
MAIN                              00000116
MM11                              0000005B
MM12                              0000005C
MM21                              0000005D
MM22                              0000005E
MM31                              0000005F
MM32                              00000060
MM41                              00000061
MM42                              00000062
MM51                              00000063
MM52                              00000064
MM61                              00000065
MM62                              00000066
MM71                              00000067
MM72                              00000068
NOT_A                             00000005
NOT_ADDRESS                       00000005
NOT_BO                            00000000
NOT_BOR                           00000000
NOT_DONE                          00000002
NOT_PD                            00000003
NOT_POR                           00000001
NOT_RBPU                          00000007
NOT_RC8                           00000006
NOT_T1SYNC                        00000002
NOT_TO                            00000004
NOT_TX8                           00000006
NOT_W                             00000002
NOT_WRITE                         00000002
NUM_BIT                           
NUM_BYTE                          
NUM_DWORD                         
NUM_FSR                           
NUM_WORD                          
NUM_WREG                          
NX@LB111                          000002CA
NX@LB126                          00000309
NX@LB141                          00000348
NX@LB156                          00000387
NX@LB171                          000003C6
NX@LB186                          00000405
NX@LB201                          00000444
NX@LB21                           00000157
NX@LB216                          00000483
NX@LB231                          000004C2
NX@LB246                          00000501
NX@LB261                          00000540
NX@LB276                          0000057F
NX@LB291                          000005BE
NX@LB306                          000005FD
NX@LB321                          0000063C
NX@LB336                          0000067B
NX@LB351                          000006BA
NX@LB36                           0000018F
NX@LB366                          000006F9
NX@LB381                          00000738
NX@LB396                          00000777
NX@LB411                          000007B6
NX@LB426                          000007F5
NX@LB51                           000001CE
NX@LB66                           0000020D
NX@LB8                            00000128
NX@LB81                           0000024C
NX@LB96                           0000028B
NXT                               PORTC,5
OERR                              00000001
OPTION_REG                        00000081
PB@LB489                          00000C14
PBP#VAR0                          00000022
PCFG0                             00000000
PCFG1                             00000001
PCFG2                             00000002
PCFG3                             00000003
PCL                               00000002
PCLATH                            0000000A
PCON                              0000008E
PDESTINATION@PAGE                 00000000
PEIE                              00000006
PEN                               00000002
PIE1                              0000008C
PIE2                              0000008D
PIR1                              0000000C
PIR2                              0000000D
PORTA                             00000005
PORTB                             00000006
PORTC                             00000007
PP0                               00000023
PP0H                              00000024
PP1                               00000025
PP1H                              00000026
PP3                               00000027
PP3H                              00000028
PP6                               00000029
PP6H                              0000002A
PP_ACKDT                          00000005
PP_ACKEN                          00000004
PP_ACKSTAT                        00000006
PP_BF                             00000000
PP_CREN                           00000004
PP_EEPGD                          00000007
PP_GO_DONE                        00000002
PP_OERR                           00000001
PP_PEN                            00000002
PP_RCEN                           00000003
PP_RCIF                           00000005
PP_RD                             00000000
PP_RSEN                           00000001
PP_R_W                            00000002
PP_SEN                            00000000
PP_T2CKPS0                        00000000
PP_T2CKPS1                        00000001
PP_TMR2ON                         00000002
PP_TXIF                           00000004
PP_WR                             00000001
PP_WREN                           00000002
PP_WRERR                          00000003
PR2                               00000092
PROTON#CODE#START                 00000000
PROTON#MAIN#START                 0000003F
PS0                               00000000
PS1                               00000001
PS2                               00000002
PSA                               00000003
PWRTE_OFF                         00003FFF
PWRTE_ON                          00003FF7
R@B                               
RAM_BANK                          00000000
RAM_BANKS                         4
RBIE                              00000003
RBIF                              00000000
RC8_9                             00000006
RC9                               00000006
RCD8                              00000000
RCEN                              00000003
RCIE                              00000005
RCIF                              00000005
RCREG                             0000001A
RCSTA                             00000018
RC_OSC                            00003FFF
RD                                00000000
READ_WRITE                        00000002
RESCAN                            0000080A
RP0                               00000005
RP1                               00000006
RSEN                              00000001
RX9                               00000006
RX9D                              00000000
R_W                               00000002
S@B                               
SCAN                              00000A71
SEG                               0000002C
SEN                               00000000
SET@PAGE                          
SETTING1                          00000134
SETTING10                         0000035E
SETTING11                         0000039D
SETTING12                         000003DC
SETTING13                         0000041B
SETTING14                         0000045A
SETTING15                         00000499
SETTING16                         000004D8
SETTING17                         00000517
SETTING18                         00000556
SETTING19                         00000595
SETTING2                          0000016C
SETTING20                         000005D4
SETTING21                         00000613
SETTING22                         00000652
SETTING23                         00000691
SETTING24                         000006D0
SETTING25                         0000070F
SETTING26                         0000074E
SETTING27                         0000078D
SETTING28                         000007CC
SETTING3                          000001A5
SETTING4                          000001E4
SETTING5                          00000223
SETTING6                          00000262
SETTING7                          000002A1
SETTING8                          000002E0
SETTING9                          0000031F
SETUP                             PORTC,4
SMP                               00000007
SPBRG                             00000099
SPEN                              00000007
SREN                              00000005
SSPADD                            00000093
SSPBUF                            00000013
SSPCON                            00000014
SSPCON2                           00000091
SSPEN                             00000005
SSPIE                             00000003
SSPIF                             00000003
SSPM0                             00000000
SSPM1                             00000001
SSPM2                             00000002
SSPM3                             00000003
SSPOV                             00000006
SSPSTAT                           00000094
START                             00000128
STATUS                            00000003
SYNC                              00000004
T0CS                              00000005
T0IE                              00000005
T0IF                              00000002
T0SE                              00000004
T1CKPS0                           00000004
T1CKPS1                           00000005
T1CON                             00000010
T1INSYNC                          00000002
T1OSCEN                           00000003
T1SYNC                            00000002
T2CKPS0                           00000000
T2CKPS1                           00000001
T2CON                             00000012
TMR0                              00000001
TMR1CS                            00000001
TMR1H                             0000000F
TMR1IE                            00000000
TMR1IF                            00000000
TMR1L                             0000000E
TMR1LH                            0000000F
TMR1ON                            00000000
TMR2                              00000011
TMR2IE                            00000001
TMR2IF                            00000001
TMR2ON                            00000002
TOUTPS0                           00000003
TOUTPS1                           00000004
TOUTPS2                           00000005
TOUTPS3                           00000006
TRISA                             00000085
TRISB                             00000086
TRISC                             00000087
TRMT                              00000001
TX8_9                             00000006
TX9                               00000006
TX9D                              00000000
TXD8                              00000000
TXEN                              00000005
TXIE                              00000004
TXIF                              00000004
TXREG                             00000019
TXSTA                             00000098
UA                                00000001
UP                                PORTC,6
WCOL                              00000007
WDTE_OFF                          00003FFB
WDTE_ON                           00003FFF
WDT_OFF                           00003FFB
WDT_ON                            00003FFF
WORD_BIT                          
WORD_BYTE                         
WORD_DWORD                        
WORD_WORD                         
WORD_WREG                         
WR                                00000001
WREG_BIT                          
WREG_BYTE                         
WREG_DWORD                        
WREG_WORD                         
WREN                              00000002
WRERR                             00000003
WRT                               0000002E
WRT#0                             0000002E
WRT#1                             0000002F
WRT#10                            00000038
WRT#11                            00000039
WRT#12                            0000003A
WRT#13                            0000003B
WRT#14                            0000003C
WRT#15                            0000003D
WRT#16                            0000003E
WRT#17                            0000003F
WRT#18                            00000040
WRT#19                            00000041
WRT#2                             00000030
WRT#20                            00000042
WRT#21                            00000043
WRT#22                            00000044
WRT#23                            00000045
WRT#24                            00000046
WRT#25                            00000047
WRT#26                            00000048
WRT#27                            00000049
WRT#28                            0000004A
WRT#3                             00000031
WRT#4                             00000032
WRT#5                             00000033
WRT#6                             00000034
WRT#7                             00000035
WRT#8                             00000036
WRT#9                             00000037
WRTE_OFF                          00003DFF
WRTE_ON                           00003FFF
WRT_ENABLE_OFF                    00003DFF
WRT_ENABLE_ON                     00003FFF
WRT_OFF                           00003DFF
WRT_ON                            00003FFF
XTAL                              20
XT_OSC                            00003FFD
Z                                 00000002
_ADC                              5
_ADC_RES                          10
_BANKS                            3
_CORE                             14
_CWRITE_BLOCK                     1
_EEPROM                           256
_FLASH                            1
_I                                0000004C
_I2C_SCL_PIN                      00000003
_I2C_SCL_PORT                     00000087
_I2C_SDA_PIN                      00000004
_I2C_SDA_PORT                     00000087
_MAXMEM                           8192
_MAXRAM                           368
_PAGES                            4
_RAM_END                          0X0170
_SYSTEM_VARIABLE_COUNT            11
_USART                            1
_USB                              0
__16F876                          1
__EOF                             00000C17
__XTAL                            20


MEMORY USAGE MAP ('X' = USED,  '-' = UNUSED)

0000 : XXXXXXXXXXXXXXXX XXXXXXXXXXXXXXXX XXXXXXXXXXXXXXXX XXXXXXXXXXXXXXXX
0040 : XXXXXXXXXXXXXXXX XXXXXXXXXXXXXXXX XXXXXXXXXXXXXXXX XXXXXXXXXXXXXXXX
0080 : XXXXXXXXXXXXXXXX XXXXXXXXXXXXXXXX XXXXXXXXXXXXXXXX XXXXXXXXXXXXXXXX
00C0 : XXXXXXXXXXXXXXXX XXXXXXXXXXXXXXXX XXXXXXXXXXXXXXXX XXXXXXXXXXXXXXXX
0100 : XXXXXXXXXXXXXXXX XXXXXXXXXXXXXXXX XXXXXXXXXXXXXXXX XXXXXXXXXXXXXXXX
0140 : XXXXXXXXXXXXXXXX XXXXXXXXXXXXXXXX XXXXXXXXXXXXXXXX XXXXXXXXXXXXXXXX
0180 : XXXXXXXXXXXXXXXX XXXXXXXXXXXXXXXX XXXXXXXXXXXXXXXX XXXXXXXXXXXXXXXX
01C0 : XXXXXXXXXXXXXXXX XXXXXXXXXXXXXXXX XXXXXXXXXXXXXXXX XXXXXXXXXXXXXXXX
0200 : XXXXXXXXXXXXXXXX XXXXXXXXXXXXXXXX XXXXXXXXXXXXXXXX XXXXXXXXXXXXXXXX
0240 : XXXXXXXXXXXXXXXX XXXXXXXXXXXXXXXX XXXXXXXXXXXXXXXX XXXXXXXXXXXXXXXX
0280 : XXXXXXXXXXXXXXXX XXXXXXXXXXXXXXXX XXXXXXXXXXXXXXXX XXXXXXXXXXXXXXXX
02C0 : XXXXXXXXXXXXXXXX XXXXXXXXXXXXXXXX XXXXXXXXXXXXXXXX XXXXXXXXXXXXXXXX
0300 : XXXXXXXXXXXXXXXX XXXXXXXXXXXXXXXX XXXXXXXXXXXXXXXX XXXXXXXXXXXXXXXX
0340 : XXXXXXXXXXXXXXXX XXXXXXXXXXXXXXXX XXXXXXXXXXXXXXXX XXXXXXXXXXXXXXXX
0380 : XXXXXXXXXXXXXXXX XXXXXXXXXXXXXXXX XXXXXXXXXXXXXXXX XXXXXXXXXXXXXXXX
03C0 : XXXXXXXXXXXXXXXX XXXXXXXXXXXXXXXX XXXXXXXXXXXXXXXX XXXXXXXXXXXXXXXX
0400 : XXXXXXXXXXXXXXXX XXXXXXXXXXXXXXXX XXXXXXXXXXXXXXXX XXXXXXXXXXXXXXXX
0440 : XXXXXXXXXXXXXXXX XXXXXXXXXXXXXXXX XXXXXXXXXXXXXXXX XXXXXXXXXXXXXXXX
0480 : XXXXXXXXXXXXXXXX XXXXXXXXXXXXXXXX XXXXXXXXXXXXXXXX XXXXXXXXXXXXXXXX
04C0 : XXXXXXXXXXXXXXXX XXXXXXXXXXXXXXXX XXXXXXXXXXXXXXXX XXXXXXXXXXXXXXXX
0500 : XXXXXXXXXXXXXXXX XXXXXXXXXXXXXXXX XXXXXXXXXXXXXXXX XXXXXXXXXXXXXXXX
0540 : XXXXXXXXXXXXXXXX XXXXXXXXXXXXXXXX XXXXXXXXXXXXXXXX XXXXXXXXXXXXXXXX
0580 : XXXXXXXXXXXXXXXX XXXXXXXXXXXXXXXX XXXXXXXXXXXXXXXX XXXXXXXXXXXXXXXX
05C0 : XXXXXXXXXXXXXXXX XXXXXXXXXXXXXXXX XXXXXXXXXXXXXXXX XXXXXXXXXXXXXXXX
0600 : XXXXXXXXXXXXXXXX XXXXXXXXXXXXXXXX XXXXXXXXXXXXXXXX XXXXXXXXXXXXXXXX
0640 : XXXXXXXXXXXXXXXX XXXXXXXXXXXXXXXX XXXXXXXXXXXXXXXX XXXXXXXXXXXXXXXX
0680 : XXXXXXXXXXXXXXXX XXXXXXXXXXXXXXXX XXXXXXXXXXXXXXXX XXXXXXXXXXXXXXXX
06C0 : XXXXXXXXXXXXXXXX XXXXXXXXXXXXXXXX XXXXXXXXXXXXXXXX XXXXXXXXXXXXXXXX
0700 : XXXXXXXXXXXXXXXX XXXXXXXXXXXXXXXX XXXXXXXXXXXXXXXX XXXXXXXXXXXXXXXX
0740 : XXXXXXXXXXXXXXXX XXXXXXXXXXXXXXXX XXXXXXXXXXXXXXXX XXXXXXXXXXXXXXXX
0780 : XXXXXXXXXXXXXXXX XXXXXXXXXXXXXXXX XXXXXXXXXXXXXXXX XXXXXXXXXXXXXXXX
07C0 : XXXXXXXXXXXXXXXX XXXXXXXXXXXXXXXX XXXXXXXXXXXXXXXX XXXXXXXXXXXXXXXX
0800 : XXXXXXXXXXXXXXXX XXXXXXXXXXXXXXXX XXXXXXXXXXXXXXXX XXXXXXXXXXXXXXXX
0840 : XXXXXXXXXXXXXXXX XXXXXXXXXXXXXXXX XXXXXXXXXXXXXXXX XXXXXXXXXXXXXXXX
0880 : XXXXXXXXXXXXXXXX XXXXXXXXXXXXXXXX XXXXXXXXXXXXXXXX XXXXXXXXXXXXXXXX
08C0 : XXXXXXXXXXXXXXXX XXXXXXXXXXXXXXXX XXXXXXXXXXXXXXXX XXXXXXXXXXXXXXXX
0900 : XXXXXXXXXXXXXXXX XXXXXXXXXXXXXXXX XXXXXXXXXXXXXXXX XXXXXXXXXXXXXXXX
0940 : XXXXXXXXXXXXXXXX XXXXXXXXXXXXXXXX XXXXXXXXXXXXXXXX XXXXXXXXXXXXXXXX
0980 : XXXXXXXXXXXXXXXX XXXXXXXXXXXXXXXX XXXXXXXXXXXXXXXX XXXXXXXXXXXXXXXX
09C0 : XXXXXXXXXXXXXXXX XXXXXXXXXXXXXXXX XXXXXXXXXXXXXXXX XXXXXXXXXXXXXXXX
0A00 : XXXXXXXXXXXXXXXX XXXXXXXXXXXXXXXX XXXXXXXXXXXXXXXX XXXXXXXXXXXXXXXX
0A40 : XXXXXXXXXXXXXXXX XXXXXXXXXXXXXXXX XXXXXXXXXXXXXXXX XXXXXXXXXXXXXXXX
0A80 : XXXXXXXXXXXXXXXX XXXXXXXXXXXXXXXX XXXXXXXXXXXXXXXX XXXXXXXXXXXXXXXX
0AC0 : XXXXXXXXXXXXXXXX XXXXXXXXXXXXXXXX XXXXXXXXXXXXXXXX XXXXXXXXXXXXXXXX
0B00 : XXXXXXXXXXXXXXXX XXXXXXXXXXXXXXXX XXXXXXXXXXXXXXXX XXXXXXXXXXXXXXXX
0B40 : XXXXXXXXXXXXXXXX XXXXXXXXXXXXXXXX XXXXXXXXXXXXXXXX XXXXXXXXXXXXXXXX
0B80 : XXXXXXXXXXXXXXXX XXXXXXXXXXXXXXXX XXXXXXXXXXXXXXXX XXXXXXXXXXXXXXXX
0BC0 : XXXXXXXXXXXXXXXX XXXXXXXXXXXXXXXX XXXXXXXXXXXXXXXX XXXXXXXXXXXXXXXX
0C00 : XXXXXXXXXXXXXXXX XXXXXXX--------- ---------------- ----------------
2000 : -------X-------- ---------------- ---------------- ----------------

ALL OTHER MEMORY BLOCKS UNUSED.

PROGRAM MEMORY WORDS USED:  3095
PROGRAM MEMORY WORDS FREE:  5097


ERRORS   :     0
WARNINGS :     0 REPORTED,  3059 SUPPRESSED
MESSAGES :     1 REPORTED,   135 SUPPRESSED


