
_nl_cr:

;gsm_sms.h,1 :: 		void nl_cr(){
;gsm_sms.h,2 :: 		uart1_write(13);
	MOVLW      13
	MOVWF      FARG_UART1_Write_data_+0
	CALL       _UART1_Write+0
;gsm_sms.h,3 :: 		uart1_write(10);
	MOVLW      10
	MOVWF      FARG_UART1_Write_data_+0
	CALL       _UART1_Write+0
;gsm_sms.h,4 :: 		}
L_end_nl_cr:
	RETURN
; end of _nl_cr

_send_sms:

;gsm_sms.h,6 :: 		void send_sms(char num[11], char text[25]){
;gsm_sms.h,7 :: 		uart1_write_text("AT+CMGF=1");
	MOVLW      ?lstr1_watertank+0
	MOVWF      FARG_UART1_Write_Text_uart_text+0
	CALL       _UART1_Write_Text+0
;gsm_sms.h,8 :: 		nl_cr();
	CALL       _nl_cr+0
;gsm_sms.h,9 :: 		delay_ms(200);
	MOVLW      6
	MOVWF      R11+0
	MOVLW      19
	MOVWF      R12+0
	MOVLW      173
	MOVWF      R13+0
L_send_sms0:
	DECFSZ     R13+0, 1
	GOTO       L_send_sms0
	DECFSZ     R12+0, 1
	GOTO       L_send_sms0
	DECFSZ     R11+0, 1
	GOTO       L_send_sms0
	NOP
	NOP
;gsm_sms.h,10 :: 		uart1_write_text("AT+CMGS= ");
	MOVLW      ?lstr2_watertank+0
	MOVWF      FARG_UART1_Write_Text_uart_text+0
	CALL       _UART1_Write_Text+0
;gsm_sms.h,11 :: 		uart1_write(34);
	MOVLW      34
	MOVWF      FARG_UART1_Write_data_+0
	CALL       _UART1_Write+0
;gsm_sms.h,12 :: 		uart1_write_text(num);
	MOVF       FARG_send_sms_num+0, 0
	MOVWF      FARG_UART1_Write_Text_uart_text+0
	CALL       _UART1_Write_Text+0
;gsm_sms.h,13 :: 		uart1_write(34);
	MOVLW      34
	MOVWF      FARG_UART1_Write_data_+0
	CALL       _UART1_Write+0
;gsm_sms.h,14 :: 		nl_cr();
	CALL       _nl_cr+0
;gsm_sms.h,15 :: 		delay_ms(200);
	MOVLW      6
	MOVWF      R11+0
	MOVLW      19
	MOVWF      R12+0
	MOVLW      173
	MOVWF      R13+0
L_send_sms1:
	DECFSZ     R13+0, 1
	GOTO       L_send_sms1
	DECFSZ     R12+0, 1
	GOTO       L_send_sms1
	DECFSZ     R11+0, 1
	GOTO       L_send_sms1
	NOP
	NOP
;gsm_sms.h,16 :: 		uart1_write_text(text);
	MOVF       FARG_send_sms_text+0, 0
	MOVWF      FARG_UART1_Write_Text_uart_text+0
	CALL       _UART1_Write_Text+0
;gsm_sms.h,17 :: 		delay_ms(200);
	MOVLW      6
	MOVWF      R11+0
	MOVLW      19
	MOVWF      R12+0
	MOVLW      173
	MOVWF      R13+0
L_send_sms2:
	DECFSZ     R13+0, 1
	GOTO       L_send_sms2
	DECFSZ     R12+0, 1
	GOTO       L_send_sms2
	DECFSZ     R11+0, 1
	GOTO       L_send_sms2
	NOP
	NOP
;gsm_sms.h,18 :: 		uart1_write(0x1A); //ctrl + Z
	MOVLW      26
	MOVWF      FARG_UART1_Write_data_+0
	CALL       _UART1_Write+0
;gsm_sms.h,19 :: 		delay_ms(5000);
	MOVLW      127
	MOVWF      R11+0
	MOVLW      212
	MOVWF      R12+0
	MOVLW      49
	MOVWF      R13+0
L_send_sms3:
	DECFSZ     R13+0, 1
	GOTO       L_send_sms3
	DECFSZ     R12+0, 1
	GOTO       L_send_sms3
	DECFSZ     R11+0, 1
	GOTO       L_send_sms3
	NOP
	NOP
;gsm_sms.h,20 :: 		nl_cr();
	CALL       _nl_cr+0
;gsm_sms.h,21 :: 		}
L_end_send_sms:
	RETURN
; end of _send_sms

_title:

;watertank.c,23 :: 		void title(){
;watertank.c,24 :: 		lcd_out(1,1,"Water report SYS");
	MOVLW      1
	MOVWF      FARG_Lcd_Out_row+0
	MOVLW      1
	MOVWF      FARG_Lcd_Out_column+0
	MOVLW      ?lstr3_watertank+0
	MOVWF      FARG_Lcd_Out_text+0
	CALL       _Lcd_Out+0
;watertank.c,25 :: 		}
L_end_title:
	RETURN
; end of _title

_show_sending:

;watertank.c,27 :: 		void show_sending(){
;watertank.c,28 :: 		lcd_out(2,1,"SMS Sending..");
	MOVLW      2
	MOVWF      FARG_Lcd_Out_row+0
	MOVLW      1
	MOVWF      FARG_Lcd_Out_column+0
	MOVLW      ?lstr4_watertank+0
	MOVWF      FARG_Lcd_Out_text+0
	CALL       _Lcd_Out+0
;watertank.c,29 :: 		}
L_end_show_sending:
	RETURN
; end of _show_sending

_show_level:

;watertank.c,31 :: 		void show_level(){
;watertank.c,32 :: 		lcd_cmd(_lcd_clear);
	MOVLW      1
	MOVWF      FARG_Lcd_Cmd_out_char+0
	CALL       _Lcd_Cmd+0
;watertank.c,33 :: 		title();
	CALL       _title+0
;watertank.c,34 :: 		lcd_out(2,1,"Level: ");
	MOVLW      2
	MOVWF      FARG_Lcd_Out_row+0
	MOVLW      1
	MOVWF      FARG_Lcd_Out_column+0
	MOVLW      ?lstr5_watertank+0
	MOVWF      FARG_Lcd_Out_text+0
	CALL       _Lcd_Out+0
;watertank.c,35 :: 		}
L_end_show_level:
	RETURN
; end of _show_level

_main:

;watertank.c,37 :: 		void main() {
;watertank.c,38 :: 		lcd_init();
	CALL       _Lcd_Init+0
;watertank.c,39 :: 		lcd_cmd(_lcd_clear);
	MOVLW      1
	MOVWF      FARG_Lcd_Cmd_out_char+0
	CALL       _Lcd_Cmd+0
;watertank.c,40 :: 		lcd_cmd(_lcd_cursor_off);
	MOVLW      12
	MOVWF      FARG_Lcd_Cmd_out_char+0
	CALL       _Lcd_Cmd+0
;watertank.c,41 :: 		trisc = 0x8E; portc = 0;
	MOVLW      142
	MOVWF      TRISC+0
	CLRF       PORTC+0
;watertank.c,42 :: 		uart1_init(9600);
	MOVLW      129
	MOVWF      SPBRG+0
	BSF        TXSTA+0, 2
	CALL       _UART1_Init+0
;watertank.c,43 :: 		delay_ms(10000);
	MOVLW      254
	MOVWF      R11+0
	MOVLW      167
	MOVWF      R12+0
	MOVLW      101
	MOVWF      R13+0
L_main4:
	DECFSZ     R13+0, 1
	GOTO       L_main4
	DECFSZ     R12+0, 1
	GOTO       L_main4
	DECFSZ     R11+0, 1
	GOTO       L_main4
	NOP
	NOP
;watertank.c,44 :: 		title();
	CALL       _title+0
;watertank.c,46 :: 		while(1){
L_main5:
;watertank.c,47 :: 		if(!level1){
	BTFSC      PORTC+0, 1
	GOTO       L_main7
;watertank.c,48 :: 		show_sending();
	CALL       _show_sending+0
;watertank.c,49 :: 		send_sms(number, "Water Level too LOW.");
	MOVLW      _number+0
	MOVWF      FARG_send_sms_num+0
	MOVLW      ?lstr6_watertank+0
	MOVWF      FARG_send_sms_text+0
	CALL       _send_sms+0
;watertank.c,50 :: 		while(!level1){
L_main8:
	BTFSC      PORTC+0, 1
	GOTO       L_main9
;watertank.c,51 :: 		show_level();
	CALL       _show_level+0
;watertank.c,52 :: 		lcd_out(2,8,"01");
	MOVLW      2
	MOVWF      FARG_Lcd_Out_row+0
	MOVLW      8
	MOVWF      FARG_Lcd_Out_column+0
	MOVLW      ?lstr7_watertank+0
	MOVWF      FARG_Lcd_Out_text+0
	CALL       _Lcd_Out+0
;watertank.c,53 :: 		if(level1)break;
	BTFSS      PORTC+0, 1
	GOTO       L_main10
	GOTO       L_main9
L_main10:
;watertank.c,54 :: 		if(!level2){
	BTFSC      PORTC+0, 2
	GOTO       L_main11
;watertank.c,55 :: 		show_sending();
	CALL       _show_sending+0
;watertank.c,56 :: 		send_sms(number, "Water Level Middle.");
	MOVLW      _number+0
	MOVWF      FARG_send_sms_num+0
	MOVLW      ?lstr8_watertank+0
	MOVWF      FARG_send_sms_text+0
	CALL       _send_sms+0
;watertank.c,57 :: 		while(!level2){
L_main12:
	BTFSC      PORTC+0, 2
	GOTO       L_main13
;watertank.c,58 :: 		show_level();
	CALL       _show_level+0
;watertank.c,59 :: 		lcd_out(2,8,"02");
	MOVLW      2
	MOVWF      FARG_Lcd_Out_row+0
	MOVLW      8
	MOVWF      FARG_Lcd_Out_column+0
	MOVLW      ?lstr9_watertank+0
	MOVWF      FARG_Lcd_Out_text+0
	CALL       _Lcd_Out+0
;watertank.c,60 :: 		if(level2)break;
	BTFSS      PORTC+0, 2
	GOTO       L_main14
	GOTO       L_main13
L_main14:
;watertank.c,61 :: 		if(!level3){
	BTFSC      PORTC+0, 3
	GOTO       L_main15
;watertank.c,62 :: 		show_sending();
	CALL       _show_sending+0
;watertank.c,63 :: 		send_sms(number, "Water Level High.");
	MOVLW      _number+0
	MOVWF      FARG_send_sms_num+0
	MOVLW      ?lstr10_watertank+0
	MOVWF      FARG_send_sms_text+0
	CALL       _send_sms+0
;watertank.c,64 :: 		while(!level3){
L_main16:
	BTFSC      PORTC+0, 3
	GOTO       L_main17
;watertank.c,65 :: 		show_level();
	CALL       _show_level+0
;watertank.c,66 :: 		lcd_out(2,8,"03");
	MOVLW      2
	MOVWF      FARG_Lcd_Out_row+0
	MOVLW      8
	MOVWF      FARG_Lcd_Out_column+0
	MOVLW      ?lstr11_watertank+0
	MOVWF      FARG_Lcd_Out_text+0
	CALL       _Lcd_Out+0
;watertank.c,67 :: 		if(level3)break;
	BTFSS      PORTC+0, 3
	GOTO       L_main18
	GOTO       L_main17
L_main18:
;watertank.c,68 :: 		}
	GOTO       L_main16
L_main17:
;watertank.c,69 :: 		}
L_main15:
;watertank.c,70 :: 		}
	GOTO       L_main12
L_main13:
;watertank.c,71 :: 		}
L_main11:
;watertank.c,72 :: 		}
	GOTO       L_main8
L_main9:
;watertank.c,73 :: 		}
L_main7:
;watertank.c,74 :: 		title();
	CALL       _title+0
;watertank.c,75 :: 		if(!level1 & !level2 & !level3)lcd_out(2,1,"None     ");
	BTFSC      PORTC+0, 1
	GOTO       L__main26
	BSF        112, 0
	GOTO       L__main27
L__main26:
	BCF        112, 0
L__main27:
	BTFSC      PORTC+0, 2
	GOTO       L__main28
	BSF        3, 0
	GOTO       L__main29
L__main28:
	BCF        3, 0
L__main29:
	BTFSS      112, 0
	GOTO       L__main30
	BTFSS      3, 0
	GOTO       L__main30
	BSF        112, 0
	GOTO       L__main31
L__main30:
	BCF        112, 0
L__main31:
	BTFSC      PORTC+0, 3
	GOTO       L__main32
	BSF        3, 0
	GOTO       L__main33
L__main32:
	BCF        3, 0
L__main33:
	BTFSS      112, 0
	GOTO       L__main34
	BTFSS      3, 0
	GOTO       L__main34
	BSF        112, 0
	GOTO       L__main35
L__main34:
	BCF        112, 0
L__main35:
	BTFSS      112, 0
	GOTO       L_main19
	MOVLW      2
	MOVWF      FARG_Lcd_Out_row+0
	MOVLW      1
	MOVWF      FARG_Lcd_Out_column+0
	MOVLW      ?lstr12_watertank+0
	MOVWF      FARG_Lcd_Out_text+0
	CALL       _Lcd_Out+0
L_main19:
;watertank.c,76 :: 		}
	GOTO       L_main5
;watertank.c,77 :: 		}
L_end_main:
	GOTO       $+0
; end of _main
