MPASM  5.42                               A.S   11-23-2017  19:24:39         PAGE  1


LOC  OBJECT CODE     LINE SOURCE TEXT
  VALUE


                      00002         list
                      00003 ;{
                      00004 ;FILE F1 = C:\USERS\ANTOR\GOOGLE~1\EMBEDD~1\TANVIR~1\PROJECTS\24300C~1.FUE\FIRMWARE\PICSYS\FUELSYS.BAS
                      00005 ;FILE F2 = C:\USERS\ANTOR\GOOGLE~1\EMBEDD~1\TANVIR~1\PROJECTS\24300C~1.FUE\FIRMWARE\PICSYS\FUELSYS.PRP
                      00006 ;FILE F3 = C:\USERS\ANTOR\GOOGLE DRIVE\EMBEDDED PROJECTS\TANVIR BHAI\PROJECTS\24. FUEL MANAGEMENT SYSTEM
                            \FIRMWARE\PICSYS\KEYPAD4X4.INC
                      00007 ;}
                      00008 ;[Variable Listing]
                      00009 ;msg,0043,DT_BYTE,1
                      00010 ;X,0044,DT_BYTE,1
                      00011 ;Y,0045,DT_BYTE,1
                      00012 ;oil,0046,DT_BYTE,2
                      00013 ;oil_q,0048,DT_BYTE,1
                      00014 ;bill,0049,DT_BYTE,1
                      00015 ;cost,004A,DT_WORD,2
                      00016 ;ID_no,004C,DT_BYTE,1
                      00017 ;tmp_ID,004D,DT_BYTE,1
                      00018 ;Card_ID,004E,DT_BYTE,2
                      00019 ;pass_1,0050,DT_BYTE,8
                      00020 ;pass_2,0058,DT_BYTE,8
                      00021 ;pass_3,0060,DT_BYTE,8
                      00022 ;pass_4,0068,DT_BYTE,8
                      00023 ;pass_5,0070,DT_BYTE,8
                      00024 ;temp_pass,0078,DT_BYTE,8
                      00025 ;key,00A0,DT_BYTE,1
                      00026 ;key_value,00A1,DT_BYTE,1
                      00027 ;IR_1,0006.0,DT_BIT
                      00028 ;motor,0005.0,DT_BIT
                      00029 ;pump,0005.5,DT_BIT
                      00030 ;hi_level,0007.4,DT_BIT
                      00031 ;lo_level,0007.5,DT_BIT
                      00032 ;col_1,0007.3,DT_BIT
                      00033 ;col_2,0007.2,DT_BIT
                      00034 ;col_3,0007.1,DT_BIT
                      00035 ;col_4,0007.0,DT_BIT
                      00036 ;row_1,0005.4,DT_BIT
                      00037 ;row_2,0005.3,DT_BIT
                      00038 ;row_3,0005.2,DT_BIT
                      00039 ;row_4,0005.1,DT_BIT
                      00040 ;[End Listing]
                      00041 ;[TOTAL VARS] 98

                      00043 #define CONFIG_REQ 1
MESSAGE[308]: WARNING LEVEL SUPERSEDED BY COMMAND LINE VALUE. (2)
                      00044  LIST  P = 16F73, F = INHX8M, W = 2, X = ON, R = DEC, MM = ON, N = 0, C = 255
  00000000            00045 INDF equ 0X0000
  00000001            00046 TMR0 equ 0X0001
  00000002            00047 PCL equ 0X0002
  00000003            00048 STATUS equ 0X0003
  00000004            00049 FSR equ 0X0004
  00000005            00050 PORTA equ 0X0005
  00000006            00051 PORTB equ 0X0006
  00000007            00052 PORTC equ 0X0007
  0000000A            00053 PCLATH equ 0X000A
  0000000B            00054 INTCON equ 0X000B
  0000000C            00055 PIR1 equ 0X000C
  0000000D            00056 PIR2 equ 0X000D
  0000000E            00057 TMR1L equ 0X000E
  0000000F            00058 TMR1LH equ 0X000F
  0000000F            00059 TMR1H equ 0X000F
  00000010            00060 T1CON equ 0X0010
  00000011            00061 TMR2 equ 0X0011
  00000012            00062 T2CON equ 0X0012
  00000013            00063 SSPBUF equ 0X0013
  00000014            00064 SSPCON equ 0X0014
  00000015            00065 CCPR1L equ 0X0015
  00000016            00066 CCPR1LH equ 0X0016
  00000016            00067 CCPR1H equ 0X0016
  00000017            00068 CCP1CON equ 0X0017
  00000018            00069 RCSTA equ 0X0018
  00000019            00070 TXREG equ 0X0019
  0000001A            00071 RCREG equ 0X001A
  0000001B            00072 CCPR2L equ 0X001B
  0000001C            00073 CCPR2LH equ 0X001C
  0000001C            00074 CCPR2H equ 0X001C
  0000001D            00075 CCP2CON equ 0X001D
  0000001E            00076 ADRES equ 0X001E
  0000001F            00077 ADCON0 equ 0X001F
  00000081            00078 OPTION_REG equ 0X0081
  00000085            00079 TRISA equ 0X0085
  00000086            00080 TRISB equ 0X0086
  00000087            00081 TRISC equ 0X0087
  0000008C            00082 PIE1 equ 0X008C
  0000008D            00083 PIE2 equ 0X008D
  0000008E            00084 PCON equ 0X008E
  00000092            00085 PR2 equ 0X0092
  00000093            00086 SSPADD equ 0X0093
  00000094            00087 SSPSTAT equ 0X0094
  00000098            00088 TXSTA equ 0X0098
  00000099            00089 SPBRG equ 0X0099
  0000009F            00090 ADCON1 equ 0X009F
  0000010C            00091 EEDATL equ 0X010C
  0000010C            00092 PMDATL equ 0X010C
  0000010C            00093 EEDATA equ 0X010C
  0000010C            00094 EEDAT equ 0X010C
  0000010C            00095 PMDATA equ 0X010C
  0000010D            00096 EEADR equ 0X010D
  0000010D            00097 PMADR equ 0X010D
  0000010E            00098 EEDATLH equ 0X010E
  0000010E            00099 PMDATLH equ 0X010E
  0000010E            00100 EEDATH equ 0X010E
  0000010E            00101 PMDATH equ 0X010E
  0000010F            00102 EEADRH equ 0X010F
  0000010F            00103 PMADRH equ 0X010F
  0000018C            00104 EECON1 equ 0X018C
  0000018C            00105 PMCON1 equ 0X018C
  00000087            00106 _I2C_SCL_PORT=TRISC
  00000003            00107 _I2C_SCL_PIN=3
  00000087            00108 _I2C_SDA_PORT=TRISC
  00000004            00109 _I2C_SDA_PIN=4
  00000007            00110 IRP=7
  00000006            00111 RP1=6
  00000005            00112 RP0=5
  00000004            00113 NOT_TO=4
  00000003            00114 NOT_PD=3
  00000002            00115 Z=2
  00000001            00116 DC=1
  00000000            00117 C=0
  00000007            00118 GIE=7
  00000006            00119 PEIE=6
  00000005            00120 T0IE=5
  00000004            00121 INTE=4
  00000003            00122 RBIE=3
  00000002            00123 T0IF=2
  00000001            00124 INTF=1
  00000000            00125 RBIF=0
  00000006            00126 ADIF=6
  00000005            00127 RCIF=5
  00000005            00128 PP_RCIF=5
  00000004            00129 TXIF=4
  00000004            00130 PP_TXIF=4
  00000003            00131 SSPIF=3
  00000002            00132 CCP1IF=2
  00000001            00133 TMR2IF=1
  00000000            00134 TMR1IF=0
  00000000            00135 CCP2IF=0
  00000005            00136 T1CKPS1=5
  00000004            00137 T1CKPS0=4
  00000003            00138 T1OSCEN=3
  00000002            00139 NOT_T1SYNC=2
  00000002            00140 T1INSYNC=2
  00000001            00141 TMR1CS=1
  00000000            00142 TMR1ON=0
  00000006            00143 TOUTPS3=6
  00000005            00144 TOUTPS2=5
  00000004            00145 TOUTPS1=4
  00000003            00146 TOUTPS0=3
  00000002            00147 TMR2ON=2
  00000002            00148 PP_TMR2ON=2
  00000001            00149 T2CKPS1=1
  00000001            00150 PP_T2CKPS1=1
  00000000            00151 T2CKPS0=0
  00000000            00152 PP_T2CKPS0=0
  00000007            00153 WCOL=7
  00000006            00154 SSPOV=6
  00000005            00155 SSPEN=5
  00000004            00156 CKP=4
  00000003            00157 SSPM3=3
  00000002            00158 SSPM2=2
  00000001            00159 SSPM1=1
  00000000            00160 SSPM0=0
  00000005            00161 CCP1X=5
  00000004            00162 CCP1Y=4
  00000003            00163 CCP1M3=3
  00000002            00164 CCP1M2=2
  00000001            00165 CCP1M1=1
  00000000            00166 CCP1M0=0
  00000007            00167 SPEN=7
  00000006            00168 RX9=6
  00000006            00169 RC9=6
  00000006            00170 NOT_RC8=6
  00000006            00171 RC8_9=6
  00000005            00172 SREN=5
  00000004            00173 CREN=4
  00000004            00174 PP_CREN=4
  00000002            00175 FERR=2
  00000001            00176 OERR=1
  00000001            00177 PP_OERR=1
  00000000            00178 RX9D=0
  00000000            00179 RCD8=0
  00000005            00180 CCP2X=5
  00000004            00181 CCP2Y=4
  00000003            00182 CCP2M3=3
  00000002            00183 CCP2M2=2
  00000001            00184 CCP2M1=1
  00000000            00185 CCP2M0=0
  00000007            00186 ADCS1=7
  00000006            00187 ADCS0=6
  00000005            00188 CHS2=5
  00000004            00189 CHS1=4
  00000003            00190 CHS0=3
  00000002            00191 GO=2
  00000002            00192 NOT_DONE=2
  00000002            00193 GO_DONE=2
  00000002            00194 PP_GO_DONE=2
  00000000            00195 ADON=0
  00000007            00196 NOT_RBPU=7
  00000006            00197 INTEDG=6
  00000005            00198 T0CS=5
  00000004            00199 T0SE=4
  00000003            00200 PSA=3
  00000002            00201 PS2=2
  00000001            00202 PS1=1
  00000000            00203 PS0=0
  00000006            00204 ADIE=6
  00000005            00205 RCIE=5
  00000004            00206 TXIE=4
  00000003            00207 SSPIE=3
  00000002            00208 CCP1IE=2
  00000001            00209 TMR2IE=1
  00000000            00210 TMR1IE=0
  00000000            00211 CCP2IE=0
  00000001            00212 NOT_POR=1
  00000000            00213 NOT_BO=0
  00000000            00214 NOT_BOR=0
  00000007            00215 SMP=7
  00000006            00216 CKE=6
  00000005            00217 I2C_DATA=5
  00000005            00218 NOT_A=5
  00000005            00219 NOT_ADDRESS=5
  00000005            00220 D_A=5
  00000005            00221 DATA_ADDRESS=5
  00000004            00222 I2C_STOP=4
  00000003            00223 I2C_START=3
  00000002            00224 I2C_READ=2
  00000002            00225 NOT_W=2
  00000002            00226 NOT_WRITE=2
  00000002            00227 R_W=2
  00000002            00228 PP_R_W=2
  00000002            00229 READ_WRITE=2
  00000001            00230 UA=1
  00000000            00231 BF=0
  00000000            00232 PP_BF=0
  00000007            00233 CSRC=7
  00000006            00234 TX9=6
  00000006            00235 NOT_TX8=6
  00000006            00236 TX8_9=6
  00000005            00237 TXEN=5
  00000004            00238 SYNC=4
  00000002            00239 BRGH=2
  00000001            00240 TRMT=1
  00000000            00241 TX9D=0
  00000000            00242 TXD8=0
  00000002            00243 PCFG2=2
  00000001            00244 PCFG1=1
  00000000            00245 PCFG0=0
  00000000            00246 RD=0
  00000000            00247 PP_RD=0
  000001FF            00248   __MAXRAM 0X1FF
                      00249   __BADRAM 0X08-0X09
                      00250   __BADRAM 0X88-0X89, 0X8F-0X91, 0X95-0X97, 0X9A-0X9E
                      00251   __BADRAM 0X105, 0X107-0X109, 0X110-0X11F
                      00252   __BADRAM 0X185, 0X187-0X189, 0X18D-0X19F
  00003FFF            00253 BODEN_ON equ 0X3FFF
  00003FBF            00254 BODEN_OFF equ 0X3FBF
  00003FEF            00255 CP_ALL equ 0X3FEF
  00003FFF            00256 CP_OFF equ 0X3FFF
  00003FFF            00257 PWRTE_OFF equ 0X3FFF
  00003FF7            00258 PWRTE_ON equ 0X3FF7
  00003FFF            00259 WDT_ON equ 0X3FFF
  00003FFB            00260 WDT_OFF equ 0X3FFB
  00003FFC            00261 LP_OSC equ 0X3FFC
  00003FFD            00262 XT_OSC equ 0X3FFD
  00003FFE            00263 HS_OSC equ 0X3FFE
  00003FFF            00264 RC_OSC equ 0X3FFF
  00003FBF            00265 BOREN_OFF equ 0X3FBF
  00003FFF            00266 BOREN_ON equ 0X3FFF
  00003FEF            00267 CP_ON equ 0X3FEF
  00003FFE            00268 FOSC_HS equ 0X3FFE
  00003FFC            00269 FOSC_LP equ 0X3FFC
  00003FFF            00270 FOSC_RC equ 0X3FFF
  00003FFD            00271 FOSC_XT equ 0X3FFD
  00003FFB            00272 WDTE_OFF equ 0X3FFB
  00003FFF            00273 WDTE_ON equ 0X3FFF

                      00277 #define __16F73 1
                      00278 #define XTAL 20
                      00279 #define _CORE 14
                      00280 #define _MAXRAM 192
                      00281 #define _RAM_END 0X00C0
                      00282 #define _MAXMEM 4096
                      00283 #define _ADC 5
                      00284 #define _ADC_RES 8
                      00285 #define _EEPROM 0
                      00286 #define _PAGES 2
                      00287 #define _BANKS 3
                      00288 #define RAM_BANKS 2
                      00289 #define _USART 1
                      00290 #define _USB 0
                      00291 #define _FLASH 2
                      00292 #define _CWRITE_BLOCK 0
                      00293 #define BANK0_START 0X20
                      00294 #define BANK0_END 0X7F
                      00295 #define BANK1_START 0X00A0
                      00296 #define BANK1_END 0X00FF
                      00297 #define BANK2_START 0X0110
                      00298 #define BANK2_END 0X0120
                      00299 #define BANK3_START 0X0190
                      00300 #define BANK3_END 0X01A0
                      00301 #define _SYSTEM_VARIABLE_COUNT 35
  00000000            00302 ram_bank = 0
  00000000            00303 CURRENT@PAGE = 0
  00000000            00304 DEST@PAGE = 0
                      00305 #define LCD#DTPORT PORTB
                      00306 #define LCD#DTPIN 4
                      00307 #define LCD#RSPORT PORTB
                      00308 #define LCD#RSPIN 2
                      00309 #define LCD#ENPORT PORTB
                      00310 #define LCD#ENPIN 3
                      00311 #define LCD#INTERFACE 4
                      00312 #define LCD#LINES 4
                      00313 #define LCD#TYPE 0
                      00315 f@call macro PDEST
                      00316 if(PDEST < 1)
                      00317 if((PDEST & 2048) == 0)
                      00318         bcf 10,3
                      00319 else
                      00320         bsf 10,3
                      00321 endif
                      00322 else
                      00323 if(PDEST > $)
                      00324 if((PDEST & 2048) == 0)
                      00325         bcf 10,3
                      00326 else
                      00327         bsf 10,3
                      00328 endif
                      00329 else
                      00330 if((PDEST & 6144) == 0)
                      00331         clrf 10
                      00332 else
                      00333 if((PDEST & 2048) == 0)
                      00334         bcf 10,3
                      00335 else
                      00336         bsf 10,3
                      00337 endif
                      00338 endif
                      00339 endif
                      00340 endif
                      00341         call PDEST
                      00342         endm
                      00343 F@JUMP macro PDEST
                      00344 if(PDEST < 1)
                      00345 if((PDEST & 2048) == 0)
                      00346         bcf 10,3
                      00347 else
                      00348         bsf 10,3
                      00349 endif
                      00350 else
                      00351 if(PDEST > $)
                      00352 if((PDEST & 2048) == 0)
                      00353         bcf 10,3
                      00354 else
                      00355         bsf 10,3
                      00356 endif
                      00357 else
                      00358 if((PDEST & 6144) == 0)
                      00359         clrf 10
                      00360 else
                      00361 if((PDEST & 2048) == 0)
                      00362         bcf 10,3
                      00363 else
                      00364         bsf 10,3
                      00365 endif
                      00366 endif
                      00367 endif
                      00368 endif
                      00369         goto PDEST
                      00370         endm
                      00371 set@page macro PDEST
                      00372 if((PDEST & 2048) == 0)
                      00373         bcf 10,3
                      00374 else
                      00375         bsf 10,3
                      00376 endif
                      00377         endm
                      00378 s@b     macro pVarin
                      00379 if((pVarin & 384) == 0)
                      00380 if(ram_bank == 1)
                      00381         bcf 3,5
                      00382 endif
                      00383 if(ram_bank == 2)
                      00384         bcf 3,6
                      00385 endif
                      00386 if(ram_bank == 3)
                      00387         bcf 3,5
                      00388         bcf 3,6
                      00389 endif
                      00390 ram_bank = 0
                      00391 endif
                      00392 if((pVarin & 384) == 128)
                      00393 if(ram_bank == 0)
                      00394         bsf 3,5
                      00395 endif
                      00396 if(ram_bank == 2)
                      00397         bsf 3,5
                      00398         bcf 3,6
                      00399 endif
                      00400 if(ram_bank == 3)
                      00401         bcf 3,6
                      00402 endif
                      00403 ram_bank = 1
                      00404 endif
                      00405 if((pVarin & 384) == 256)
                      00406 if(ram_bank == 0)
                      00407         bsf 3,6
                      00408 endif
                      00409 if(ram_bank == 1)
                      00410         bcf 3,5
                      00411         bsf 3,6
                      00412 endif
                      00413 if(ram_bank == 3)
                      00414         bcf 3,5
                      00415 endif
                      00416 ram_bank = 2
                      00417 endif
                      00418 if((pVarin & 384) == 384)
                      00419 if(ram_bank == 0)
                      00420         bsf 3,5
                      00421         bsf 3,6
                      00422 endif
                      00423 if(ram_bank == 1)
                      00424         bsf 3,6
                      00425 endif
                      00426 if(ram_bank == 2)
                      00427         bsf 3,5
                      00428 endif
                      00429 ram_bank = 3
                      00430 endif
                      00431         endm
                      00432 r@b     macro
                      00433 if((ram_bank & 1) != 0)
                      00434         bcf 3,5
                      00435 endif
                      00436 if((ram_bank & 2) != 0)
                      00437         bcf 3,6
                      00438 endif
                      00439 ram_bank = 0
                      00440         endm
                      00441 jump macro PLABEL
                      00442     goto PLABEL
                      00443     endm
                      00444 wreg_byte macro pByteOut
                      00445     s@b pByteOut
                      00446     movwf pByteOut
                      00447     r@b
                      00448     endm
                      00449 wreg_bit macro pVarOut,pBitout
                      00450     s@b pVarOut
                      00451     andlw 1
                      00452     btfsc STATUS,2
                      00453     bcf pVarOut,pBitout
                      00454     btfss STATUS,2
                      00455     bsf pVarOut,pBitout
                      00456     r@b
                      00457     endm
                      00458 wreg_word macro pWordOut
                      00459     s@b pWordOut
                      00460     movwf pWordOut
                      00461     s@b pWordOut+1
                      00462     clrf pWordOut+1
                      00463     r@b
                      00464     endm
                      00465 wreg_dword macro pDwordOut
                      00466     s@b pDwordOut+3
                      00467     clrf pDwordOut+3
                      00468     s@b pDwordOut+2
                      00469     clrf pDwordOut+2
                      00470     s@b pDwordOut+1
                      00471     clrf pDwordOut+1
                      00472     s@b pDwordOut
                      00473     movwf pDwordOut
                      00474     r@b
                      00475     endm
                      00476 byte_wreg macro pByteIn
                      00477     s@b pByteIn
                      00478     movf pByteIn,W
                      00479     r@b
                      00480     endm
                      00481 num_wreg macro pNumIn
                      00482     movlw (pNumIn & 255)
                      00483     endm
                      00484 num_byte macro pNumIn,pByteOut
                      00485     s@b pByteOut
                      00486 if(pNumIn == 0)
                      00487     clrf pByteOut
                      00488 else
                      00489     movlw (pNumIn & 255)
                      00490     movwf pByteOut
                      00491 endif
                      00492     r@b
                      00493     endm
                      00494 num_bit macro pNumIn,pVarOut,pBitout
                      00495     s@b pVarOut
                      00496 if((pNumIn & 1) == 1)
                      00497     bsf pVarOut,pBitout
                      00498 else
                      00499     bcf pVarOut,pBitout
                      00500 endif
                      00501     r@b
                      00502     endm
                      00503 num_word macro pNumIn,pWordOut
                      00504 if((pNumIn & 255) == 0)
                      00505     s@b pWordOut
                      00506     clrf pWordOut
                      00507 else
                      00508     s@b pWordOut
                      00509     movlw low (pNumIn)
                      00510     movwf pWordOut
                      00511 endif
                      00512 if(((pNumIn >> 8) & 255) == 0)
                      00513     s@b pWordOut+1
                      00514     clrf pWordOut+1
                      00515 else
                      00516     s@b pWordOut+1
                      00517     movlw high (pNumIn)
                      00518     movwf pWordOut+1
                      00519 endif
                      00520     r@b
                      00521     endm
                      00522 num_dword macro pNumIn,pDwordOut
                      00523 if ((pNumIn >> 24 & 255) == 0)
                      00524     s@b pDwordOut+3
                      00525     clrf pDwordOut+3
                      00526 else
                      00527     s@b pDwordOut+3
                      00528     movlw ((pNumIn >> 24) & 255)
                      00529     movwf pDwordOut+3
                      00530 endif
                      00531 if( ((pNumIn >> 16) & 255) == 0)
                      00532     s@b pDwordOut+2
                      00533     clrf pDwordOut+2
                      00534 else
                      00535     s@b pDwordOut+2
                      00536     movlw ((pNumIn >> 16) & 255)
                      00537     movwf pDwordOut+2
                      00538 endif
                      00539 if( ((pNumIn >> 8) & 255) == 0)
                      00540     s@b pDwordOut+1
                      00541     clrf pDwordOut+1
                      00542 else
                      00543     s@b pDwordOut+1
                      00544     movlw high (pNumIn)
                      00545     movwf pDwordOut+1
                      00546 endif
                      00547 if((pNumIn & 255) == 0)
                      00548     s@b pDwordOut
                      00549     clrf pDwordOut
                      00550 else
                      00551     s@b pDwordOut
                      00552     movlw low (pNumIn)
                      00553     movwf pDwordOut
                      00554 endif
                      00555     r@b
                      00556     endm
                      00557 bit_wreg macro pVarin,pBitIn
                      00558     s@b pVarin
                      00559     clrw
                      00560     btfsc pVarin,pBitIn
                      00561     movlw 1
                      00562     r@b
                      00563     endm
                      00564 bit_byte macro pVarin,pBitIn,pByteOut
                      00565     s@b pVarin
                      00566     clrw
                      00567     btfsc pVarin,pBitIn
                      00568     movlw 1
                      00569     s@b pByteOut
                      00570     movwf pByteOut
                      00571     r@b
                      00572     endm
                      00573 bit_bit macro pVarin,pBitIn,pVarOut,pBitout
                      00574 if((pVarin & 65408) == (pVarOut & 65408))
                      00575     s@b pVarOut
                      00576     btfsc pVarin,pBitIn
                      00577     bsf pVarOut,pBitout
                      00578     btfss pVarin,pBitIn
                      00579     bcf pVarOut,pBitout
                      00580 else
                      00581     s@b pVarin
                      00582     clrdc
                      00583     btfsc pVarin,pBitIn
                      00584     setdc
                      00585     s@b pVarOut
                      00586     skpndc
                      00587     bsf pVarOut,pBitout
                      00588     skpdc
                      00589     bcf pVarOut,pBitout
                      00590 endif
                      00591     endm
                      00592 bit_word macro pVarin,pBitIn,pWordOut
                      00593     s@b pWordOut+1
                      00594     clrf pWordOut+1
                      00595     bit_byte pVarin,pBitIn,pWordOut
                      00596     endm
                      00597 bit_dword macro pVarin,pBitIn,pDwordOut
                      00598     s@b pDwordOut+3
                      00599     clrf pDwordOut+3
                      00600     s@b pDwordOut+2
                      00601     clrf pDwordOut+2
                      00602     s@b pDwordOut+1
                      00603     clrf pDwordOut+1
                      00604     bit_byte pVarin,pBitIn,pDwordOut
                      00605     endm
                      00606 word_wreg macro pWordIn
                      00607     byte_wreg pWordIn
                      00608     endm
                      00609 word_byte macro pWordIn,pByteOut
                      00610     byte_byte pWordIn,pByteOut
                      00611     endm
                      00612 word_bit macro pWordIn,pVarOut,pBitout
                      00613     byte_bit pWordIn, pVarOut, pBitout
                      00614     endm
                      00615 word_word macro pWordIn,pWordOut
                      00616     s@b pWordIn+1
                      00617     movf pWordIn+1,W
                      00618     s@b pWordOut+1
                      00619     movwf pWordOut+1
                      00620     byte_byte pWordIn,pWordOut
                      00621     endm
                      00622 word_dword macro pWordIn,pDwordOut
                      00623     s@b pDwordOut+3
                      00624     clrf pDwordOut+3
                      00625     s@b pDwordOut+2
                      00626     clrf pDwordOut+2
                      00627     byte_byte pWordIn+1,pDwordOut+1
                      00628     byte_byte pWordIn,pDwordOut
                      00629     endm
                      00630 byte_byte macro pByteIn,pByteOut
                      00631     s@b pByteIn
                      00632     movf pByteIn,W
                      00633     s@b pByteOut
                      00634     movwf pByteOut
                      00635     r@b
                      00636     endm
                      00637 byte_word macro pByteIn,pWordOut
                      00638     s@b pWordOut+1
                      00639     clrf pWordOut+1
                      00640     byte_byte pByteIn,pWordOut
                      00641     endm
                      00642 byte_dword macro pByteIn,pDwordOut
                      00643     s@b pDwordOut+3
                      00644     clrf pDwordOut+3
                      00645     s@b pDwordOut+2
                      00646     clrf pDwordOut+2
                      00647     s@b pDwordOut+1
                      00648     clrf pDwordOut+1
                      00649     byte_byte pByteIn,pDwordOut
                      00650     endm
                      00651     byte_bit macro pByteIn,pVarOut,pBitout
                      00652 if((pByteIn & 65408) == (pVarOut & 65408))
                      00653     s@b pByteIn
                      00654     btfsc pByteIn,0
                      00655     bsf pVarOut,pBitout
                      00656     btfss pByteIn,0
                      00657     bcf pVarOut,pBitout
                      00658 else
                      00659     s@b pByteIn
                      00660     rrf pByteIn,W
                      00661     s@b pVarOut
                      00662     skpnc
                      00663     bsf pVarOut,pBitout
                      00664     skpc
                      00665     bcf pVarOut,pBitout
                      00666 endif
                      00667     r@b
                      00668     endm
                      00669 dword_wreg macro pDwordIn
                      00670     byte_wreg pDwordIn
                      00671     endm
                      00672 dword_byte macro pDwordIn,pByteOut
                      00673     byte_byte pDwordIn,pByteOut
                      00674     endm
                      00675 dword_word macro pDwordIn,pWordOut
                      00676     s@b pDwordIn+1
                      00677     movf pDwordIn+1,W
                      00678     s@b pWordOut+1
                      00679     movwf pWordOut+1
                      00680     byte_byte pDwordIn,pWordOut
                      00681     endm
                      00682 dword_dword macro pDwordIn,pDwordOut
                      00683     byte_byte pDwordIn+3,pDwordOut+3
                      00684     byte_byte pDwordIn+2,pDwordOut+2
                      00685     byte_byte pDwordIn+1,pDwordOut+1
                      00686     byte_byte pDwordIn,pDwordOut
                      00687     endm
                      00688 dword_bit macro pDwordIn,pVarOut,pBitout
                      00689     byte_bit pDwordIn,pVarOut,pBitout
                      00690     endm
  0000                00691 variable CURRENT@PAGE = 0
  0000                00692 variable PDESTINATION@PAGE = 0
                      00693 FIND@PAGE macro pLabelIn
                      00694 local CURRENT_ADDR = $
                      00695 local DEST_ADDR = pLabelIn
                      00696 if((CURRENT_ADDR >= 0X1800) && (CURRENT_ADDR <= 0X2000))
                      00697     CURRENT@PAGE = 3
                      00698 endif
                      00699 if((CURRENT_ADDR >= 0X1000) && (CURRENT_ADDR <= 0X1800))
                      00700     CURRENT@PAGE = 2
                      00701 endif
                      00702 if((CURRENT_ADDR >= 0X0800) && (CURRENT_ADDR <= 0X1000))
                      00703     CURRENT@PAGE = 1
                      00704 endif
                      00705 if((CURRENT_ADDR >= 0) && (CURRENT_ADDR <= 0X0800))
                      00706     CURRENT@PAGE = 0
                      00707 endif
                      00708 if((DEST_ADDR >= 0X1800) && (DEST_ADDR <= 0X2000))
                      00709     PDESTINATION@PAGE = 3
                      00710 endif
                      00711 if((DEST_ADDR >= 0X1000) && (DEST_ADDR <= 0X1800))
                      00712     PDESTINATION@PAGE = 2
                      00713 endif
                      00714 if((DEST_ADDR >= 0X0800) && (DEST_ADDR <= 0X1000))
                      00715     PDESTINATION@PAGE = 1
                      00716 endif
                      00717 if((DEST_ADDR >= 0) && (DEST_ADDR <= 0X0800))
                      00718     PDESTINATION@PAGE = 0
                      00719 endif
                      00720     endm
                      00721 NUM_FSR macro pNumIn
                      00722     num_byte pNumIn, FSR
                      00723 if (((pNumIn >> 8) & 255) == 1)
                      00724     bsf STATUS,7
                      00725 else
                      00726     bcf STATUS,7
                      00727 endif
                      00728     endm
                      00729 label_word macro pLabelIn,pWordOut
                      00730     movlw low (pLabelIn)
                      00731     s@b pWordOut
                      00732     movwf pWordOut
                      00733     movlw high (pLabelIn)
                      00734     s@b pWordOut
                      00735     movwf pWordOut+1
                      00736     r@b
                      00737     endm
  00000020            00740 BPF = 32
  00000021            00741 BPFH = 33
  00000022            00742 CSTR#CT = 34
  00000023            00743 GEN = 35
  00000024            00744 GEN3H = 36
  00000025            00745 GEN4 = 37
  00000026            00746 GEN4H = 38
  00000027            00747 GENH = 39
  00000028            00748 GPR = 40
  00000029            00749 PBP#VAR0 = 41
  0000002A            00750 PBP#VAR1 = 42
  0000002B            00751 PP0 = 43
  0000002C            00752 PP0H = 44
  0000002D            00753 PP0HH = 45
  0000002E            00754 PP0HHH = 46
  0000002F            00755 PP1 = 47
  00000030            00756 PP1H = 48
  00000031            00757 PP2 = 49
  00000032            00758 PP2H = 50
  00000033            00759 PP2HH = 51
  00000034            00760 PP2HHH = 52
  00000035            00761 PP3 = 53
  00000036            00762 PP3H = 54
  00000037            00763 PP4 = 55
  00000038            00764 PP5 = 56
  00000039            00765 PP6 = 57
  0000003A            00766 PP6H = 58
  0000003B            00767 PP7 = 59
  0000003C            00768 PP7H = 60
  0000003D            00769 PPZ = 61
  0000003E            00770 PPZH = 62
  0000003F            00771 PPZHH = 63
  00000040            00772 PPZHHH = 64
  00000041            00773 RPFH = 65
  00000042            00774 SP#P9 = 66
  00000043            00775 msg = 67
  00000044            00776 _X = 68
  00000045            00777 _Y = 69
  00000046            00778 oil = 70
  0046                00779 variable oil#0=70,oil#1=71
  00000048            00780 oil_q = 72
  00000049            00781 bill = 73
  0000004A            00782 cost = 74
  0000004B            00783 costH = 75
  0000004C            00784 ID_no = 76
  0000004D            00785 tmp_ID = 77
  0000004E            00786 Card_ID = 78
  004E                00787 variable Card_ID#0=78,Card_ID#1=79
  00000050            00788 pass_1 = 80
  0050                00789 variable pass_1#0=80,pass_1#1=81,pass_1#2=82,pass_1#3=83
  0054                00790 variable pass_1#4=84,pass_1#5=85,pass_1#6=86,pass_1#7=87
  00000058            00791 pass_2 = 88
  0058                00792 variable pass_2#0=88,pass_2#1=89,pass_2#2=90,pass_2#3=91
  005C                00793 variable pass_2#4=92,pass_2#5=93,pass_2#6=94,pass_2#7=95
  00000060            00794 pass_3 = 96
  0060                00795 variable pass_3#0=96,pass_3#1=97,pass_3#2=98,pass_3#3=99
  0064                00796 variable pass_3#4=100,pass_3#5=101,pass_3#6=102,pass_3#7=103
  00000068            00797 pass_4 = 104
  0068                00798 variable pass_4#0=104,pass_4#1=105,pass_4#2=106,pass_4#3=107
  006C                00799 variable pass_4#4=108,pass_4#5=109,pass_4#6=110,pass_4#7=111
  00000070            00800 pass_5 = 112
  0070                00801 variable pass_5#0=112,pass_5#1=113,pass_5#2=114,pass_5#3=115
  0074                00802 variable pass_5#4=116,pass_5#5=117,pass_5#6=118,pass_5#7=119
  00000078            00803 temp_pass = 120
  0078                00804 variable temp_pass#0=120,temp_pass#1=121,temp_pass#2=122,temp_pass#3=123
  007C                00805 variable temp_pass#4=124,temp_pass#5=125,temp_pass#6=126,temp_pass#7=127
  000000A0            00806 key = 160
  000000A1            00807 key_value = 161
                      00808 #define __LCD_RSPORT PORTB
                      00809 #define __LCD_ENPORT PORTB
                      00810 #define __LCD_DTPORT PORTB
                      00811 #define IR_1 PORTB,0
                      00812 #define motor PORTA,0
                      00813 #define pump PORTA,5
                      00814 #define hi_level PORTC,4
                      00815 #define lo_level PORTC,5
                      00816 #define col_1 PORTC,3
                      00817 #define col_2 PORTC,2
                      00818 #define col_3 PORTC,1
                      00819 #define col_4 PORTC,0
                      00820 #define row_1 PORTA,4
                      00821 #define row_2 PORTA,3
                      00822 #define row_3 PORTA,2
                      00823 #define row_4 PORTA,1
                      00824 #define __XTAL 20
                      00825 #define __LCD_RSPIN 2
                      00826 #define __LCD_ENPIN 3
                      00827 #define __LCD_DTPIN 4
                      00828 #define __LCD_INTERFACE 4
                      00829 #define __LCD_LINES 4
                      00830 #define __HSERIAL_BAUD 9600
                      00831 #define __HSERIAL_RCSTA 144
                      00832 #define __HSERIAL_TXSTA 36
  00000081            00833 HSERIAL_SPBRG = 129
  00000024            00834 HSERIAL_TXSTA = 36
  00000090            00835 HSERIAL_RCSTA = 144
  00002580            00836 HSERIAL_BAUD = 9600
0000                  00837 proton#code#start
0000                  00838         org 0
0000   29DD           00839         goto proton#main#start
0001                  00840 T@LEB
0001   01AC           00841         clrf 44
0002                  00842 T@LEW
0002   01B0           00843         clrf 48
0003                  00844 T@LE
0003   00AF           00845         movwf 47
0004   3006           00846         movlw 6
0005                  00847 T@ST
0005   00A8           00848         movwf 40
0006   0830           00849         movf 48,W
0007   022C           00850         subwf 44,W
0008   1D03           00851         skpz
0009   280C           00852         goto $ + 3
000A   082F           00853         movf 47,W
000B   022B           00854         subwf 43,W
000C   3004           00855         movlw 4
000D   1803           00856         skpnc
000E   3001           00857         movlw 1
000F   1903           00858         skpnz
0010   3002           00859         movlw 2
0011   0528           00860         andwf 40,W
0012   1D03           00861         skpz
0013   3001           00862         movlw 1
0014   29D9           00863         goto I@NT
0015                  00864 LCD@CLS
0015   3080           00865         movlw 128
0016   00A1           00866         movwf 33
0017                  00867 CLS
0017   30FE           00868         movlw 254
0018   2142           00869         call CH@SND
0019   3001           00870         movlw 1
001A   2142           00871         call CH@SND
001B   3075           00872         movlw 117
001C   00AC           00873         movwf 44
001D   3030           00874         movlw 48
001E   2976           00875         goto DLUS@W
001F                  00876 LCD@CUR
001F   01A1           00877         clrf 33
0020   17A1           00878         bsf 33,7
0021                  00879 CURSOR
0021   00B8           00880         movwf 56
0022   08B8           00881         tstf 56
0023   1D03           00882         skpz
0024   03B8           00883         decf 56,F
0025   30FE           00884         movlw 254
0026   2142           00885         call CH@SND
0027   08A3           00886         tstf 35
0028   1903           00887         skpnz
0029   282C           00888         goto $ + 3
002A   0B23           00889         decfsz 35,W
002B   282E           00890         goto $ + 3
002C   3080           00891         movlw 128
002D   283F           00892         goto $ + 18
002E   0823           00893         movf 35,W
002F   3A02           00894         xorlw 2
0030   1D03           00895         skpz
0031   2834           00896         goto $ + 3
0032   30C0           00897         movlw 192
0033   283F           00898         goto $ + 12
0034   0823           00899         movf 35,W
0035   3A03           00900         xorlw 3
0036   1D03           00901         skpz
0037   283A           00902         goto $ + 3
0038   3094           00903         movlw 148
0039   283F           00904         goto $ + 6
003A   0823           00905         movf 35,W
003B   3A04           00906         xorlw 4
003C   1D03           00907         skpz
003D   2840           00908         goto $ + 3
003E   30D4           00909         movlw 212
003F   00A3           00910         movwf 35
0040   0838           00911         movf 56,W
0041   0723           00912         addwf 35,W
0042   2942           00913         goto CH@SND
0043                  00914 LCD@CRS
0043   01A1           00915         clrf 33
0044   17A1           00916         bsf 33,7
0045                  00917 CURS@
0045   00B8           00918         movwf 56
0046   30FE           00919         movlw 254
0047   2142           00920         call CH@SND
0048   0838           00921         movf 56,W
0049   2942           00922         goto CH@SND
004A                  00923 IN@DEC32
004A   01B1           00924         clrf 49
004B   01B2           00925         clrf 50
004C   01B3           00926         clrf 51
004D   01B4           00927         clrf 52
004E   12A8           00928         bcf 40,5
004F                  00929 IN@DECB32
004F   2147           00930         call CH@RCV
0050   1C03           00931         skpc
0051   0008           00932         return
0052   3ED3           00933         addlw 211
0053   1903           00934         skpnz
0054   16A8           00935         bsf 40,5
0055   3E2D           00936         addlw 45
0056   3EC6           00937         addlw 198
0057   1803           00938         skpnc
0058   284F           00939         goto IN@DECB32
0059   3E0A           00940         addlw 10
005A   1C03           00941         skpc
005B   284F           00942         goto IN@DECB32
005C                  00943 IN@DCL132
005C   00AF           00944         movwf 47
005D   01AE           00945         clrf 46
005E   01AD           00946         clrf 45
005F   01AC           00947         clrf 44
0060   300A           00948         movlw 10
0061   00AB           00949         movwf 43
0062   21A1           00950         call AL@MUL
0063   082F           00951         movf 47,W
0064   072B           00952         addwf 43,W
0065   00B1           00953         movwf 49
0066   082C           00954         movf 44,W
0067   00B2           00955         movwf 50
0068   0103           00956         clrw
0069   1803           00957         skpnc
006A   3001           00958         movlw 1
006B   07B2           00959         addwf 50,F
006C   082D           00960         movf 45,W
006D   00B3           00961         movwf 51
006E   0103           00962         clrw
006F   1803           00963         skpnc
0070   3001           00964         movlw 1
0071   07B3           00965         addwf 51,F
0072   082E           00966         movf 46,W
0073   00B4           00967         movwf 52
0074   0103           00968         clrw
0075   1803           00969         skpnc
0076   3001           00970         movlw 1
0077   07B4           00971         addwf 52,F
0078   03A6           00972         decf 38,F
0079   1903           00973         skpnz
007A   2884           00974         goto IN@BNF32
007B   2147           00975         call CH@RCV
007C   1C03           00976         skpc
007D   0008           00977         return
007E   3EC6           00978         addlw 198
007F   1803           00979         skpnc
0080   2884           00980         goto IN@BNF32
0081   3E0A           00981         addlw 10
0082   1803           00982         skpnc
0083   285C           00983         goto IN@DCL132
0084                  00984 IN@BNF32
0084   1EA8           00985         btfss 40,5
0085   2891           00986         goto $ + 12
0086   09B1           00987         comf 49,F
0087   09B2           00988         comf 50,F
0088   09B3           00989         comf 51,F
0089   09B4           00990         comf 52,F
008A   0AB1           00991         incf 49,F
008B   1903           00992         skpnz
008C   0AB2           00993         incf 50,F
008D   1903           00994         skpnz
008E   0AB3           00995         incf 51,F
008F   1903           00996         skpnz
0090   0AB4           00997         incf 52,F
0091   0831           00998         movf 49,W
0092   1403           00999         setc
0093   29D9           01000         goto I@NT
0094                  01001 OUT@DECB
0094   01A6           01002         clrf 38
0095                  01003 OUT@DECC
0095   00B1           01004         movwf 49
0096   01B2           01005         clrf 50
0097                  01006 OUT@DEC
0097   11A0           01007         bcf 32,3
0098   0826           01008         movf 38,W
0099   1903           01009         skpnz
009A   15A0           01010         bsf 32,3
009B   3005           01011         movlw 5
009C   00A5           01012         movwf 37
009D   3027           01013         movlw 39
009E   00B0           01014         movwf 48
009F   3010           01015         movlw 16
00A0   20AD           01016         call D@DIG
00A1   3003           01017         movlw 3
00A2   00B0           01018         movwf 48
00A3   30E8           01019         movlw 232
00A4   20AD           01020         call D@DIG
00A5   01B0           01021         clrf 48
00A6   3064           01022         movlw 100
00A7   20AD           01023         call D@DIG
00A8   01B0           01024         clrf 48
00A9   300A           01025         movlw 10
00AA   20AD           01026         call D@DIG
00AB   0831           01027         movf 49,W
00AC   28B4           01028         goto SEND@IT
00AD                  01029 D@DIG
00AD   00AF           01030         movwf 47
00AE   0832           01031         movf 50,W
00AF   00AC           01032         movwf 44
00B0   0831           01033         movf 49,W
00B1   00AB           01034         movwf 43
00B2   2185           01035         call D@VD
00B3   082B           01036         movf 43,W
00B4                  01037 SEND@IT
00B4   00AB           01038         movwf 43
00B5   03A5           01039         decf 37,F
00B6   1903           01040         skpnz
00B7   11A0           01041         bcf 32,3
00B8   0826           01042         movf 38,W
00B9   1903           01043         skpnz
00BA   28BE           01044         goto $ + 4
00BB   0225           01045         subwf 37,W
00BC   1803           01046         skpnc
00BD   28C5           01047         goto EX@SEND@IT
00BE   082B           01048         movf 43,W
00BF   1D03           01049         skpz
00C0   11A0           01050         bcf 32,3
00C1   19A0           01051         btfsc 32,3
00C2   28C5           01052         goto EX@SEND@IT
00C3   3E30           01053         addlw 48
00C4   2942           01054         goto CH@SND
00C5                  01055 EX@SEND@IT
00C5   0008           01056         return
00C6                  01057 PRINT
00C6   00B6           01058         movwf 54
00C7   1186           01059         bcf PORTB,3
00C8   1106           01060         bcf PORTB,2
00C9   1683           01061         bsf 3,5
00CA   1186           01062         bcf PORTB,3
00CB   1106           01063         bcf PORTB,2
00CC   300F           01064         movlw 15
00CD   0586           01065         andwf PORTB,F
00CE   1283           01066         bcf 3,5
00CF   0836           01067         movf 54,W
00D0   18A0           01068         btfsc 32,1
00D1   28F0           01069         goto PRT@1
00D2   303E           01070         movlw 62
00D3   00AC           01071         movwf 44
00D4   3080           01072         movlw 128
00D5   2176           01073         call DLUS@W
00D6   3033           01074         movlw 51
00D7   00B5           01075         movwf 53
00D8   2104           01076         call PR@LP
00D9   3013           01077         movlw 19
00DA   00AC           01078         movwf 44
00DB   3088           01079         movlw 136
00DC   2176           01080         call DLUS@W
00DD   2104           01081         call PR@LP
00DE   3064           01082         movlw 100
00DF   2175           01083         call DL@US
00E0   2104           01084         call PR@LP
00E1   3064           01085         movlw 100
00E2   2175           01086         call DL@US
00E3   3022           01087         movlw 34
00E4   00B5           01088         movwf 53
00E5   2104           01089         call PR@LP
00E6   3028           01090         movlw 40
00E7   20EF           01091         call PRT@C
00E8   300C           01092         movlw 12
00E9   20EF           01093         call PRT@C
00EA   3006           01094         movlw 6
00EB   20EF           01095         call PRT@C
00EC   14A0           01096         bsf 32,1
00ED   0836           01097         movf 54,W
00EE   28F0           01098         goto PRT@1
00EF                  01099 PRT@C
00EF   1420           01100         bsf 32,0
00F0                  01101 PRT@1
00F0   00B5           01102         movwf 53
00F1   1C20           01103         btfss 32,0
00F2   28FE           01104         goto PRIT@SKP
00F3   1106           01105         bcf PORTB,2
00F4   3C03           01106         sublw 3
00F5   1C03           01107         skpc
00F6   2903           01108         goto PRT@S
00F7   2103           01109         call PRT@S
00F8   3007           01110         movlw 7
00F9   00AC           01111         movwf 44
00FA   30D0           01112         movlw 208
00FB   2176           01113         call DLUS@W
00FC   1403           01114         bsf 3,0
00FD   0008           01115         return
00FE                  01116 PRIT@SKP
00FE   1420           01117         bsf 32,0
00FF   3CFE           01118         sublw 254
0100   1903           01119         skpnz
0101   2913           01120         goto PR@EX
0102   1506           01121         bsf PORTB,2
0103                  01122 PRT@S
0103   1C20           01123         btfss 32,0
0104                  01124 PR@LP
0104   1020           01125         bcf 32,0
0105   1586           01126         bsf PORTB,3
0106   300F           01127         movlw 15
0107   0586           01128         andwf PORTB,F
0108   0835           01129         movf 53,W
0109   39F0           01130         andlw 240
010A   0486           01131         iorwf PORTB,F
010B   0000           01132         nop
010C   1186           01133         bcf PORTB,3
010D   0EB5           01134         swapf 53,F
010E   0000           01135         nop
010F   1820           01136         btfsc 32,0
0110   2904           01137         goto PR@LP
0111   3032           01138         movlw 50
0112   2175           01139         call DL@US
0113                  01140 PR@EX
0113   0836           01141         movf 54,W
0114   29D9           01142         goto I@NT
0115                  01143 HRSIN2
0115   1898           01144         btfsc 24,PP_OERR
0116   1218           01145         bcf 24,PP_CREN
0117   1618           01146         bsf 24,PP_CREN
0118   0823           01147         movf 35,W
0119   00AB           01148         movwf 43
011A   0827           01149         movf 39,W
011B   00AC           01150         movwf 44
011C   01AF           01151         clrf 47
011D   01B0           01152         clrf 48
011E   291F           01153         goto $ + 1
011F   2920           01154         goto $ + 1
0120                  01155 HRSIN@LPT
0120   0000           01156         nop
0121   1A8C           01157         btfsc 12,PP_RCIF
0122   293A           01158         goto H@RSIN
0123   30FF           01159         movlw 255
0124   07AF           01160         addwf 47,F
0125   1C03           01161         skpc
0126   07B0           01162         addwf 48,F
0127   1C03           01163         skpc
0128   07AB           01164         addwf 43,F
0129   1C03           01165         skpc
012A   07AC           01166         addwf 44,F
012B   1C03           01167         skpc
012C   29D9           01168         goto I@NT
012D   0F2F           01169         incfsz 47,W
012E   291E           01170         goto $ - 16
012F   0F30           01171         incfsz 48,W
0130   291F           01172         goto $ - 17
0131   30FA           01173         movlw 250
0132   00AF           01174         movwf 47
0133   01B0           01175         clrf 48
0134   2920           01176         goto HRSIN@LPT
0135                  01177 HRSIN
0135   1898           01178         btfsc 24,PP_OERR
0136   1218           01179         bcf 24,PP_CREN
0137   1618           01180         bsf 24,PP_CREN
0138   1E8C           01181         btfss 12,PP_RCIF
0139   2938           01182         goto $ - 1
013A                  01183 H@RSIN
013A   081A           01184         movf 26,W
013B   1403           01185         bsf 3,0
013C   29D9           01186         goto I@NT
013D                  01187 HRSOUT
013D   1E0C           01188         btfss 12,PP_TXIF
013E   293D           01189         goto $ - 1
013F   0099           01190         movwf 25
0140   1403           01191         bsf 3,0
0141   29D9           01192         goto I@NT
0142                  01193 CH@SND
0142   1BA1           01194         btfsc 33,7
0143   28C6           01195         goto PRINT
0144   1921           01196         btfsc 33,2
0145   293D           01197         goto HRSOUT
0146   0008           01198         return
0147                  01199 CH@RCV
0147   08C1           01200         movf 65,F
0148   1903           01201         skpnz
0149   2915           01202         goto HRSIN2
014A   0341           01203         decf 65,W
014B   1903           01204         skpnz
014C   2935           01205         goto HRSIN
014D                  01206 C@STROUT
014D   00A5           01207         movwf 37
014E                  01208 C@STROUTW
014E   01A2           01209         clrf 34
014F                  01210 C@STROUTLP
014F   0825           01211         movf 37,W
0150   1703           01212         bsf 3,6
0151   008D           01213         movwf 269
0152   1303           01214         bcf 3,6
0153   0826           01215         movf 38,W
0154   1703           01216         bsf 3,6
0155   008F           01217         movwf 271
0156   2160           01218         call C@READ
0157   1903           01219         skpnz
0158   29D9           01220         goto I@NT
0159   2142           01221         call CH@SND
015A   0AA5           01222         incf 37,F
015B   1903           01223         skpnz
015C   0AA6           01224         incf 38,F
015D   0FA2           01225         incfsz 34,F
015E   294F           01226         goto C@STROUTLP
015F   29D9           01227         goto I@NT
0160                  01228 C@READ
0160   1683           01229         bsf 3,5
0161   1703           01230         bsf 3,6
0162   140C           01231         bsf 396,PP_RD
0163   0000           01232         nop
0164   0000           01233         nop
0165   1283           01234         bcf 3,5
0166   080C           01235         movf 268,W
0167   29D9           01236         goto I@NT
0168                  01237 DL@MS
0168   01B0           01238         clrf 48
0169                  01239 DLY@W
0169   00AF           01240         movwf 47
016A                  01241 DLY@P
016A   30FF           01242         movlw 255
016B   07AF           01243         addwf 47,F
016C   1C03           01244         skpc
016D   07B0           01245         addwf 48,F
016E   1C03           01246         skpc
016F   29D9           01247         goto I@NT
0170   3003           01248         movlw 3
0171   00AC           01249         movwf 44
0172   30E6           01250         movlw 230
0173   2176           01251         call DLUS@W
0174   296A           01252         goto DLY@P
0175                  01253 DL@US
0175   01AC           01254         clrf 44
0176                  01255 DLUS@W
0176   3EFC           01256         addlw 252
0177   00AB           01257         movwf 43
0178   09AC           01258         comf 44,F
0179   1C03           01259         skpc
017A   2981           01260         goto $ + 7
017B   30FF           01261         movlw 255
017C   0000           01262         nop
017D   07AB           01263         addwf 43,F
017E   1803           01264         skpnc
017F   297C           01265         goto $ - 3
0180   07AB           01266         addwf 43,F
0181   0000           01267         nop
0182   0FAC           01268         incfsz 44,F
0183   297B           01269         goto $ - 8
0184   0008           01270         return
0185                  01271 D@VD
0185   01B2           01272         clrf 50
0186   01B1           01273         clrf 49
0187                  01274 D@VD2
0187   3010           01275         movlw 16
0188   00B5           01276         movwf 53
0189   0D2C           01277         rlf 44,W
018A   0DB1           01278         rlf 49,F
018B   0DB2           01279         rlf 50,F
018C   082F           01280         movf 47,W
018D   02B1           01281         subwf 49,F
018E   0830           01282         movf 48,W
018F   1C03           01283         skpc
0190   0F30           01284         incfsz 48,W
0191   02B2           01285         subwf 50,F
0192   1803           01286         skpnc
0193   299B           01287         goto $ + 8
0194   082F           01288         movf 47,W
0195   07B1           01289         addwf 49,F
0196   0830           01290         movf 48,W
0197   1803           01291         skpnc
0198   0F30           01292         incfsz 48,W
0199   07B2           01293         addwf 50,F
019A   1003           01294         bcf 3,0
019B   0DAB           01295         rlf 43,F
019C   0DAC           01296         rlf 44,F
019D   0BB5           01297         decfsz 53,F
019E   2989           01298         goto $ - 21
019F   082B           01299         movf 43,W
01A0   0008           01300         return
01A1                  01301 AL@MUL
01A1   3020           01302         movlw 32
01A2   00B5           01303         movwf 53
01A3   01BD           01304         clrf 61
01A4   01BE           01305         clrf 62
01A5   01BF           01306         clrf 63
01A6   01C0           01307         clrf 64
01A7                  01308 MLT32@LP
01A7   1003           01309         clrc
01A8   1C2B           01310         btfss 43,0
01A9   29B8           01311         goto MLT32@BR
01AA   0831           01312         movf 49,W
01AB   07BD           01313         addwf 61,F
01AC   0832           01314         movf 50,W
01AD   1803           01315         skpnc
01AE   0F32           01316         incfsz 50,W
01AF   07BE           01317         addwf 62,F
01B0   0833           01318         movf 51,W
01B1   1803           01319         skpnc
01B2   0F33           01320         incfsz 51,W
01B3   07BF           01321         addwf 63,F
01B4   0834           01322         movf 52,W
01B5   1803           01323         skpnc
01B6   0F34           01324         incfsz 52,W
01B7   07C0           01325         addwf 64,F
01B8                  01326 MLT32@BR
01B8   0CC0           01327         rrf 64,F
01B9   0CBF           01328         rrf 63,F
01BA   0CBE           01329         rrf 62,F
01BB   0CBD           01330         rrf 61,F
01BC   0CAE           01331         rrf 46,F
01BD   0CAD           01332         rrf 45,F
01BE   0CAC           01333         rrf 44,F
01BF   0CAB           01334         rrf 43,F
01C0   0BB5           01335         decfsz 53,F
01C1   29A7           01336         goto MLT32@LP
01C2   0008           01337         return
01C3                  01338 M@PY
01C3   3010           01339         movlw 16
01C4   00BA           01340         movwf 58
01C5   01AC           01341         clrf 44
01C6   01AB           01342         clrf 43
01C7   0CB6           01343         rrf 54,F
01C8   0CB5           01344         rrf 53,F
01C9   1C03           01345         skpc
01CA   29D1           01346         goto $ + 7
01CB   082F           01347         movf 47,W
01CC   07AB           01348         addwf 43,F
01CD   0830           01349         movf 48,W
01CE   1803           01350         skpnc
01CF   0F30           01351         incfsz 48,W
01D0   07AC           01352         addwf 44,F
01D1   0CAC           01353         rrf 44,F
01D2   0CAB           01354         rrf 43,F
01D3   0CB2           01355         rrf 50,F
01D4   0CB1           01356         rrf 49,F
01D5   0BBA           01357         decfsz 58,F
01D6   29C7           01358         goto $ - 15
01D7   0831           01359         movf 49,W
01D8   0008           01360         return
01D9                  01361 I@NT
01D9   1383           01362         bcf 3,7
01DA                  01363 I@NT2
01DA   1283           01364         bcf 3,5
01DB   1303           01365         bcf 3,6
01DC   0008           01366         return
01DD                  01367 proton#main#start
01DD   0183           01368         clrf 3
01DE   1683           01369         bsf 3,5
01DF   3081           01370         movlw 129
01E0   0099           01371         movwf 153
01E1   3024           01372         movlw 36
01E2   0098           01373         movwf 152
01E3   1283           01374         bcf 3,5
01E4   3090           01375         movlw 144
01E5   0098           01376         movwf 24
01E6   01A0           01377         clrf 32

  000001E7            01380 F2_SOF equ $ ; FUELSYS.PRP
  000001E7            01381 F2_EOF equ $ ; FUELSYS.PRP
  000001E7            01382 F1_SOF equ $ ; FUELSYS.BAS
  000001E7            01383 F1_000021 equ $ ; IN [FUELSYS.BAS] ADCON1 = 7
01E7   3007           01384         movlw 7
01E8   1683           01385         bsf STATUS,5
  00000001            01386 ram_bank = 1
01E9   009F           01387         movwf ADCON1
  000001EA            01388 F1_000022 equ $ ; IN [FUELSYS.BAS] CLS
01EA   1283           01389         bcf STATUS,5
  00000000            01390 ram_bank = 0
                      01391         f@call LCD@CLS
  000001ED            01392 F1_000029 equ $ ; IN [FUELSYS.BAS] INPUT IR_1 : INPUT hi_level
01ED   1683           01393         bsf STATUS,5
  00000001            01394 ram_bank = 1
01EE   1406           01395         bsf TRISB,0
01EF   1607           01396         bsf TRISC,4
  000001F0            01397 F1_000030 equ $ ; IN [FUELSYS.BAS] INPUT lo_level
01F0   1687           01398         bsf TRISC,5
  000001F1            01399 F1_000031 equ $ ; IN [FUELSYS.BAS] OUTPUT motor : OUTPUT pump
01F1   1005           01400         bcf TRISA,0
01F2   1285           01401         bcf TRISA,5
  000001F3            01402 F1_000050 equ $ ; IN [FUELSYS.BAS] pump = 0 : motor = 0
01F3   1283           01403         bcf STATUS,5
  00000000            01404 ram_bank = 0
01F4   1285           01405         bcf PORTA,5
01F5   1005           01406         bcf PORTA,0
  000001F6            01407 F1_000051 equ $ ; IN [FUELSYS.BAS] bill = 0 : oil_q = 0
01F6   01C9           01408         clrf bill
01F7   01C8           01409         clrf oil_q
  000001F8            01410 F1_000054 equ $ ; IN [FUELSYS.BAS] STR pass_1 = "12341234"
01F8   3031           01411         movlw 49
01F9   00D0           01412         movwf pass_1#0
01FA   3032           01413         movlw 50
01FB   00D1           01414         movwf pass_1#1
01FC   3033           01415         movlw 51
01FD   00D2           01416         movwf pass_1#2
01FE   3034           01417         movlw 52
01FF   00D3           01418         movwf pass_1#3
0200   3031           01419         movlw 49
0201   00D4           01420         movwf pass_1#4
0202   3032           01421         movlw 50
0203   00D5           01422         movwf pass_1#5
0204   3033           01423         movlw 51
0205   00D6           01424         movwf pass_1#6
0206   3034           01425         movlw 52
0207   00D7           01426         movwf pass_1#7
  00000208            01427 F1_000055 equ $ ; IN [FUELSYS.BAS] STR pass_2 = "ABCDABCD"
0208   3041           01428         movlw 65
0209   00D8           01429         movwf pass_2#0
020A   3042           01430         movlw 66
020B   00D9           01431         movwf pass_2#1
020C   3043           01432         movlw 67
020D   00DA           01433         movwf pass_2#2
020E   3044           01434         movlw 68
020F   00DB           01435         movwf pass_2#3
0210   3041           01436         movlw 65
0211   00DC           01437         movwf pass_2#4
0212   3042           01438         movlw 66
0213   00DD           01439         movwf pass_2#5
0214   3043           01440         movlw 67
0215   00DE           01441         movwf pass_2#6
0216   3044           01442         movlw 68
0217   00DF           01443         movwf pass_2#7
  00000218            01444 F1_000056 equ $ ; IN [FUELSYS.BAS] STR pass_3 = "ABCD1234"
0218   3041           01445         movlw 65
0219   00E0           01446         movwf pass_3#0
021A   3042           01447         movlw 66
021B   00E1           01448         movwf pass_3#1
021C   3043           01449         movlw 67
021D   00E2           01450         movwf pass_3#2
021E   3044           01451         movlw 68
021F   00E3           01452         movwf pass_3#3
0220   3031           01453         movlw 49
0221   00E4           01454         movwf pass_3#4
0222   3032           01455         movlw 50
0223   00E5           01456         movwf pass_3#5
0224   3033           01457         movlw 51
0225   00E6           01458         movwf pass_3#6
0226   3034           01459         movlw 52
0227   00E7           01460         movwf pass_3#7
  00000228            01461 F1_000057 equ $ ; IN [FUELSYS.BAS] STR pass_4 = "1234ABCD"
0228   3031           01462         movlw 49
0229   00E8           01463         movwf pass_4#0
022A   3032           01464         movlw 50
022B   00E9           01465         movwf pass_4#1
022C   3033           01466         movlw 51
022D   00EA           01467         movwf pass_4#2
022E   3034           01468         movlw 52
022F   00EB           01469         movwf pass_4#3
0230   3041           01470         movlw 65
0231   00EC           01471         movwf pass_4#4
0232   3042           01472         movlw 66
0233   00ED           01473         movwf pass_4#5
0234   3043           01474         movlw 67
0235   00EE           01475         movwf pass_4#6
0236   3044           01476         movlw 68
0237   00EF           01477         movwf pass_4#7
  00000238            01478 F1_000058 equ $ ; IN [FUELSYS.BAS] STR pass_5 = "123A456B"
0238   3031           01479         movlw 49
0239   00F0           01480         movwf pass_5#0
023A   3032           01481         movlw 50
023B   00F1           01482         movwf pass_5#1
023C   3033           01483         movlw 51
023D   00F2           01484         movwf pass_5#2
023E   3041           01485         movlw 65
023F   00F3           01486         movwf pass_5#3
0240   3034           01487         movlw 52
0241   00F4           01488         movwf pass_5#4
0242   3035           01489         movlw 53
0243   00F5           01490         movwf pass_5#5
0244   3036           01491         movlw 54
0245   00F6           01492         movwf pass_5#6
0246   3042           01493         movlw 66
0247   00F7           01494         movwf pass_5#7
  00000248            01495 F1_000060 equ $ ; IN [FUELSYS.BAS] Card_ID[1] = $FF
0248   30FF           01496         movlw 255
0249   00CF           01497         movwf Card_ID#1
  0000024A            01498 F3_SOF equ $ ; KEYPAD4X4.INC
024A                  01499 checking
  0000024A            01500 F3_000022 equ $ ; IN [KEYPAD4X4.INC] INPUT row_1 : INPUT row_2 : INPUT row_3 : INPUT row_4
024A   1683           01501         bsf STATUS,5
  00000001            01502 ram_bank = 1
024B   1605           01503         bsf TRISA,4
024C   1585           01504         bsf TRISA,3
024D   1505           01505         bsf TRISA,2
024E   1485           01506         bsf TRISA,1
  0000024F            01507 F3_000023 equ $ ; IN [KEYPAD4X4.INC] OUTPUT col_1 : OUTPUT col_2 : OUTPUT col_3 : OUTPUT col_4
024F   1187           01508         bcf TRISC,3
0250   1107           01509         bcf TRISC,2
0251   1087           01510         bcf TRISC,1
0252   1007           01511         bcf TRISC,0
  00000253            01512 F3_000027 equ $ ; IN [KEYPAD4X4.INC] GOSUB default
0253   1283           01513         bcf STATUS,5
  00000000            01514 ram_bank = 0
                      01515         f@call default
0256                  01516 capture_key
  00000256            01517 F3_000030 equ $ ; IN [KEYPAD4X4.INC] key_value = 0 : key = 0
0256   1683           01518         bsf STATUS,5
  00000001            01519 ram_bank = 1
0257   01A1           01520         clrf key_value
0258   01A0           01521         clrf key
  00000259            01522 F3_000031 equ $ ; IN [KEYPAD4X4.INC] REPEAT
0259                  01523 BC@LL1
0259   1283           01524         bcf STATUS,5
  00000000            01525 ram_bank = 0
  0000025A            01526 F3_000032 equ $ ; IN [KEYPAD4X4.INC] col_1 = 1 : col_2 = 0 : col_3 = 0 : col_4 = 0
025A   1587           01527         bsf PORTC,3
025B   1107           01528         bcf PORTC,2
025C   1087           01529         bcf PORTC,1
025D   1007           01530         bcf PORTC,0
  0000025E            01531 F3_000033 equ $ ; IN [KEYPAD4X4.INC] DELAYMS 1
025E   3001           01532         movlw 1
                      01533         f@call DL@MS
  00000261            01534 F3_000034 equ $ ; IN [KEYPAD4X4.INC] if row_1 = 1 THEN
                      01535         set@page BC@LL5
0262   1E05           01536         btfss PORTA,4
0263   2A6C           01537         goto BC@LL5
  00000264            01538 F3_000035 equ $ ; IN [KEYPAD4X4.INC] key = 1 : GOSUB get_code
0264   3001           01539         movlw 1
0265   1683           01540         bsf STATUS,5
  00000001            01541 ram_bank = 1
0266   00A0           01542         movwf key
0267   1283           01543         bcf STATUS,5
  00000000            01544 ram_bank = 0
                      01545         f@call get_code
                      01546         F@JUMP BC@LL4
  0000026C            01547 F3_000036 equ $ ; IN [KEYPAD4X4.INC] ELSEIF row_2 = 1 THEN
026C                  01548 BC@LL5
                      01549         set@page BC@LL6
026D   1D85           01550         btfss PORTA,3
026E   2A77           01551         goto BC@LL6
  0000026F            01552 F3_000037 equ $ ; IN [KEYPAD4X4.INC] key = 2 : GOSUB get_code
026F   3002           01553         movlw 2
0270   1683           01554         bsf STATUS,5
  00000001            01555 ram_bank = 1
0271   00A0           01556         movwf key
0272   1283           01557         bcf STATUS,5
  00000000            01558 ram_bank = 0
                      01559         f@call get_code
                      01560         F@JUMP BC@LL4
  00000277            01561 F3_000038 equ $ ; IN [KEYPAD4X4.INC] ELSEIF row_3 = 1 THEN
0277                  01562 BC@LL6
                      01563         set@page BC@LL7
0278   1D05           01564         btfss PORTA,2
0279   2A82           01565         goto BC@LL7
  0000027A            01566 F3_000039 equ $ ; IN [KEYPAD4X4.INC] key = 3 : GOSUB get_code
027A   3003           01567         movlw 3
027B   1683           01568         bsf STATUS,5
  00000001            01569 ram_bank = 1
027C   00A0           01570         movwf key
027D   1283           01571         bcf STATUS,5
  00000000            01572 ram_bank = 0
                      01573         f@call get_code
                      01574         F@JUMP BC@LL4
  00000282            01575 F3_000040 equ $ ; IN [KEYPAD4X4.INC] ELSEIF row_4 = 1 THEN
0282                  01576 BC@LL7
                      01577         set@page BC@LL8
0283   1C85           01578         btfss PORTA,1
0284   2A8B           01579         goto BC@LL8
  00000285            01580 F3_000041 equ $ ; IN [KEYPAD4X4.INC] key = 4 : GOSUB get_code
0285   3004           01581         movlw 4
0286   1683           01582         bsf STATUS,5
  00000001            01583 ram_bank = 1
0287   00A0           01584         movwf key
0288   1283           01585         bcf STATUS,5
  00000000            01586 ram_bank = 0
                      01587         f@call get_code
  0000028B            01588 F3_000042 equ $ ; IN [KEYPAD4X4.INC] endif
028B                  01589 BC@LL8
028B                  01590 BC@LL4
  0000028B            01591 F3_000043 equ $ ; IN [KEYPAD4X4.INC] col_1 = 0 : col_2 = 1 : col_3 = 0 : col_4 = 0
028B   1187           01592         bcf PORTC,3
028C   1507           01593         bsf PORTC,2
028D   1087           01594         bcf PORTC,1
028E   1007           01595         bcf PORTC,0
  0000028F            01596 F3_000044 equ $ ; IN [KEYPAD4X4.INC] DELAYMS 1
028F   3001           01597         movlw 1
                      01598         f@call DL@MS
  00000292            01599 F3_000045 equ $ ; IN [KEYPAD4X4.INC] if row_1 = 1 THEN
                      01600         set@page BC@LL10
0293   1E05           01601         btfss PORTA,4
0294   2A9D           01602         goto BC@LL10
  00000295            01603 F3_000046 equ $ ; IN [KEYPAD4X4.INC] key = 5 : GOSUB get_code
0295   3005           01604         movlw 5
0296   1683           01605         bsf STATUS,5
  00000001            01606 ram_bank = 1
0297   00A0           01607         movwf key
0298   1283           01608         bcf STATUS,5
  00000000            01609 ram_bank = 0
                      01610         f@call get_code
                      01611         F@JUMP BC@LL9
  0000029D            01612 F3_000047 equ $ ; IN [KEYPAD4X4.INC] ELSEIF row_2 = 1 THEN
029D                  01613 BC@LL10
                      01614         set@page BC@LL11
029E   1D85           01615         btfss PORTA,3
029F   2AA8           01616         goto BC@LL11
  000002A0            01617 F3_000048 equ $ ; IN [KEYPAD4X4.INC] key = 6 : GOSUB get_code
02A0   3006           01618         movlw 6
02A1   1683           01619         bsf STATUS,5
  00000001            01620 ram_bank = 1
02A2   00A0           01621         movwf key
02A3   1283           01622         bcf STATUS,5
  00000000            01623 ram_bank = 0
                      01624         f@call get_code
                      01625         F@JUMP BC@LL9
  000002A8            01626 F3_000049 equ $ ; IN [KEYPAD4X4.INC] ELSEIF row_3 = 1 THEN
02A8                  01627 BC@LL11
                      01628         set@page BC@LL12
02A9   1D05           01629         btfss PORTA,2
02AA   2AB3           01630         goto BC@LL12
  000002AB            01631 F3_000050 equ $ ; IN [KEYPAD4X4.INC] key = 7 : GOSUB get_code
02AB   3007           01632         movlw 7
02AC   1683           01633         bsf STATUS,5
  00000001            01634 ram_bank = 1
02AD   00A0           01635         movwf key
02AE   1283           01636         bcf STATUS,5
  00000000            01637 ram_bank = 0
                      01638         f@call get_code
                      01639         F@JUMP BC@LL9
  000002B3            01640 F3_000051 equ $ ; IN [KEYPAD4X4.INC] ELSEIF row_4 = 1 THEN
02B3                  01641 BC@LL12
                      01642         set@page BC@LL13
02B4   1C85           01643         btfss PORTA,1
02B5   2ABC           01644         goto BC@LL13
  000002B6            01645 F3_000052 equ $ ; IN [KEYPAD4X4.INC] key = 8 : GOSUB get_code
02B6   3008           01646         movlw 8
02B7   1683           01647         bsf STATUS,5
  00000001            01648 ram_bank = 1
02B8   00A0           01649         movwf key
02B9   1283           01650         bcf STATUS,5
  00000000            01651 ram_bank = 0
                      01652         f@call get_code
  000002BC            01653 F3_000053 equ $ ; IN [KEYPAD4X4.INC] endif
02BC                  01654 BC@LL13
02BC                  01655 BC@LL9
  000002BC            01656 F3_000054 equ $ ; IN [KEYPAD4X4.INC] col_1 = 0 : col_2 = 0 : col_3 = 1 : col_4 = 0
02BC   1187           01657         bcf PORTC,3
02BD   1107           01658         bcf PORTC,2
02BE   1487           01659         bsf PORTC,1
02BF   1007           01660         bcf PORTC,0
  000002C0            01661 F3_000055 equ $ ; IN [KEYPAD4X4.INC] DELAYMS 1
02C0   3001           01662         movlw 1
                      01663         f@call DL@MS
  000002C3            01664 F3_000056 equ $ ; IN [KEYPAD4X4.INC] if row_1 = 1 THEN
                      01665         set@page BC@LL15
02C4   1E05           01666         btfss PORTA,4
02C5   2ACE           01667         goto BC@LL15
  000002C6            01668 F3_000057 equ $ ; IN [KEYPAD4X4.INC] key = 9 : GOSUB get_code
02C6   3009           01669         movlw 9
02C7   1683           01670         bsf STATUS,5
  00000001            01671 ram_bank = 1
02C8   00A0           01672         movwf key
02C9   1283           01673         bcf STATUS,5
  00000000            01674 ram_bank = 0
                      01675         f@call get_code
                      01676         F@JUMP BC@LL14
  000002CE            01677 F3_000058 equ $ ; IN [KEYPAD4X4.INC] ELSEIF row_2 = 1 THEN
02CE                  01678 BC@LL15
                      01679         set@page BC@LL16
02CF   1D85           01680         btfss PORTA,3
02D0   2AD9           01681         goto BC@LL16
  000002D1            01682 F3_000059 equ $ ; IN [KEYPAD4X4.INC] key = 10 : GOSUB get_code
02D1   300A           01683         movlw 10
02D2   1683           01684         bsf STATUS,5
  00000001            01685 ram_bank = 1
02D3   00A0           01686         movwf key
02D4   1283           01687         bcf STATUS,5
  00000000            01688 ram_bank = 0
                      01689         f@call get_code
                      01690         F@JUMP BC@LL14
  000002D9            01691 F3_000060 equ $ ; IN [KEYPAD4X4.INC] ELSEIF row_3 = 1 THEN
02D9                  01692 BC@LL16
                      01693         set@page BC@LL17
02DA   1D05           01694         btfss PORTA,2
02DB   2AE4           01695         goto BC@LL17
  000002DC            01696 F3_000061 equ $ ; IN [KEYPAD4X4.INC] key = 11 : GOSUB get_code
02DC   300B           01697         movlw 11
02DD   1683           01698         bsf STATUS,5
  00000001            01699 ram_bank = 1
02DE   00A0           01700         movwf key
02DF   1283           01701         bcf STATUS,5
  00000000            01702 ram_bank = 0
                      01703         f@call get_code
                      01704         F@JUMP BC@LL14
  000002E4            01705 F3_000062 equ $ ; IN [KEYPAD4X4.INC] ELSEIF row_4 = 1 THEN
02E4                  01706 BC@LL17
                      01707         set@page BC@LL18
02E5   1C85           01708         btfss PORTA,1
02E6   2AED           01709         goto BC@LL18
  000002E7            01710 F3_000063 equ $ ; IN [KEYPAD4X4.INC] key = 12 : GOSUB get_code
02E7   300C           01711         movlw 12
02E8   1683           01712         bsf STATUS,5
  00000001            01713 ram_bank = 1
02E9   00A0           01714         movwf key
02EA   1283           01715         bcf STATUS,5
  00000000            01716 ram_bank = 0
                      01717         f@call get_code
  000002ED            01718 F3_000064 equ $ ; IN [KEYPAD4X4.INC] endif
02ED                  01719 BC@LL18
02ED                  01720 BC@LL14
  000002ED            01721 F3_000065 equ $ ; IN [KEYPAD4X4.INC] col_1 = 0 : col_2 = 0 : col_3 = 0 : col_4 = 1
02ED   1187           01722         bcf PORTC,3
02EE   1107           01723         bcf PORTC,2
02EF   1087           01724         bcf PORTC,1
02F0   1407           01725         bsf PORTC,0
  000002F1            01726 F3_000066 equ $ ; IN [KEYPAD4X4.INC] DELAYMS 1
02F1   3001           01727         movlw 1
                      01728         f@call DL@MS
  000002F4            01729 F3_000067 equ $ ; IN [KEYPAD4X4.INC] if row_1 = 1 THEN
                      01730         set@page BC@LL20
02F5   1E05           01731         btfss PORTA,4
02F6   2AFF           01732         goto BC@LL20
  000002F7            01733 F3_000068 equ $ ; IN [KEYPAD4X4.INC] key = 13 : GOSUB get_code
02F7   300D           01734         movlw 13
02F8   1683           01735         bsf STATUS,5
  00000001            01736 ram_bank = 1
02F9   00A0           01737         movwf key
02FA   1283           01738         bcf STATUS,5
  00000000            01739 ram_bank = 0
                      01740         f@call get_code
                      01741         F@JUMP BC@LL19
  000002FF            01742 F3_000069 equ $ ; IN [KEYPAD4X4.INC] ELSEIF row_2 = 1 THEN
02FF                  01743 BC@LL20
                      01744         set@page BC@LL21
0300   1D85           01745         btfss PORTA,3
0301   2B0A           01746         goto BC@LL21
  00000302            01747 F3_000070 equ $ ; IN [KEYPAD4X4.INC] key = 14 : GOSUB get_code
0302   300E           01748         movlw 14
0303   1683           01749         bsf STATUS,5
  00000001            01750 ram_bank = 1
0304   00A0           01751         movwf key
0305   1283           01752         bcf STATUS,5
  00000000            01753 ram_bank = 0
                      01754         f@call get_code
                      01755         F@JUMP BC@LL19
  0000030A            01756 F3_000071 equ $ ; IN [KEYPAD4X4.INC] ELSEIF row_3 = 1 THEN
030A                  01757 BC@LL21
                      01758         set@page BC@LL22
030B   1D05           01759         btfss PORTA,2
030C   2B15           01760         goto BC@LL22
  0000030D            01761 F3_000072 equ $ ; IN [KEYPAD4X4.INC] key = 15 : GOSUB get_code
030D   300F           01762         movlw 15
030E   1683           01763         bsf STATUS,5
  00000001            01764 ram_bank = 1
030F   00A0           01765         movwf key
0310   1283           01766         bcf STATUS,5
  00000000            01767 ram_bank = 0
                      01768         f@call get_code
                      01769         F@JUMP BC@LL19
  00000315            01770 F3_000073 equ $ ; IN [KEYPAD4X4.INC] ELSEIF row_4 = 1 THEN
0315                  01771 BC@LL22
                      01772         set@page BC@LL23
0316   1C85           01773         btfss PORTA,1
0317   2B1E           01774         goto BC@LL23
  00000318            01775 F3_000074 equ $ ; IN [KEYPAD4X4.INC] key = 16 : GOSUB get_code
0318   3010           01776         movlw 16
0319   1683           01777         bsf STATUS,5
  00000001            01778 ram_bank = 1
031A   00A0           01779         movwf key
031B   1283           01780         bcf STATUS,5
  00000000            01781 ram_bank = 0
                      01782         f@call get_code
  0000031E            01783 F3_000075 equ $ ; IN [KEYPAD4X4.INC] endif
031E                  01784 BC@LL23
031E                  01785 BC@LL19
031E                  01786 BC@LL3
  0000031E            01787 F3_000076 equ $ ; IN [KEYPAD4X4.INC] UNTIL key != 0
031E   1683           01788         bsf STATUS,5
  00000001            01789 ram_bank = 1
031F   08A0           01790         movf key,F
                      01791         set@page BC@LL1
0321   1283           01792         bcf STATUS,5
  00000000            01793 ram_bank = 0
0322   1903           01794         btfsc STATUS,2
0323   2A59           01795         goto BC@LL1
0324                  01796 BC@LL2
  00000324            01797 F3_000077 equ $ ; IN [KEYPAD4X4.INC] return
0324   0008           01798         return
0325                  01799 get_code
  00000325            01800 F3_000080 equ $ ; IN [KEYPAD4X4.INC] SELECT key
  00000325            01801 F3_000081 equ $ ; IN [KEYPAD4X4.INC] CASE 0 : key_value = 0 : return
0325   1683           01802         bsf STATUS,5
  00000001            01803 ram_bank = 1
0326   08A0           01804         movf key,F
                      01805         set@page BC@LL25
0328   1283           01806         bcf STATUS,5
  00000000            01807 ram_bank = 0
0329   1D03           01808         btfss STATUS,2
032A   2B31           01809         goto BC@LL25
  00000000            01810 ram_bank = 0
032B   1683           01811         bsf STATUS,5
  00000001            01812 ram_bank = 1
032C   01A1           01813         clrf key_value
032D   1283           01814         bcf STATUS,5
  00000000            01815 ram_bank = 0
032E   0008           01816         return
                      01817         F@JUMP BC@LL24
0331                  01818 BC@LL25
  00000331            01819 F3_000082 equ $ ; IN [KEYPAD4X4.INC] CASE 1 : key_value = "1" : DELAYMS 500
0331   3001           01820         movlw 1
0332   1683           01821         bsf STATUS,5
  00000001            01822 ram_bank = 1
0333   0220           01823         subwf key,W
                      01824         set@page BC@LL28
0335   1283           01825         bcf STATUS,5
  00000000            01826 ram_bank = 0
0336   1D03           01827         btfss STATUS,2
0337   2B43           01828         goto BC@LL28
  00000000            01829 ram_bank = 0
0338   3031           01830         movlw 49
0339   1683           01831         bsf STATUS,5
  00000001            01832 ram_bank = 1
033A   00A1           01833         movwf key_value
033B   3001           01834         movlw 1
033C   1283           01835         bcf STATUS,5
  00000000            01836 ram_bank = 0
033D   00B0           01837         movwf PP1H
033E   30F4           01838         movlw 244
                      01839         f@call DLY@W
                      01840         F@JUMP BC@LL24
0343                  01841 BC@LL28
  00000343            01842 F3_000083 equ $ ; IN [KEYPAD4X4.INC] CASE 2 : key_value = "2" : DELAYMS 500
0343   3002           01843         movlw 2
0344   1683           01844         bsf STATUS,5
  00000001            01845 ram_bank = 1
0345   0220           01846         subwf key,W
                      01847         set@page BC@LL30
0347   1283           01848         bcf STATUS,5
  00000000            01849 ram_bank = 0
0348   1D03           01850         btfss STATUS,2
0349   2B55           01851         goto BC@LL30
  00000000            01852 ram_bank = 0
034A   3032           01853         movlw 50
034B   1683           01854         bsf STATUS,5
  00000001            01855 ram_bank = 1
034C   00A1           01856         movwf key_value
034D   3001           01857         movlw 1
034E   1283           01858         bcf STATUS,5
  00000000            01859 ram_bank = 0
034F   00B0           01860         movwf PP1H
0350   30F4           01861         movlw 244
                      01862         f@call DLY@W
                      01863         F@JUMP BC@LL24
0355                  01864 BC@LL30
  00000355            01865 F3_000084 equ $ ; IN [KEYPAD4X4.INC] CASE 3 : key_value = "3" : DELAYMS 500
0355   3003           01866         movlw 3
0356   1683           01867         bsf STATUS,5
  00000001            01868 ram_bank = 1
0357   0220           01869         subwf key,W
                      01870         set@page BC@LL32
0359   1283           01871         bcf STATUS,5
  00000000            01872 ram_bank = 0
035A   1D03           01873         btfss STATUS,2
035B   2B67           01874         goto BC@LL32
  00000000            01875 ram_bank = 0
035C   3033           01876         movlw 51
035D   1683           01877         bsf STATUS,5
  00000001            01878 ram_bank = 1
035E   00A1           01879         movwf key_value
035F   3001           01880         movlw 1
0360   1283           01881         bcf STATUS,5
  00000000            01882 ram_bank = 0
0361   00B0           01883         movwf PP1H
0362   30F4           01884         movlw 244
                      01885         f@call DLY@W
                      01886         F@JUMP BC@LL24
0367                  01887 BC@LL32
  00000367            01888 F3_000085 equ $ ; IN [KEYPAD4X4.INC] CASE 4 : key_value = "A" : DELAYMS 500
0367   3004           01889         movlw 4
0368   1683           01890         bsf STATUS,5
  00000001            01891 ram_bank = 1
0369   0220           01892         subwf key,W
                      01893         set@page BC@LL34
036B   1283           01894         bcf STATUS,5
  00000000            01895 ram_bank = 0
036C   1D03           01896         btfss STATUS,2
036D   2B79           01897         goto BC@LL34
  00000000            01898 ram_bank = 0
036E   3041           01899         movlw 65
036F   1683           01900         bsf STATUS,5
  00000001            01901 ram_bank = 1
0370   00A1           01902         movwf key_value
0371   3001           01903         movlw 1
0372   1283           01904         bcf STATUS,5
  00000000            01905 ram_bank = 0
0373   00B0           01906         movwf PP1H
0374   30F4           01907         movlw 244
                      01908         f@call DLY@W
                      01909         F@JUMP BC@LL24
0379                  01910 BC@LL34
  00000379            01911 F3_000086 equ $ ; IN [KEYPAD4X4.INC] CASE 5 : key_value = "4" : DELAYMS 500
0379   3005           01912         movlw 5
037A   1683           01913         bsf STATUS,5
  00000001            01914 ram_bank = 1
037B   0220           01915         subwf key,W
                      01916         set@page BC@LL36
037D   1283           01917         bcf STATUS,5
  00000000            01918 ram_bank = 0
037E   1D03           01919         btfss STATUS,2
037F   2B8B           01920         goto BC@LL36
  00000000            01921 ram_bank = 0
0380   3034           01922         movlw 52
0381   1683           01923         bsf STATUS,5
  00000001            01924 ram_bank = 1
0382   00A1           01925         movwf key_value
0383   3001           01926         movlw 1
0384   1283           01927         bcf STATUS,5
  00000000            01928 ram_bank = 0
0385   00B0           01929         movwf PP1H
0386   30F4           01930         movlw 244
                      01931         f@call DLY@W
                      01932         F@JUMP BC@LL24
038B                  01933 BC@LL36
  0000038B            01934 F3_000087 equ $ ; IN [KEYPAD4X4.INC] CASE 6 : key_value = "5" : DELAYMS 500
038B   3006           01935         movlw 6
038C   1683           01936         bsf STATUS,5
  00000001            01937 ram_bank = 1
038D   0220           01938         subwf key,W
                      01939         set@page BC@LL38
038F   1283           01940         bcf STATUS,5
  00000000            01941 ram_bank = 0
0390   1D03           01942         btfss STATUS,2
0391   2B9D           01943         goto BC@LL38
  00000000            01944 ram_bank = 0
0392   3035           01945         movlw 53
0393   1683           01946         bsf STATUS,5
  00000001            01947 ram_bank = 1
0394   00A1           01948         movwf key_value
0395   3001           01949         movlw 1
0396   1283           01950         bcf STATUS,5
  00000000            01951 ram_bank = 0
0397   00B0           01952         movwf PP1H
0398   30F4           01953         movlw 244
                      01954         f@call DLY@W
                      01955         F@JUMP BC@LL24
039D                  01956 BC@LL38
  0000039D            01957 F3_000088 equ $ ; IN [KEYPAD4X4.INC] CASE 7 : key_value = "6" : DELAYMS 500
039D   3007           01958         movlw 7
039E   1683           01959         bsf STATUS,5
  00000001            01960 ram_bank = 1
039F   0220           01961         subwf key,W
                      01962         set@page BC@LL40
03A1   1283           01963         bcf STATUS,5
  00000000            01964 ram_bank = 0
03A2   1D03           01965         btfss STATUS,2
03A3   2BAF           01966         goto BC@LL40
  00000000            01967 ram_bank = 0
03A4   3036           01968         movlw 54
03A5   1683           01969         bsf STATUS,5
  00000001            01970 ram_bank = 1
03A6   00A1           01971         movwf key_value
03A7   3001           01972         movlw 1
03A8   1283           01973         bcf STATUS,5
  00000000            01974 ram_bank = 0
03A9   00B0           01975         movwf PP1H
03AA   30F4           01976         movlw 244
                      01977         f@call DLY@W
                      01978         F@JUMP BC@LL24
03AF                  01979 BC@LL40
  000003AF            01980 F3_000089 equ $ ; IN [KEYPAD4X4.INC] CASE 8 : key_value = "B" : DELAYMS 500
03AF   3008           01981         movlw 8
03B0   1683           01982         bsf STATUS,5
  00000001            01983 ram_bank = 1
03B1   0220           01984         subwf key,W
                      01985         set@page BC@LL42
03B3   1283           01986         bcf STATUS,5
  00000000            01987 ram_bank = 0
03B4   1D03           01988         btfss STATUS,2
03B5   2BC1           01989         goto BC@LL42
  00000000            01990 ram_bank = 0
03B6   3042           01991         movlw 66
03B7   1683           01992         bsf STATUS,5
  00000001            01993 ram_bank = 1
03B8   00A1           01994         movwf key_value
03B9   3001           01995         movlw 1
03BA   1283           01996         bcf STATUS,5
  00000000            01997 ram_bank = 0
03BB   00B0           01998         movwf PP1H
03BC   30F4           01999         movlw 244
                      02000         f@call DLY@W
                      02001         F@JUMP BC@LL24
03C1                  02002 BC@LL42
  000003C1            02003 F3_000090 equ $ ; IN [KEYPAD4X4.INC] CASE 9 : key_value = "7" : DELAYMS 500
03C1   3009           02004         movlw 9
03C2   1683           02005         bsf STATUS,5
  00000001            02006 ram_bank = 1
03C3   0220           02007         subwf key,W
                      02008         set@page BC@LL44
03C5   1283           02009         bcf STATUS,5
  00000000            02010 ram_bank = 0
03C6   1D03           02011         btfss STATUS,2
03C7   2BD3           02012         goto BC@LL44
  00000000            02013 ram_bank = 0
03C8   3037           02014         movlw 55
03C9   1683           02015         bsf STATUS,5
  00000001            02016 ram_bank = 1
03CA   00A1           02017         movwf key_value
03CB   3001           02018         movlw 1
03CC   1283           02019         bcf STATUS,5
  00000000            02020 ram_bank = 0
03CD   00B0           02021         movwf PP1H
03CE   30F4           02022         movlw 244
                      02023         f@call DLY@W
                      02024         F@JUMP BC@LL24
03D3                  02025 BC@LL44
  000003D3            02026 F3_000091 equ $ ; IN [KEYPAD4X4.INC] CASE 10 : key_value = "8" : DELAYMS 500
03D3   300A           02027         movlw 10
03D4   1683           02028         bsf STATUS,5
  00000001            02029 ram_bank = 1
03D5   0220           02030         subwf key,W
                      02031         set@page BC@LL46
03D7   1283           02032         bcf STATUS,5
  00000000            02033 ram_bank = 0
03D8   1D03           02034         btfss STATUS,2
03D9   2BE5           02035         goto BC@LL46
  00000000            02036 ram_bank = 0
03DA   3038           02037         movlw 56
03DB   1683           02038         bsf STATUS,5
  00000001            02039 ram_bank = 1
03DC   00A1           02040         movwf key_value
03DD   3001           02041         movlw 1
03DE   1283           02042         bcf STATUS,5
  00000000            02043 ram_bank = 0
03DF   00B0           02044         movwf PP1H
03E0   30F4           02045         movlw 244
                      02046         f@call DLY@W
                      02047         F@JUMP BC@LL24
03E5                  02048 BC@LL46
  000003E5            02049 F3_000092 equ $ ; IN [KEYPAD4X4.INC] CASE 11 : key_value = "9" : DELAYMS 500
03E5   300B           02050         movlw 11
03E6   1683           02051         bsf STATUS,5
  00000001            02052 ram_bank = 1
03E7   0220           02053         subwf key,W
                      02054         set@page BC@LL48
03E9   1283           02055         bcf STATUS,5
  00000000            02056 ram_bank = 0
03EA   1D03           02057         btfss STATUS,2
03EB   2BF7           02058         goto BC@LL48
  00000000            02059 ram_bank = 0
03EC   3039           02060         movlw 57
03ED   1683           02061         bsf STATUS,5
  00000001            02062 ram_bank = 1
03EE   00A1           02063         movwf key_value
03EF   3001           02064         movlw 1
03F0   1283           02065         bcf STATUS,5
  00000000            02066 ram_bank = 0
03F1   00B0           02067         movwf PP1H
03F2   30F4           02068         movlw 244
                      02069         f@call DLY@W
                      02070         F@JUMP BC@LL24
03F7                  02071 BC@LL48
  000003F7            02072 F3_000093 equ $ ; IN [KEYPAD4X4.INC] CASE 12 : key_value = "C" : DELAYMS 500
03F7   300C           02073         movlw 12
03F8   1683           02074         bsf STATUS,5
  00000001            02075 ram_bank = 1
03F9   0220           02076         subwf key,W
                      02077         set@page BC@LL50
03FB   1283           02078         bcf STATUS,5
  00000000            02079 ram_bank = 0
03FC   1D03           02080         btfss STATUS,2
03FD   2C09           02081         goto BC@LL50
  00000000            02082 ram_bank = 0
03FE   3043           02083         movlw 67
03FF   1683           02084         bsf STATUS,5
  00000001            02085 ram_bank = 1
0400   00A1           02086         movwf key_value
0401   3001           02087         movlw 1
0402   1283           02088         bcf STATUS,5
  00000000            02089 ram_bank = 0
0403   00B0           02090         movwf PP1H
0404   30F4           02091         movlw 244
                      02092         f@call DLY@W
                      02093         F@JUMP BC@LL24
0409                  02094 BC@LL50
  00000409            02095 F3_000094 equ $ ; IN [KEYPAD4X4.INC] CASE 13 : key_value = "*" : DELAYMS 500
0409   300D           02096         movlw 13
040A   1683           02097         bsf STATUS,5
  00000001            02098 ram_bank = 1
040B   0220           02099         subwf key,W
                      02100         set@page BC@LL52
040D   1283           02101         bcf STATUS,5
  00000000            02102 ram_bank = 0
040E   1D03           02103         btfss STATUS,2
040F   2C1B           02104         goto BC@LL52
  00000000            02105 ram_bank = 0
0410   302A           02106         movlw 42
0411   1683           02107         bsf STATUS,5
  00000001            02108 ram_bank = 1
0412   00A1           02109         movwf key_value
0413   3001           02110         movlw 1
0414   1283           02111         bcf STATUS,5
  00000000            02112 ram_bank = 0
0415   00B0           02113         movwf PP1H
0416   30F4           02114         movlw 244
                      02115         f@call DLY@W
                      02116         F@JUMP BC@LL24
041B                  02117 BC@LL52
  0000041B            02118 F3_000095 equ $ ; IN [KEYPAD4X4.INC] CASE 14 : key_value = "0" : DELAYMS 500
041B   300E           02119         movlw 14
041C   1683           02120         bsf STATUS,5
  00000001            02121 ram_bank = 1
041D   0220           02122         subwf key,W
                      02123         set@page BC@LL54
041F   1283           02124         bcf STATUS,5
  00000000            02125 ram_bank = 0
0420   1D03           02126         btfss STATUS,2
0421   2C2D           02127         goto BC@LL54
  00000000            02128 ram_bank = 0
0422   3030           02129         movlw 48
0423   1683           02130         bsf STATUS,5
  00000001            02131 ram_bank = 1
0424   00A1           02132         movwf key_value
0425   3001           02133         movlw 1
0426   1283           02134         bcf STATUS,5
  00000000            02135 ram_bank = 0
0427   00B0           02136         movwf PP1H
0428   30F4           02137         movlw 244
                      02138         f@call DLY@W
                      02139         F@JUMP BC@LL24
042D                  02140 BC@LL54
  0000042D            02141 F3_000096 equ $ ; IN [KEYPAD4X4.INC] CASE 15 : key_value = "#" : DELAYMS 500
042D   300F           02142         movlw 15
042E   1683           02143         bsf STATUS,5
  00000001            02144 ram_bank = 1
042F   0220           02145         subwf key,W
                      02146         set@page BC@LL56
0431   1283           02147         bcf STATUS,5
  00000000            02148 ram_bank = 0
0432   1D03           02149         btfss STATUS,2
0433   2C3F           02150         goto BC@LL56
  00000000            02151 ram_bank = 0
0434   3023           02152         movlw 35
0435   1683           02153         bsf STATUS,5
  00000001            02154 ram_bank = 1
0436   00A1           02155         movwf key_value
0437   3001           02156         movlw 1
0438   1283           02157         bcf STATUS,5
  00000000            02158 ram_bank = 0
0439   00B0           02159         movwf PP1H
043A   30F4           02160         movlw 244
                      02161         f@call DLY@W
                      02162         F@JUMP BC@LL24
043F                  02163 BC@LL56
  0000043F            02164 F3_000097 equ $ ; IN [KEYPAD4X4.INC] CASE 16 : key_value = "D" : DELAYMS 500
043F   3010           02165         movlw 16
0440   1683           02166         bsf STATUS,5
  00000001            02167 ram_bank = 1
0441   0220           02168         subwf key,W
                      02169         set@page BC@LL58
0443   1283           02170         bcf STATUS,5
  00000000            02171 ram_bank = 0
0444   1D03           02172         btfss STATUS,2
0445   2C51           02173         goto BC@LL58
  00000000            02174 ram_bank = 0
0446   3044           02175         movlw 68
0447   1683           02176         bsf STATUS,5
  00000001            02177 ram_bank = 1
0448   00A1           02178         movwf key_value
0449   3001           02179         movlw 1
044A   1283           02180         bcf STATUS,5
  00000000            02181 ram_bank = 0
044B   00B0           02182         movwf PP1H
044C   30F4           02183         movlw 244
                      02184         f@call DLY@W
  0000044F            02185 F3_000098 equ $ ; IN [KEYPAD4X4.INC] CASE else : key_value = 0 : return
                      02186         F@JUMP BC@LL60
0451                  02187 BC@LL58
0451   1683           02188         bsf STATUS,5
  00000001            02189 ram_bank = 1
0452   01A1           02190         clrf key_value
0453   1283           02191         bcf STATUS,5
  00000000            02192 ram_bank = 0
0454   0008           02193         return
  00000455            02194 F3_000099 equ $ ; IN [KEYPAD4X4.INC] ENDSELECT
0455                  02195 BC@LL60
0455                  02196 BC@LL24
  00000455            02197 F3_000100 equ $ ; IN [KEYPAD4X4.INC] return
0455   0008           02198         return
  00000456            02199 F3_EOF equ $ ; KEYPAD4X4.INC
0456                  02200 main
  00000456            02201 F1_000065 equ $ ; IN [FUELSYS.BAS] GOSUB check_serial
                      02202         f@call check_serial
  00000458            02203 F1_000066 equ $ ; IN [FUELSYS.BAS] if IR_1 = 0 THEN GOSUB gate_open
                      02204         set@page BC@LL62
0459   1806           02205         btfsc PORTB,0
045A   2C5D           02206         goto BC@LL62
                      02207         f@call gate_open
045D                  02208 BC@LL62
  0000045D            02209 F1_000067 equ $ ; IN [FUELSYS.BAS] if IR_1 = 1 THEN GOSUB gate_lock
                      02210         set@page BC@LL64
045E   1C06           02211         btfss PORTB,0
045F   2C62           02212         goto BC@LL64
                      02213         f@call gate_lock
0462                  02214 BC@LL64
  00000462            02215 F1_000068 equ $ ; IN [FUELSYS.BAS] if hi_level = 1 THEN
                      02216         set@page BC@LL66
0463   1E07           02217         btfss PORTC,4
0464   2C8F           02218         goto BC@LL66
  00000465            02219 F1_000069 equ $ ; IN [FUELSYS.BAS] CLS
                      02220         f@call LCD@CLS
  00000467            02221 F1_000070 equ $ ; IN [FUELSYS.BAS] HSEROUT["HHHH"]
0467   3068           02222         movlw 104
                      02223         f@call HRSOUT
                      02224         f@call HRSOUT
                      02225         f@call HRSOUT
                      02226         f@call HRSOUT
  00000470            02227 F1_000071 equ $ ; IN [FUELSYS.BAS] while hi_level = 1
0470                  02228 BC@LL67
                      02229         set@page BC@LL68
0471   1E07           02230         btfss PORTC,4
0472   2C7E           02231         goto BC@LL68
  00000473            02232 F1_000072 equ $ ; IN [FUELSYS.BAS] PRINT AT 1,1,"FUEL LEVEL: high"
0473   3080           02233         movlw 128
0474   00A1           02234         movwf BPFH
                      02235         f@call LCD@CRS
0477   3009           02236         movlw high (STR@LB1)
0478   00A6           02237         movwf GEN4H
0479   3036           02238         movlw low (STR@LB1)
                      02239         f@call C@STROUT
  0000047C            02240 F1_000073 equ $ ; IN [FUELSYS.BAS] WEND
                      02241         F@JUMP BC@LL67
047E                  02242 BC@LL68
  0000047E            02243 F1_000074 equ $ ; IN [FUELSYS.BAS] PRINT AT 2,1, "SENDING SMS....."
047E   3080           02244         movlw 128
047F   00A1           02245         movwf BPFH
0480   30C0           02246         movlw 192
                      02247         f@call LCD@CRS
0483   3009           02248         movlw high (STR@LB2)
0484   00A6           02249         movwf GEN4H
0485   3047           02250         movlw low (STR@LB2)
                      02251         f@call C@STROUT
  00000488            02252 F1_000075 equ $ ; IN [FUELSYS.BAS] DELAYMS 4000
0488   300F           02253         movlw 15
0489   00B0           02254         movwf PP1H
048A   30A0           02255         movlw 160
                      02256         f@call DLY@W
  0000048D            02257 F1_000076 equ $ ; IN [FUELSYS.BAS] goto default
                      02258         F@JUMP default
  0000048F            02259 F1_000077 equ $ ; IN [FUELSYS.BAS] endif
048F                  02260 BC@LL66
  0000048F            02261 F1_000078 equ $ ; IN [FUELSYS.BAS] if lo_level = 1 THEN
                      02262         set@page BC@LL70
0490   1E87           02263         btfss PORTC,5
0491   2CBC           02264         goto BC@LL70
  00000492            02265 F1_000079 equ $ ; IN [FUELSYS.BAS] CLS
                      02266         f@call LCD@CLS
  00000494            02267 F1_000080 equ $ ; IN [FUELSYS.BAS] HSEROUT["LLLL"]
0494   306C           02268         movlw 108
                      02269         f@call HRSOUT
                      02270         f@call HRSOUT
                      02271         f@call HRSOUT
                      02272         f@call HRSOUT
  0000049D            02273 F1_000081 equ $ ; IN [FUELSYS.BAS] while lo_level = 1
049D                  02274 BC@LL71
                      02275         set@page BC@LL72
049E   1E87           02276         btfss PORTC,5
049F   2CAB           02277         goto BC@LL72
  000004A0            02278 F1_000082 equ $ ; IN [FUELSYS.BAS] PRINT AT 1,1,"FUEL LEVEL: low"
04A0   3080           02279         movlw 128
04A1   00A1           02280         movwf BPFH
                      02281         f@call LCD@CRS
04A4   3009           02282         movlw high (STR@LB3)
04A5   00A6           02283         movwf GEN4H
04A6   3058           02284         movlw low (STR@LB3)
                      02285         f@call C@STROUT
  000004A9            02286 F1_000083 equ $ ; IN [FUELSYS.BAS] WEND
                      02287         F@JUMP BC@LL71
04AB                  02288 BC@LL72
  000004AB            02289 F1_000084 equ $ ; IN [FUELSYS.BAS] PRINT AT 2,1, "SENDING SMS....."
04AB   3080           02290         movlw 128
04AC   00A1           02291         movwf BPFH
04AD   30C0           02292         movlw 192
                      02293         f@call LCD@CRS
04B0   3009           02294         movlw high (STR@LB4)
04B1   00A6           02295         movwf GEN4H
04B2   3047           02296         movlw low (STR@LB4)
                      02297         f@call C@STROUT
  000004B5            02298 F1_000085 equ $ ; IN [FUELSYS.BAS] DELAYMS 4000
04B5   300F           02299         movlw 15
04B6   00B0           02300         movwf PP1H
04B7   30A0           02301         movlw 160
                      02302         f@call DLY@W
  000004BA            02303 F1_000086 equ $ ; IN [FUELSYS.BAS] goto default
                      02304         F@JUMP default
  000004BC            02305 F1_000087 equ $ ; IN [FUELSYS.BAS] endif
04BC                  02306 BC@LL70
  000004BC            02307 F1_000088 equ $ ; IN [FUELSYS.BAS] return
04BC   0008           02308         return
  000004BD            02309 F1_000089 equ $ ; IN [FUELSYS.BAS] goto main
                      02310         F@JUMP main
04BF                  02311 check_serial
  000004BF            02312 F1_000092 equ $ ; IN [FUELSYS.BAS] HSERIN 500, over,[msg]
04BF   3001           02313         movlw 1
04C0   00A7           02314         movwf GENH
04C1   30F4           02315         movlw 244
04C2   00A3           02316         movwf GEN
                      02317         f@call HRSIN2
                      02318         set@page over
04C6   1C03           02319         btfss STATUS,0
04C7   2CDE           02320         goto over
04C8   00C3           02321         movwf msg
  000004C9            02322 F1_000093 equ $ ; IN [FUELSYS.BAS] if msg = "H" THEN GOSUB Show_card
04C9   3048           02323         movlw 72
04CA   0243           02324         subwf msg,W
                      02325         set@page BC@LL74
04CC   1D03           02326         btfss STATUS,2
04CD   2CD0           02327         goto BC@LL74
                      02328         f@call Show_card
04D0                  02329 BC@LL74
  000004D0            02330 F1_000094 equ $ ; IN [FUELSYS.BAS] if msg = "S" THEN GOSUB Show_card
04D0   3053           02331         movlw 83
04D1   0243           02332         subwf msg,W
                      02333         set@page BC@LL76
04D3   1D03           02334         btfss STATUS,2
04D4   2CD7           02335         goto BC@LL76
                      02336         f@call Show_card
04D7                  02337 BC@LL76
  000004D7            02338 F1_000095 equ $ ; IN [FUELSYS.BAS] if msg = "P" THEN GOSUB pass_mode
04D7   3050           02339         movlw 80
04D8   0243           02340         subwf msg,W
                      02341         set@page BC@LL78
04DA   1D03           02342         btfss STATUS,2
04DB   2CDE           02343         goto BC@LL78
                      02344         f@call pass_mode
04DE                  02345 BC@LL78
04DE                  02346 over
  000004DE            02347 F1_000097 equ $ ; IN [FUELSYS.BAS] return
04DE   0008           02348         return
04DF                  02349 gate_lock
  000004DF            02350 F1_000100 equ $ ; IN [FUELSYS.BAS] FOR X = 0 TO 50
04DF   01C4           02351         clrf _X
04E0                  02352 FR@LB80
04E0   3033           02353         movlw 51
04E1   0244           02354         subwf _X,W
                      02355         set@page NX@LB81
04E3   1803           02356         btfsc STATUS,0
04E4   2CF6           02357         goto NX@LB81
  000004E5            02358 F1_000101 equ $ ; IN [FUELSYS.BAS] motor = 1
04E5   1405           02359         bsf PORTA,0
  000004E6            02360 F1_000102 equ $ ; IN [FUELSYS.BAS] DELAYUS 800
04E6   3003           02361         movlw 3
04E7   00AC           02362         movwf PP0H
04E8   3020           02363         movlw 32
                      02364         f@call DLUS@W
  000004EB            02365 F1_000103 equ $ ; IN [FUELSYS.BAS] motor = 0
04EB   1005           02366         bcf PORTA,0
  000004EC            02367 F1_000104 equ $ ; IN [FUELSYS.BAS] DELAYUS 19200
04EC   304B           02368         movlw 75
04ED   00AC           02369         movwf PP0H
04EE   3000           02370         movlw 0
                      02371         f@call DLUS@W
04F1                  02372 CT@LB82
  000004F1            02373 F1_000105 equ $ ; IN [FUELSYS.BAS] NEXT
04F1   3001           02374         movlw 1
04F2   07C4           02375         addwf _X,F
                      02376         set@page FR@LB80
04F4   1C03           02377         btfss STATUS,0
04F5   2CE0           02378         goto FR@LB80
04F6                  02379 NX@LB81
  000004F6            02380 F1_000106 equ $ ; IN [FUELSYS.BAS] return
04F6   0008           02381         return
04F7                  02382 gate_open
  000004F7            02383 F1_000109 equ $ ; IN [FUELSYS.BAS] FOR X = 0 TO 50
04F7   01C4           02384         clrf _X
04F8                  02385 FR@LB83
04F8   3033           02386         movlw 51
04F9   0244           02387         subwf _X,W
                      02388         set@page NX@LB84
04FB   1803           02389         btfsc STATUS,0
04FC   2D0E           02390         goto NX@LB84
  000004FD            02391 F1_000110 equ $ ; IN [FUELSYS.BAS] motor = 1
04FD   1405           02392         bsf PORTA,0
  000004FE            02393 F1_000111 equ $ ; IN [FUELSYS.BAS] DELAYUS 2000
04FE   3007           02394         movlw 7
04FF   00AC           02395         movwf PP0H
0500   30D0           02396         movlw 208
                      02397         f@call DLUS@W
  00000503            02398 F1_000112 equ $ ; IN [FUELSYS.BAS] motor = 0
0503   1005           02399         bcf PORTA,0
  00000504            02400 F1_000113 equ $ ; IN [FUELSYS.BAS] DELAYUS 18000
0504   3046           02401         movlw 70
0505   00AC           02402         movwf PP0H
0506   3050           02403         movlw 80
                      02404         f@call DLUS@W
0509                  02405 CT@LB85
  00000509            02406 F1_000114 equ $ ; IN [FUELSYS.BAS] NEXT
0509   3001           02407         movlw 1
050A   07C4           02408         addwf _X,F
                      02409         set@page FR@LB83
050C   1C03           02410         btfss STATUS,0
050D   2CF8           02411         goto FR@LB83
050E                  02412 NX@LB84
  0000050E            02413 F1_000115 equ $ ; IN [FUELSYS.BAS] return
050E   0008           02414         return
050F                  02415 pass_mode
  0000050F            02416 F1_000118 equ $ ; IN [FUELSYS.BAS] CLS
                      02417         f@call LCD@CLS
  00000511            02418 F1_000119 equ $ ; IN [FUELSYS.BAS] PRINT AT 1,1,"ENTER UR PASS:"
0511   3080           02419         movlw 128
0512   00A1           02420         movwf BPFH
                      02421         f@call LCD@CRS
0515   3009           02422         movlw high (STR@LB5)
0516   00A6           02423         movwf GEN4H
0517   3068           02424         movlw low (STR@LB5)
                      02425         f@call C@STROUT
  0000051A            02426 F1_000120 equ $ ; IN [FUELSYS.BAS] FOR X = 0 TO 7
051A   01C4           02427         clrf _X
051B                  02428 FR@LB86
051B   3008           02429         movlw 8
051C   0244           02430         subwf _X,W
                      02431         set@page NX@LB87
051E   1803           02432         btfsc STATUS,0
051F   2D3B           02433         goto NX@LB87
  00000520            02434 F1_000121 equ $ ; IN [FUELSYS.BAS] GOSUB capture_key
                      02435         f@call capture_key
  00000522            02436 F1_000122 equ $ ; IN [FUELSYS.BAS] temp_pass[X] = key_value
0522   0844           02437         movf _X,W
0523   3E78           02438         addlw temp_pass
0524   0084           02439         movwf FSR
0525   1683           02440         bsf STATUS,5
  00000001            02441 ram_bank = 1
0526   0821           02442         movf key_value,W
0527   0080           02443         movwf INDF
  00000528            02444 F1_000123 equ $ ; IN [FUELSYS.BAS] PRINT AT 2,X+1, temp_pass[X]
0528   3080           02445         movlw 128
0529   1283           02446         bcf STATUS,5
  00000000            02447 ram_bank = 0
052A   00A1           02448         movwf BPFH
052B   3002           02449         movlw 2
052C   00A3           02450         movwf GEN
052D   0A44           02451         incf _X,W
                      02452         f@call CURSOR
0530   0844           02453         movf _X,W
0531   3E78           02454         addlw temp_pass
0532   0084           02455         movwf FSR
0533   0800           02456         movf INDF,W
                      02457         f@call PRINT
0536                  02458 CT@LB88
  00000536            02459 F1_000124 equ $ ; IN [FUELSYS.BAS] NEXT
0536   3001           02460         movlw 1
0537   07C4           02461         addwf _X,F
                      02462         set@page FR@LB86
0539   1C03           02463         btfss STATUS,0
053A   2D1B           02464         goto FR@LB86
053B                  02465 NX@LB87
  0000053B            02466 F1_000125 equ $ ; IN [FUELSYS.BAS] CLS
                      02467         f@call LCD@CLS
  0000053D            02468 F1_000126 equ $ ; IN [FUELSYS.BAS] FOR Y = 0 TO 4
053D   01C5           02469         clrf _Y
053E                  02470 FR@LB89
053E   3005           02471         movlw 5
053F   0245           02472         subwf _Y,W
                      02473         set@page NX@LB90
0541   1803           02474         btfsc STATUS,0
0542   2E2C           02475         goto NX@LB90
  00000543            02476 F1_000127 equ $ ; IN [FUELSYS.BAS] FOR X = 0 TO 7
0543   01C4           02477         clrf _X
0544                  02478 FR@LB92
0544   3008           02479         movlw 8
0545   0244           02480         subwf _X,W
                      02481         set@page NX@LB93
0547   1803           02482         btfsc STATUS,0
0548   2E27           02483         goto NX@LB93
  00000549            02484 F1_000128 equ $ ; IN [FUELSYS.BAS] if Y = 0 AND pass_1[X] != temp_pass[X] THEN BREAK
0549   3001           02485         movlw 1
054A   08C5           02486         movf _Y,F
054B   1D03           02487         btfss STATUS,2
054C   3000           02488         movlw 0
054D   00C2           02489         movwf SP#P9
054E   0844           02490         movf _X,W
054F   3E50           02491         addlw pass_1
0550   0084           02492         movwf FSR
0551   0800           02493         movf INDF,W
0552   00A9           02494         movwf PBP#VAR0
0553   0844           02495         movf _X,W
0554   3E78           02496         addlw temp_pass
0555   0084           02497         movwf FSR
0556   0800           02498         movf INDF,W
0557   00AA           02499         movwf PBP#VAR1
0558   0829           02500         movf PBP#VAR0,W
0559   022A           02501         subwf PBP#VAR1,W
055A   1D03           02502         btfss STATUS,2
055B   3001           02503         movlw 1
055C   05C2           02504         andwf SP#P9,F
                      02505         set@page BC@LL95
055E   1903           02506         btfsc STATUS,2
055F   2D62           02507         goto BC@LL95
                      02508         F@JUMP NX@LB93
0562                  02509 BC@LL95
  00000562            02510 F1_000129 equ $ ; IN [FUELSYS.BAS] if Y = 1 AND pass_2[X] != temp_pass[X] THEN BREAK
0562   3001           02511         movlw 1
0563   0245           02512         subwf _Y,W
0564   3001           02513         movlw 1
0565   1D03           02514         btfss STATUS,2
0566   3000           02515         movlw 0
0567   00C2           02516         movwf SP#P9
0568   0844           02517         movf _X,W
0569   3E58           02518         addlw pass_2
056A   0084           02519         movwf FSR
056B   0800           02520         movf INDF,W
056C   00A9           02521         movwf PBP#VAR0
056D   0844           02522         movf _X,W
056E   3E78           02523         addlw temp_pass
056F   0084           02524         movwf FSR
0570   0800           02525         movf INDF,W
0571   00AA           02526         movwf PBP#VAR1
0572   0829           02527         movf PBP#VAR0,W
0573   022A           02528         subwf PBP#VAR1,W
0574   1D03           02529         btfss STATUS,2
0575   3001           02530         movlw 1
0576   05C2           02531         andwf SP#P9,F
                      02532         set@page BC@LL97
0578   1903           02533         btfsc STATUS,2
0579   2D7C           02534         goto BC@LL97
                      02535         F@JUMP NX@LB93
057C                  02536 BC@LL97
  0000057C            02537 F1_000130 equ $ ; IN [FUELSYS.BAS] if Y = 2 AND pass_3[X] != temp_pass[X] THEN BREAK
057C   3002           02538         movlw 2
057D   0245           02539         subwf _Y,W
057E   3001           02540         movlw 1
057F   1D03           02541         btfss STATUS,2
0580   3000           02542         movlw 0
0581   00C2           02543         movwf SP#P9
0582   0844           02544         movf _X,W
0583   3E60           02545         addlw pass_3
0584   0084           02546         movwf FSR
0585   0800           02547         movf INDF,W
0586   00A9           02548         movwf PBP#VAR0
0587   0844           02549         movf _X,W
0588   3E78           02550         addlw temp_pass
0589   0084           02551         movwf FSR
058A   0800           02552         movf INDF,W
058B   00AA           02553         movwf PBP#VAR1
058C   0829           02554         movf PBP#VAR0,W
058D   022A           02555         subwf PBP#VAR1,W
058E   1D03           02556         btfss STATUS,2
058F   3001           02557         movlw 1
0590   05C2           02558         andwf SP#P9,F
                      02559         set@page BC@LL99
0592   1903           02560         btfsc STATUS,2
0593   2D96           02561         goto BC@LL99
                      02562         F@JUMP NX@LB93
0596                  02563 BC@LL99
  00000596            02564 F1_000131 equ $ ; IN [FUELSYS.BAS] if Y = 3 AND pass_4[X] != temp_pass[X] THEN BREAK
0596   3003           02565         movlw 3
0597   0245           02566         subwf _Y,W
0598   3001           02567         movlw 1
0599   1D03           02568         btfss STATUS,2
059A   3000           02569         movlw 0
059B   00C2           02570         movwf SP#P9
059C   0844           02571         movf _X,W
059D   3E68           02572         addlw pass_4
059E   0084           02573         movwf FSR
059F   0800           02574         movf INDF,W
05A0   00A9           02575         movwf PBP#VAR0
05A1   0844           02576         movf _X,W
05A2   3E78           02577         addlw temp_pass
05A3   0084           02578         movwf FSR
05A4   0800           02579         movf INDF,W
05A5   00AA           02580         movwf PBP#VAR1
05A6   0829           02581         movf PBP#VAR0,W
05A7   022A           02582         subwf PBP#VAR1,W
05A8   1D03           02583         btfss STATUS,2
05A9   3001           02584         movlw 1
05AA   05C2           02585         andwf SP#P9,F
                      02586         set@page BC@LL101
05AC   1903           02587         btfsc STATUS,2
05AD   2DB0           02588         goto BC@LL101
                      02589         F@JUMP NX@LB93
05B0                  02590 BC@LL101
  000005B0            02591 F1_000132 equ $ ; IN [FUELSYS.BAS] if Y = 4 AND pass_5[X] != temp_pass[X] THEN BREAK
05B0   3004           02592         movlw 4
05B1   0245           02593         subwf _Y,W
05B2   3001           02594         movlw 1
05B3   1D03           02595         btfss STATUS,2
05B4   3000           02596         movlw 0
05B5   00C2           02597         movwf SP#P9
05B6   0844           02598         movf _X,W
05B7   3E70           02599         addlw pass_5
05B8   0084           02600         movwf FSR
05B9   0800           02601         movf INDF,W
05BA   00A9           02602         movwf PBP#VAR0
05BB   0844           02603         movf _X,W
05BC   3E78           02604         addlw temp_pass
05BD   0084           02605         movwf FSR
05BE   0800           02606         movf INDF,W
05BF   00AA           02607         movwf PBP#VAR1
05C0   0829           02608         movf PBP#VAR0,W
05C1   022A           02609         subwf PBP#VAR1,W
05C2   1D03           02610         btfss STATUS,2
05C3   3001           02611         movlw 1
05C4   05C2           02612         andwf SP#P9,F
                      02613         set@page BC@LL103
05C6   1903           02614         btfsc STATUS,2
05C7   2DCA           02615         goto BC@LL103
                      02616         F@JUMP NX@LB93
05CA                  02617 BC@LL103
  000005CA            02618 F1_000133 equ $ ; IN [FUELSYS.BAS] if X < 7 THEN CONTINUE
05CA   3007           02619         movlw 7
05CB   0244           02620         subwf _X,W
                      02621         set@page BC@LL105
05CD   1803           02622         btfsc STATUS,0
05CE   2DD1           02623         goto BC@LL105
                      02624         F@JUMP CT@LB94
05D1                  02625 BC@LL105
  000005D1            02626 F1_000134 equ $ ; IN [FUELSYS.BAS] if Y = 0 THEN ID_no = 1
05D1   08C5           02627         movf _Y,F
                      02628         set@page BC@LL107
05D3   1D03           02629         btfss STATUS,2
05D4   2DD7           02630         goto BC@LL107
05D5   3001           02631         movlw 1
05D6   00CC           02632         movwf ID_no
05D7                  02633 BC@LL107
  000005D7            02634 F1_000135 equ $ ; IN [FUELSYS.BAS] if Y = 1 THEN ID_no = 2
05D7   3001           02635         movlw 1
05D8   0245           02636         subwf _Y,W
                      02637         set@page BC@LL109
05DA   1D03           02638         btfss STATUS,2
05DB   2DDE           02639         goto BC@LL109
05DC   3002           02640         movlw 2
05DD   00CC           02641         movwf ID_no
05DE                  02642 BC@LL109
  000005DE            02643 F1_000136 equ $ ; IN [FUELSYS.BAS] if Y = 2 THEN ID_no = 3
05DE   3002           02644         movlw 2
05DF   0245           02645         subwf _Y,W
                      02646         set@page BC@LL111
05E1   1D03           02647         btfss STATUS,2
05E2   2DE5           02648         goto BC@LL111
05E3   3003           02649         movlw 3
05E4   00CC           02650         movwf ID_no
05E5                  02651 BC@LL111
  000005E5            02652 F1_000137 equ $ ; IN [FUELSYS.BAS] if Y = 3 THEN ID_no = 4
05E5   3003           02653         movlw 3
05E6   0245           02654         subwf _Y,W
                      02655         set@page BC@LL113
05E8   1D03           02656         btfss STATUS,2
05E9   2DEC           02657         goto BC@LL113
05EA   3004           02658         movlw 4
05EB   00CC           02659         movwf ID_no
05EC                  02660 BC@LL113
  000005EC            02661 F1_000138 equ $ ; IN [FUELSYS.BAS] if Y = 4 THEN ID_no = 5
05EC   3004           02662         movlw 4
05ED   0245           02663         subwf _Y,W
                      02664         set@page BC@LL115
05EF   1D03           02665         btfss STATUS,2
05F0   2DF3           02666         goto BC@LL115
05F1   3005           02667         movlw 5
05F2   00CC           02668         movwf ID_no
05F3                  02669 BC@LL115
  000005F3            02670 F1_000139 equ $ ; IN [FUELSYS.BAS] if msg = "H" AND ID_no != tmp_ID THEN BREAK
05F3   3048           02671         movlw 72
05F4   0243           02672         subwf msg,W
05F5   3001           02673         movlw 1
05F6   1D03           02674         btfss STATUS,2
05F7   3000           02675         movlw 0
05F8   00C2           02676         movwf SP#P9
05F9   084C           02677         movf ID_no,W
05FA   024D           02678         subwf tmp_ID,W
05FB   1D03           02679         btfss STATUS,2
05FC   3001           02680         movlw 1
05FD   05C2           02681         andwf SP#P9,F
                      02682         set@page BC@LL117
05FF   1903           02683         btfsc STATUS,2
0600   2E03           02684         goto BC@LL117
                      02685         F@JUMP NX@LB93
0603                  02686 BC@LL117
  00000603            02687 F1_000140 equ $ ; IN [FUELSYS.BAS] PRINT AT 1,1, "MATCHED."
0603   3080           02688         movlw 128
0604   00A1           02689         movwf BPFH
                      02690         f@call LCD@CRS
0607   3009           02691         movlw high (STR@LB6)
0608   00A6           02692         movwf GEN4H
0609   3077           02693         movlw low (STR@LB6)
                      02694         f@call C@STROUT
  0000060C            02695 F1_000141 equ $ ; IN [FUELSYS.BAS] PRINT AT 2,1, "ID NO: ", DEC2 ID_no
060C   3080           02696         movlw 128
060D   00A1           02697         movwf BPFH
060E   30C0           02698         movlw 192
                      02699         f@call LCD@CRS
0611   3009           02700         movlw high (STR@LB7)
0612   00A6           02701         movwf GEN4H
0613   3080           02702         movlw low (STR@LB7)
                      02703         f@call C@STROUT
0616   3002           02704         movlw 2
0617   00A6           02705         movwf GEN4H
0618   084C           02706         movf ID_no,W
                      02707         f@call OUT@DECC
  0000061B            02708 F1_000142 equ $ ; IN [FUELSYS.BAS] DELAYMS 2000
061B   3007           02709         movlw 7
061C   00B0           02710         movwf PP1H
061D   30D0           02711         movlw 208
                      02712         f@call DLY@W
  00000620            02713 F1_000143 equ $ ; IN [FUELSYS.BAS] GOSUB select_option
                      02714         f@call select_option
0622                  02715 CT@LB94
  00000622            02716 F1_000144 equ $ ; IN [FUELSYS.BAS] NEXT
0622   3001           02717         movlw 1
0623   07C4           02718         addwf _X,F
                      02719         set@page FR@LB92
0625   1C03           02720         btfss STATUS,0
0626   2D44           02721         goto FR@LB92
0627                  02722 NX@LB93
0627                  02723 CT@LB91
  00000627            02724 F1_000145 equ $ ; IN [FUELSYS.BAS] NEXT
0627   3001           02725         movlw 1
0628   07C5           02726         addwf _Y,F
                      02727         set@page FR@LB89
062A   1C03           02728         btfss STATUS,0
062B   2D3E           02729         goto FR@LB89
062C                  02730 NX@LB90
  0000062C            02731 F1_000146 equ $ ; IN [FUELSYS.BAS] ID_no = 0
062C   01CC           02732         clrf ID_no
  0000062D            02733 F1_000147 equ $ ; IN [FUELSYS.BAS] PRINT AT 1,1, "NO MATCH FOUND."
062D   3080           02734         movlw 128
062E   00A1           02735         movwf BPFH
                      02736         f@call LCD@CRS
0631   3009           02737         movlw high (STR@LB8)
0632   00A6           02738         movwf GEN4H
0633   3088           02739         movlw low (STR@LB8)
                      02740         f@call C@STROUT
  00000636            02741 F1_000148 equ $ ; IN [FUELSYS.BAS] DELAYMS 2000
0636   3007           02742         movlw 7
0637   00B0           02743         movwf PP1H
0638   30D0           02744         movlw 208
                      02745         f@call DLY@W
  0000063B            02746 F1_000149 equ $ ; IN [FUELSYS.BAS] goto default
                      02747         F@JUMP default
  0000063D            02748 F1_000150 equ $ ; IN [FUELSYS.BAS] return
063D   0008           02749         return
063E                  02750 Show_card
  0000063E            02751 F1_000153 equ $ ; IN [FUELSYS.BAS] CLS
                      02752         f@call LCD@CLS
  00000640            02753 F1_000154 equ $ ; IN [FUELSYS.BAS] PRINT AT 1,1,"WAITING FOR A"
0640   3080           02754         movlw 128
0641   00A1           02755         movwf BPFH
                      02756         f@call LCD@CRS
0644   3009           02757         movlw high (STR@LB9)
0645   00A6           02758         movwf GEN4H
0646   3098           02759         movlw low (STR@LB9)
                      02760         f@call C@STROUT
  00000649            02761 F1_000155 equ $ ; IN [FUELSYS.BAS] PRINT AT 2,1,"REGISTERED CARD."
0649   3080           02762         movlw 128
064A   00A1           02763         movwf BPFH
064B   30C0           02764         movlw 192
                      02765         f@call LCD@CRS
064E   3009           02766         movlw high (STR@LB10)
064F   00A6           02767         movwf GEN4H
0650   30A6           02768         movlw low (STR@LB10)
                      02769         f@call C@STROUT
  00000653            02770 F1_000156 equ $ ; IN [FUELSYS.BAS] HSERIN[WAIT("ID"), STR Card_ID]
0653                  02771 PB@LB119
                      02772         f@call HRSIN
0655   3C49           02773         sublw 73
                      02774         set@page PB@LB119
0657   1D03           02775         btfss STATUS,2
0658   2E53           02776         goto PB@LB119
                      02777         f@call HRSIN
065B   3C44           02778         sublw 68
                      02779         set@page PB@LB119
065D   1D03           02780         btfss STATUS,2
065E   2E53           02781         goto PB@LB119
065F   01A9           02782         clrf PBP#VAR0
0660                  02783 PB@LB122
                      02784         f@call HRSIN
0662   0829           02785         movf PBP#VAR0,W
0663   3E4E           02786         addlw Card_ID
0664   0084           02787         movwf FSR
0665   081A           02788         movf RCREG,W
0666   0080           02789         movwf INDF
0667   0AA9           02790         incf PBP#VAR0,F
0668   0829           02791         movf PBP#VAR0,W
0669   3C02           02792         sublw 2
                      02793         set@page PB@LB122
066B   1D03           02794         btfss STATUS,2
066C   2E60           02795         goto PB@LB122
  0000066D            02796 F1_000157 equ $ ; IN [FUELSYS.BAS] CLS
                      02797         f@call LCD@CLS
  0000066F            02798 F1_000158 equ $ ; IN [FUELSYS.BAS] if Card_ID[1] = "0" THEN
066F   084F           02799         movf Card_ID#1,W
0670   00A9           02800         movwf PBP#VAR0
0671   3030           02801         movlw 48
0672   0229           02802         subwf PBP#VAR0,W
                      02803         set@page BC@LL123
0674   1D03           02804         btfss STATUS,2
0675   2E82           02805         goto BC@LL123
  00000676            02806 F1_000159 equ $ ; IN [FUELSYS.BAS] PRINT AT 2,1,"UNREGISTERED.."
0676   3080           02807         movlw 128
0677   00A1           02808         movwf BPFH
0678   30C0           02809         movlw 192
                      02810         f@call LCD@CRS
067B   3009           02811         movlw high (STR@LB11)
067C   00A6           02812         movwf GEN4H
067D   30B7           02813         movlw low (STR@LB11)
                      02814         f@call C@STROUT
                      02815         F@JUMP BC@LL124
0682                  02816 BC@LL123
  00000682            02817 F1_000160 equ $ ; IN [FUELSYS.BAS] else
  00000682            02818 F1_000161 equ $ ; IN [FUELSYS.BAS] ID_no = Card_ID[1] - 48
0682   084F           02819         movf Card_ID#1,W
0683   00A9           02820         movwf PBP#VAR0
0684   3030           02821         movlw 48
0685   0229           02822         subwf PBP#VAR0,W
0686   00CC           02823         movwf ID_no
  00000687            02824 F1_000162 equ $ ; IN [FUELSYS.BAS] PRINT AT 2,1,"CARD ID NO: ", DEC2 ID_no, "  "
0687   3080           02825         movlw 128
0688   00A1           02826         movwf BPFH
0689   30C0           02827         movlw 192
                      02828         f@call LCD@CRS
068C   3009           02829         movlw high (STR@LB12)
068D   00A6           02830         movwf GEN4H
068E   30C6           02831         movlw low (STR@LB12)
                      02832         f@call C@STROUT
0691   3002           02833         movlw 2
0692   00A6           02834         movwf GEN4H
0693   084C           02835         movf ID_no,W
                      02836         f@call OUT@DECC
0696   3020           02837         movlw 32
                      02838         f@call PRINT
                      02839         f@call PRINT
  0000069B            02840 F1_000163 equ $ ; IN [FUELSYS.BAS] tmp_ID = ID_no
069B   084C           02841         movf ID_no,W
069C   00CD           02842         movwf tmp_ID
  0000069D            02843 F1_000164 equ $ ; IN [FUELSYS.BAS] DELAYMS 2000
069D   3007           02844         movlw 7
069E   00B0           02845         movwf PP1H
069F   30D0           02846         movlw 208
                      02847         f@call DLY@W
  000006A2            02848 F1_000165 equ $ ; IN [FUELSYS.BAS] if msg = "H" THEN GOSUB pass_mode
06A2   3048           02849         movlw 72
06A3   0243           02850         subwf msg,W
                      02851         set@page BC@LL126
06A5   1D03           02852         btfss STATUS,2
06A6   2EA9           02853         goto BC@LL126
                      02854         f@call pass_mode
06A9                  02855 BC@LL126
  000006A9            02856 F1_000166 equ $ ; IN [FUELSYS.BAS] GOSUB select_option
                      02857         f@call select_option
  000006AB            02858 F1_000167 equ $ ; IN [FUELSYS.BAS] endif
06AB                  02859 BC@LL124
  000006AB            02860 F1_000168 equ $ ; IN [FUELSYS.BAS] DELAYMS 2000
06AB   3007           02861         movlw 7
06AC   00B0           02862         movwf PP1H
06AD   30D0           02863         movlw 208
                      02864         f@call DLY@W
  000006B0            02865 F1_000169 equ $ ; IN [FUELSYS.BAS] goto default
                      02866         F@JUMP default
  000006B2            02867 F1_000170 equ $ ; IN [FUELSYS.BAS] return
06B2   0008           02868         return
06B3                  02869 select_option
  000006B3            02870 F1_000173 equ $ ; IN [FUELSYS.BAS] CLS
                      02871         f@call LCD@CLS
  000006B5            02872 F1_000174 equ $ ; IN [FUELSYS.BAS] PRINT AT 1,1,"A: FILL FUEL"
06B5   3080           02873         movlw 128
06B6   00A1           02874         movwf BPFH
                      02875         f@call LCD@CRS
06B9   3009           02876         movlw high (STR@LB13)
06BA   00A6           02877         movwf GEN4H
06BB   30D3           02878         movlw low (STR@LB13)
                      02879         f@call C@STROUT
  000006BE            02880 F1_000175 equ $ ; IN [FUELSYS.BAS] PRINT AT 2,1,"B:+20TK C: BLNC"
06BE   3080           02881         movlw 128
06BF   00A1           02882         movwf BPFH
06C0   30C0           02883         movlw 192
                      02884         f@call LCD@CRS
06C3   3009           02885         movlw high (STR@LB14)
06C4   00A6           02886         movwf GEN4H
06C5   30E0           02887         movlw low (STR@LB14)
                      02888         f@call C@STROUT
  000006C8            02889 F1_000177 equ $ ; IN [FUELSYS.BAS] while 1 = 1
06C8                  02890 BC@LL127
  000006C8            02891 F1_000178 equ $ ; IN [FUELSYS.BAS] GOSUB capture_key
                      02892         f@call capture_key
  000006CA            02893 F1_000179 equ $ ; IN [FUELSYS.BAS] if key_value = "A" THEN GOSUB fuel_fill
06CA   3041           02894         movlw 65
06CB   1683           02895         bsf STATUS,5
  00000001            02896 ram_bank = 1
06CC   0221           02897         subwf key_value,W
                      02898         set@page BC@LL130
06CE   1283           02899         bcf STATUS,5
  00000000            02900 ram_bank = 0
06CF   1D03           02901         btfss STATUS,2
06D0   2ED3           02902         goto BC@LL130
                      02903         f@call fuel_fill
06D3                  02904 BC@LL130
  000006D3            02905 F1_000180 equ $ ; IN [FUELSYS.BAS] if key_value = "B" THEN GOSUB Rechrg
06D3   3042           02906         movlw 66
06D4   1683           02907         bsf STATUS,5
  00000001            02908 ram_bank = 1
06D5   0221           02909         subwf key_value,W
                      02910         set@page BC@LL132
06D7   1283           02911         bcf STATUS,5
  00000000            02912 ram_bank = 0
06D8   1D03           02913         btfss STATUS,2
06D9   2EDC           02914         goto BC@LL132
                      02915         f@call Rechrg
06DC                  02916 BC@LL132
  000006DC            02917 F1_000181 equ $ ; IN [FUELSYS.BAS] if key_value = "C" THEN GOSUB show_blnc
06DC   3043           02918         movlw 67
06DD   1683           02919         bsf STATUS,5
  00000001            02920 ram_bank = 1
06DE   0221           02921         subwf key_value,W
                      02922         set@page BC@LL134
06E0   1283           02923         bcf STATUS,5
  00000000            02924 ram_bank = 0
06E1   1D03           02925         btfss STATUS,2
06E2   2EE5           02926         goto BC@LL134
                      02927         f@call show_blnc
06E5                  02928 BC@LL134
  000006E5            02929 F1_000182 equ $ ; IN [FUELSYS.BAS] if key_value = "D" THEN goto default
06E5   3044           02930         movlw 68
06E6   1683           02931         bsf STATUS,5
  00000001            02932 ram_bank = 1
06E7   0221           02933         subwf key_value,W
                      02934         set@page BC@LL136
06E9   1283           02935         bcf STATUS,5
  00000000            02936 ram_bank = 0
06EA   1D03           02937         btfss STATUS,2
06EB   2EEE           02938         goto BC@LL136
                      02939         F@JUMP default
06EE                  02940 BC@LL136
  000006EE            02941 F1_000183 equ $ ; IN [FUELSYS.BAS] WEND
                      02942         F@JUMP BC@LL127
06F0                  02943 BC@LL128
06F0                  02944 Rechrg
  000006F0            02945 F1_000186 equ $ ; IN [FUELSYS.BAS] CLS
                      02946         f@call LCD@CLS
  000006F2            02947 F1_000187 equ $ ; IN [FUELSYS.BAS] PRINT AT 1,1, "RECHARGE UR CARD"
06F2   3080           02948         movlw 128
06F3   00A1           02949         movwf BPFH
                      02950         f@call LCD@CRS
06F6   3009           02951         movlw high (STR@LB15)
06F7   00A6           02952         movwf GEN4H
06F8   30F0           02953         movlw low (STR@LB15)
                      02954         f@call C@STROUT
  000006FB            02955 F1_000188 equ $ ; IN [FUELSYS.BAS] PRINT AT 2,1, "A:CONFIRM B:BACK"
06FB   3080           02956         movlw 128
06FC   00A1           02957         movwf BPFH
06FD   30C0           02958         movlw 192
                      02959         f@call LCD@CRS
0700   300A           02960         movlw high (STR@LB16)
0701   00A6           02961         movwf GEN4H
0702   3001           02962         movlw low (STR@LB16)
                      02963         f@call C@STROUT
  00000705            02964 F1_000189 equ $ ; IN [FUELSYS.BAS] while 1 = 1
0705                  02965 BC@LL137
  00000705            02966 F1_000190 equ $ ; IN [FUELSYS.BAS] GOSUB capture_key
                      02967         f@call capture_key
  00000707            02968 F1_000191 equ $ ; IN [FUELSYS.BAS] if key_value = "A" THEN
0707   3041           02969         movlw 65
0708   1683           02970         bsf STATUS,5
  00000001            02971 ram_bank = 1
0709   0221           02972         subwf key_value,W
                      02973         set@page BC@LL140
070B   1283           02974         bcf STATUS,5
  00000000            02975 ram_bank = 0
070C   1D03           02976         btfss STATUS,2
070D   2F4B           02977         goto BC@LL140
  0000070E            02978 F1_000192 equ $ ; IN [FUELSYS.BAS] PRINT AT 2,1, "RECHARGING......"
070E   3080           02979         movlw 128
070F   00A1           02980         movwf BPFH
0710   30C0           02981         movlw 192
                      02982         f@call LCD@CRS
0713   300A           02983         movlw high (STR@LB17)
0714   00A6           02984         movwf GEN4H
0715   3012           02985         movlw low (STR@LB17)
                      02986         f@call C@STROUT
0718                  02987 again_2
  00000718            02988 F1_000194 equ $ ; IN [FUELSYS.BAS] HSEROUT["R"]
0718   3052           02989         movlw 82
                      02990         f@call HRSOUT
  0000071B            02991 F1_000195 equ $ ; IN [FUELSYS.BAS] HSERIN 1000, again_2,[WAIT("I")]
071B   3003           02992         movlw 3
071C   00A7           02993         movwf GENH
071D   30E8           02994         movlw 232
071E   00A3           02995         movwf GEN
071F                  02996 PB@LB142
                      02997         f@call HRSIN2
                      02998         set@page again_2
0722   1C03           02999         btfss STATUS,0
0723   2F18           03000         goto again_2
0724   3C49           03001         sublw 73
                      03002         set@page PB@LB142
0726   1D03           03003         btfss STATUS,2
0727   2F1F           03004         goto PB@LB142
  00000728            03005 F1_000196 equ $ ; IN [FUELSYS.BAS] HSEROUT[DEC ID_no]
0728   3004           03006         movlw 4
0729   00A1           03007         movwf BPFH
072A   084C           03008         movf ID_no,W
                      03009         f@call OUT@DECB
  0000072D            03010 F1_000197 equ $ ; IN [FUELSYS.BAS] HSERIN 1000, again_2,[WAIT("K")]
072D   3003           03011         movlw 3
072E   00A7           03012         movwf GENH
072F   30E8           03013         movlw 232
0730   00A3           03014         movwf GEN
0731                  03015 PB@LB143
                      03016         f@call HRSIN2
                      03017         set@page again_2
0734   1C03           03018         btfss STATUS,0
0735   2F18           03019         goto again_2
0736   3C4B           03020         sublw 75
                      03021         set@page PB@LB143
0738   1D03           03022         btfss STATUS,2
0739   2F31           03023         goto PB@LB143
  0000073A            03024 F1_000198 equ $ ; IN [FUELSYS.BAS] PRINT AT 2,1, "SENDING SMS....."
073A   3080           03025         movlw 128
073B   00A1           03026         movwf BPFH
073C   30C0           03027         movlw 192
                      03028         f@call LCD@CRS
073F   3009           03029         movlw high (STR@LB18)
0740   00A6           03030         movwf GEN4H
0741   3047           03031         movlw low (STR@LB18)
                      03032         f@call C@STROUT
  00000744            03033 F1_000199 equ $ ; IN [FUELSYS.BAS] DELAYMS 4000
0744   300F           03034         movlw 15
0745   00B0           03035         movwf PP1H
0746   30A0           03036         movlw 160
                      03037         f@call DLY@W
  00000749            03038 F1_000200 equ $ ; IN [FUELSYS.BAS] goto default
                      03039         F@JUMP default
  0000074B            03040 F1_000201 equ $ ; IN [FUELSYS.BAS] endif
074B                  03041 BC@LL140
  0000074B            03042 F1_000202 equ $ ; IN [FUELSYS.BAS] if key_value = "B" THEN goto default
074B   3042           03043         movlw 66
074C   1683           03044         bsf STATUS,5
  00000001            03045 ram_bank = 1
074D   0221           03046         subwf key_value,W
                      03047         set@page BC@LL144
074F   1283           03048         bcf STATUS,5
  00000000            03049 ram_bank = 0
0750   1D03           03050         btfss STATUS,2
0751   2F54           03051         goto BC@LL144
                      03052         F@JUMP default
0754                  03053 BC@LL144
  00000754            03054 F1_000203 equ $ ; IN [FUELSYS.BAS] WEND
                      03055         F@JUMP BC@LL137
0756                  03056 BC@LL138
  00000756            03057 F1_000204 equ $ ; IN [FUELSYS.BAS] return
0756   0008           03058         return
0757                  03059 show_blnc
  00000757            03060 F1_000207 equ $ ; IN [FUELSYS.BAS] CLS
                      03061         f@call LCD@CLS
  00000759            03062 F1_000208 equ $ ; IN [FUELSYS.BAS] PRINT AT 1,1, "YOUR BALANCE"
0759   3080           03063         movlw 128
075A   00A1           03064         movwf BPFH
                      03065         f@call LCD@CRS
075D   300A           03066         movlw high (STR@LB19)
075E   00A6           03067         movwf GEN4H
075F   3023           03068         movlw low (STR@LB19)
                      03069         f@call C@STROUT
0762                  03070 again_1
  00000762            03071 F1_000210 equ $ ; IN [FUELSYS.BAS] HSEROUT[DEC ID_no]
0762   3004           03072         movlw 4
0763   00A1           03073         movwf BPFH
0764   084C           03074         movf ID_no,W
                      03075         f@call OUT@DECB
  00000767            03076 F1_000211 equ $ ; IN [FUELSYS.BAS] HSERIN 1000, again_1,[WAIT("M"), DEC bill]
0767   3003           03077         movlw 3
0768   00A7           03078         movwf GENH
0769   30E8           03079         movlw 232
076A   00A3           03080         movwf GEN
076B                  03081 PB@LB146
                      03082         f@call HRSIN2
                      03083         set@page again_1
076E   1C03           03084         btfss STATUS,0
076F   2F62           03085         goto again_1
0770   3C4D           03086         sublw 77
                      03087         set@page PB@LB146
0772   1D03           03088         btfss STATUS,2
0773   2F6B           03089         goto PB@LB146
0774   01C1           03090         clrf RPFH
0775   01A6           03091         clrf GEN4H
                      03092         f@call IN@DEC32
                      03093         set@page again_1
0779   1C03           03094         btfss STATUS,0
077A   2F62           03095         goto again_1
077B   00C9           03096         movwf bill
  0000077C            03097 F1_000212 equ $ ; IN [FUELSYS.BAS] PRINT AT 2,1, "=", DEC bill, " TK"
077C   3080           03098         movlw 128
077D   00A1           03099         movwf BPFH
077E   30C0           03100         movlw 192
                      03101         f@call LCD@CRS
0781   303D           03102         movlw 61
                      03103         f@call PRINT
0784   0849           03104         movf bill,W
                      03105         f@call OUT@DECB
0787   3020           03106         movlw 32
                      03107         f@call PRINT
078A   3054           03108         movlw 84
                      03109         f@call PRINT
078D   304B           03110         movlw 75
                      03111         f@call PRINT
  00000790            03112 F1_000213 equ $ ; IN [FUELSYS.BAS] DELAYMS 2000
0790   3007           03113         movlw 7
0791   00B0           03114         movwf PP1H
0792   30D0           03115         movlw 208
                      03116         f@call DLY@W
  00000795            03117 F1_000214 equ $ ; IN [FUELSYS.BAS] goto default
                      03118         F@JUMP default
0797                  03119 fuel_fill
  00000797            03120 F1_000217 equ $ ; IN [FUELSYS.BAS] CLS
                      03121         f@call LCD@CLS
  00000799            03122 F1_000218 equ $ ; IN [FUELSYS.BAS] PRINT AT 1,1,"ENTER QUANTITY:"
0799   3080           03123         movlw 128
079A   00A1           03124         movwf BPFH
                      03125         f@call LCD@CRS
079D   300A           03126         movlw high (STR@LB20)
079E   00A6           03127         movwf GEN4H
079F   3030           03128         movlw low (STR@LB20)
                      03129         f@call C@STROUT
  000007A2            03130 F1_000219 equ $ ; IN [FUELSYS.BAS] FOR X = 0 TO 1
07A2   01C4           03131         clrf _X
07A3                  03132 FR@LB147
07A3   3002           03133         movlw 2
07A4   0244           03134         subwf _X,W
                      03135         set@page NX@LB148
07A6   1803           03136         btfsc STATUS,0
07A7   2FF0           03137         goto NX@LB148
  000007A8            03138 F1_000220 equ $ ; IN [FUELSYS.BAS] GOSUB capture_key
                      03139         f@call capture_key
  000007AA            03140 F1_000221 equ $ ; IN [FUELSYS.BAS] PRINT AT 2,X+1, key_value, " LITRE"
07AA   3080           03141         movlw 128
07AB   00A1           03142         movwf BPFH
07AC   3002           03143         movlw 2
07AD   00A3           03144         movwf GEN
07AE   0A44           03145         incf _X,W
                      03146         f@call CURSOR
07B1   1683           03147         bsf STATUS,5
  00000001            03148 ram_bank = 1
07B2   0821           03149         movf key_value,W
07B3   1283           03150         bcf STATUS,5
  00000000            03151 ram_bank = 0
                      03152         f@call PRINT
07B6   300A           03153         movlw high (STR@LB21)
07B7   00A6           03154         movwf GEN4H
07B8   3040           03155         movlw low (STR@LB21)
                      03156         f@call C@STROUT
  000007BB            03157 F1_000222 equ $ ; IN [FUELSYS.BAS] if key_value >= "0" AND key_value <= "9" THEN
07BB   3030           03158         movlw 48
07BC   1683           03159         bsf STATUS,5
  00000001            03160 ram_bank = 1
07BD   0221           03161         subwf key_value,W
07BE   3000           03162         movlw 0
07BF   1803           03163         btfsc STATUS,0
07C0   3001           03164         movlw 1
07C1   1283           03165         bcf STATUS,5
  00000000            03166 ram_bank = 0
07C2   00C2           03167         movwf SP#P9
07C3   1683           03168         bsf STATUS,5
  00000001            03169 ram_bank = 1
07C4   0821           03170         movf key_value,W
07C5   1283           03171         bcf STATUS,5
  00000000            03172 ram_bank = 0
07C6   00AB           03173         movwf PP0
07C7   3039           03174         movlw 57
                      03175         f@call T@LEB
07CA   05C2           03176         andwf SP#P9,F
                      03177         set@page BC@LL150
07CC   1903           03178         btfsc STATUS,2
07CD   2FDA           03179         goto BC@LL150
  000007CE            03180 F1_000223 equ $ ; IN [FUELSYS.BAS] oil[X] = key_value - 48
07CE   3030           03181         movlw 48
07CF   1683           03182         bsf STATUS,5
  00000001            03183 ram_bank = 1
07D0   0221           03184         subwf key_value,W
07D1   1283           03185         bcf STATUS,5
  00000000            03186 ram_bank = 0
07D2   00A9           03187         movwf PBP#VAR0
07D3   0844           03188         movf _X,W
07D4   3E46           03189         addlw oil
07D5   0084           03190         movwf FSR
07D6   0829           03191         movf PBP#VAR0,W
07D7   0080           03192         movwf INDF
                      03193         F@JUMP BC@LL151
07DA                  03194 BC@LL150
  000007DA            03195 F1_000224 equ $ ; IN [FUELSYS.BAS] else
  000007DA            03196 F1_000225 equ $ ; IN [FUELSYS.BAS] PRINT AT 2,1, "error....!!"
07DA   3080           03197         movlw 128
07DB   00A1           03198         movwf BPFH
07DC   30C0           03199         movlw 192
                      03200         f@call LCD@CRS
07DF   300A           03201         movlw high (STR@LB22)
07E0   00A6           03202         movwf GEN4H
07E1   3047           03203         movlw low (STR@LB22)
                      03204         f@call C@STROUT
  000007E4            03205 F1_000226 equ $ ; IN [FUELSYS.BAS] DELAYMS 2000
07E4   3007           03206         movlw 7
07E5   00B0           03207         movwf PP1H
07E6   30D0           03208         movlw 208
                      03209         f@call DLY@W
  000007E9            03210 F1_000227 equ $ ; IN [FUELSYS.BAS] goto default
                      03211         F@JUMP default
  000007EB            03212 F1_000228 equ $ ; IN [FUELSYS.BAS] endif
07EB                  03213 BC@LL151
07EB                  03214 CT@LB149
  000007EB            03215 F1_000229 equ $ ; IN [FUELSYS.BAS] NEXT
07EB   3001           03216         movlw 1
07EC   07C4           03217         addwf _X,F
                      03218         set@page FR@LB147
07EE   1C03           03219         btfss STATUS,0
07EF   2FA3           03220         goto FR@LB147
07F0                  03221 NX@LB148
  000007F0            03222 F1_000230 equ $ ; IN [FUELSYS.BAS] oil_q = (oil[0] * 10) + oil[1]
07F0   0846           03223         movf oil#0,W
07F1   00A9           03224         movwf PBP#VAR0
07F2   01B6           03225         clrf PP3H
07F3   0829           03226         movf PBP#VAR0,W
07F4   00B5           03227         movwf PP3
07F5   01B0           03228         clrf PP1H
07F6   300A           03229         movlw 10
07F7   00AF           03230         movwf PP1
                      03231         f@call M@PY
07FA   00BB           03232         movwf PP7
07FB   0832           03233         movf PP2H,W
07FC   00BC           03234         movwf PP7H
07FD   0847           03235         movf oil#1,W
07FE   00AA           03236         movwf PBP#VAR1
07FF   082A           03237         movf PBP#VAR1,W
0800   073B           03238         addwf PP7,W
0801   00C8           03239         movwf oil_q
  00000802            03240 F1_000231 equ $ ; IN [FUELSYS.BAS] cost = oil_q * 10
0802   01B6           03241         clrf PP3H
0803   0848           03242         movf oil_q,W
0804   00B5           03243         movwf PP3
0805   01B0           03244         clrf PP1H
0806   300A           03245         movlw 10
0807   00AF           03246         movwf PP1
                      03247         f@call M@PY
080A   00CA           03248         movwf cost
080B   0832           03249         movf PP2H,W
080C   00CB           03250         movwf costH
  0000080D            03251 F1_000232 equ $ ; IN [FUELSYS.BAS] if cost > 255 THEN
080D   3001           03252         movlw 1
080E   024B           03253         subwf costH,W
                      03254         set@page BC@LL153
0810   1C03           03255         btfss STATUS,0
0811   2822           03256         goto BC@LL153
  00000812            03257 F1_000233 equ $ ; IN [FUELSYS.BAS] PRINT AT 1,1,"OVERFLOWED."
0812   3080           03258         movlw 128
0813   00A1           03259         movwf BPFH
                      03260         f@call LCD@CRS
0816   300A           03261         movlw high (STR@LB23)
0817   00A6           03262         movwf GEN4H
0818   3053           03263         movlw low (STR@LB23)
                      03264         f@call C@STROUT
  0000081B            03265 F1_000234 equ $ ; IN [FUELSYS.BAS] DELAYMS 2000
081B   3007           03266         movlw 7
081C   00B0           03267         movwf PP1H
081D   30D0           03268         movlw 208
                      03269         f@call DLY@W
  00000820            03270 F1_000235 equ $ ; IN [FUELSYS.BAS] goto default
                      03271         F@JUMP default
  00000822            03272 F1_000236 equ $ ; IN [FUELSYS.BAS] endif
0822                  03273 BC@LL153
  00000822            03274 F1_000237 equ $ ; IN [FUELSYS.BAS] CLS
                      03275         f@call LCD@CLS
  00000824            03276 F1_000238 equ $ ; IN [FUELSYS.BAS] PRINT AT 1,1,"bill: ", DEC cost, "TK"
0824   3080           03277         movlw 128
0825   00A1           03278         movwf BPFH
                      03279         f@call LCD@CRS
0828   300A           03280         movlw high (STR@LB24)
0829   00A6           03281         movwf GEN4H
082A   305F           03282         movlw low (STR@LB24)
                      03283         f@call C@STROUT
082D   01A6           03284         clrf GEN4H
082E   084B           03285         movf costH,W
082F   00B2           03286         movwf PP2H
0830   084A           03287         movf cost,W
0831   00B1           03288         movwf PP2
                      03289         f@call OUT@DEC
0834   3054           03290         movlw 84
                      03291         f@call PRINT
0837   304B           03292         movlw 75
                      03293         f@call PRINT
  0000083A            03294 F1_000239 equ $ ; IN [FUELSYS.BAS] PRINT AT 2,1, "A:CONFIRM B:BACK"
083A   3080           03295         movlw 128
083B   00A1           03296         movwf BPFH
083C   30C0           03297         movlw 192
                      03298         f@call LCD@CRS
083F   300A           03299         movlw high (STR@LB25)
0840   00A6           03300         movwf GEN4H
0841   3001           03301         movlw low (STR@LB25)
                      03302         f@call C@STROUT
  00000844            03303 F1_000241 equ $ ; IN [FUELSYS.BAS] while 1 = 1
0844                  03304 BC@LL154
  00000844            03305 F1_000242 equ $ ; IN [FUELSYS.BAS] GOSUB capture_key
                      03306         f@call capture_key
  00000846            03307 F1_000243 equ $ ; IN [FUELSYS.BAS] if key_value = "A" THEN GOSUB fillng
0846   3041           03308         movlw 65
0847   1683           03309         bsf STATUS,5
  00000001            03310 ram_bank = 1
0848   0221           03311         subwf key_value,W
                      03312         set@page BC@LL157
084A   1283           03313         bcf STATUS,5
  00000000            03314 ram_bank = 0
084B   1D03           03315         btfss STATUS,2
084C   284F           03316         goto BC@LL157
                      03317         f@call fillng
084F                  03318 BC@LL157
  0000084F            03319 F1_000244 equ $ ; IN [FUELSYS.BAS] if key_value = "B" THEN goto default
084F   3042           03320         movlw 66
0850   1683           03321         bsf STATUS,5
  00000001            03322 ram_bank = 1
0851   0221           03323         subwf key_value,W
                      03324         set@page BC@LL159
0853   1283           03325         bcf STATUS,5
  00000000            03326 ram_bank = 0
0854   1D03           03327         btfss STATUS,2
0855   2858           03328         goto BC@LL159
                      03329         F@JUMP default
0858                  03330 BC@LL159
  00000858            03331 F1_000245 equ $ ; IN [FUELSYS.BAS] WEND
                      03332         F@JUMP BC@LL154
085A                  03333 BC@LL155
085A                  03334 fillng
  0000085A            03335 F1_000248 equ $ ; IN [FUELSYS.BAS] CLS
                      03336         f@call LCD@CLS
  0000085C            03337 F1_000249 equ $ ; IN [FUELSYS.BAS] PRINT AT 1,1,"CHACKING BLNC..."
085C   3080           03338         movlw 128
085D   00A1           03339         movwf BPFH
                      03340         f@call LCD@CRS
0860   300A           03341         movlw high (STR@LB26)
0861   00A6           03342         movwf GEN4H
0862   3066           03343         movlw low (STR@LB26)
                      03344         f@call C@STROUT
0865                  03345 again_3
  00000865            03346 F1_000251 equ $ ; IN [FUELSYS.BAS] HSEROUT[DEC ID_no]
0865   3004           03347         movlw 4
0866   00A1           03348         movwf BPFH
0867   084C           03349         movf ID_no,W
                      03350         f@call OUT@DECB
  0000086A            03351 F1_000252 equ $ ; IN [FUELSYS.BAS] HSERIN 1000, again_3,[WAIT("M"), DEC bill]
086A   3003           03352         movlw 3
086B   00A7           03353         movwf GENH
086C   30E8           03354         movlw 232
086D   00A3           03355         movwf GEN
086E                  03356 PB@LB161
                      03357         f@call HRSIN2
                      03358         set@page again_3
0871   1C03           03359         btfss STATUS,0
0872   2865           03360         goto again_3
0873   3C4D           03361         sublw 77
                      03362         set@page PB@LB161
0875   1D03           03363         btfss STATUS,2
0876   286E           03364         goto PB@LB161
0877   01C1           03365         clrf RPFH
0878   01A6           03366         clrf GEN4H
                      03367         f@call IN@DEC32
                      03368         set@page again_3
087C   1C03           03369         btfss STATUS,0
087D   2865           03370         goto again_3
087E   00C9           03371         movwf bill
  0000087F            03372 F1_000253 equ $ ; IN [FUELSYS.BAS] if cost > bill THEN
087F   08CB           03373         movf costH,F
                      03374         set@page CP@LB3
0881   1D03           03375         btfss STATUS,2
0882   2888           03376         goto CP@LB3
0883   084A           03377         movf cost,W
0884   0249           03378         subwf bill,W
                      03379         set@page BC@LL162
0886   1803           03380         btfsc STATUS,0
0887   289A           03381         goto BC@LL162
0888                  03382 CP@LB3
  00000888            03383 F1_000254 equ $ ; IN [FUELSYS.BAS] PRINT AT 1,1,"BALANCE IS low."
0888   3080           03384         movlw 128
0889   00A1           03385         movwf BPFH
                      03386         f@call LCD@CRS
088C   300A           03387         movlw high (STR@LB27)
088D   00A6           03388         movwf GEN4H
088E   3077           03389         movlw low (STR@LB27)
                      03390         f@call C@STROUT
  00000891            03391 F1_000255 equ $ ; IN [FUELSYS.BAS] DELAYMS 2000
0891   3007           03392         movlw 7
0892   00B0           03393         movwf PP1H
0893   30D0           03394         movlw 208
                      03395         f@call DLY@W
  00000896            03396 F1_000256 equ $ ; IN [FUELSYS.BAS] goto default
                      03397         F@JUMP default
                      03398         F@JUMP BC@LL163
089A                  03399 BC@LL162
  0000089A            03400 F1_000257 equ $ ; IN [FUELSYS.BAS] else
089A                  03401 again_4
  0000089A            03402 F1_000259 equ $ ; IN [FUELSYS.BAS] HSEROUT["U"]
089A   3055           03403         movlw 85
                      03404         f@call HRSOUT
  0000089D            03405 F1_000260 equ $ ; IN [FUELSYS.BAS] HSERIN 1000, again_4,[WAIT("B")]
089D   3003           03406         movlw 3
089E   00A7           03407         movwf GENH
089F   30E8           03408         movlw 232
08A0   00A3           03409         movwf GEN
08A1                  03410 PB@LB165
                      03411         f@call HRSIN2
                      03412         set@page again_4
08A4   1C03           03413         btfss STATUS,0
08A5   289A           03414         goto again_4
08A6   3C42           03415         sublw 66
                      03416         set@page PB@LB165
08A8   1D03           03417         btfss STATUS,2
08A9   28A1           03418         goto PB@LB165
  000008AA            03419 F1_000261 equ $ ; IN [FUELSYS.BAS] HSEROUT[DEC ID_no]
08AA   3004           03420         movlw 4
08AB   00A1           03421         movwf BPFH
08AC   084C           03422         movf ID_no,W
                      03423         f@call OUT@DECB
  000008AF            03424 F1_000262 equ $ ; IN [FUELSYS.BAS] HSEROUT[DEC oil[0]]
08AF   3004           03425         movlw 4
08B0   00A1           03426         movwf BPFH
08B1   0846           03427         movf oil#0,W
                      03428         f@call OUT@DECB
  000008B4            03429 F1_000263 equ $ ; IN [FUELSYS.BAS] HSEROUT[DEC oil[1]]
08B4   3004           03430         movlw 4
08B5   00A1           03431         movwf BPFH
08B6   0847           03432         movf oil#1,W
                      03433         f@call OUT@DECB
  000008B9            03434 F1_000264 equ $ ; IN [FUELSYS.BAS] PRINT AT 1,1,"BALANCE UPDATED."
08B9   3080           03435         movlw 128
08BA   00A1           03436         movwf BPFH
                      03437         f@call LCD@CRS
08BD   300A           03438         movlw high (STR@LB28)
08BE   00A6           03439         movwf GEN4H
08BF   3087           03440         movlw low (STR@LB28)
                      03441         f@call C@STROUT
  000008C2            03442 F1_000265 equ $ ; IN [FUELSYS.BAS] DELAYMS 1000
08C2   3003           03443         movlw 3
08C3   00B0           03444         movwf PP1H
08C4   30E8           03445         movlw 232
                      03446         f@call DLY@W
  000008C7            03447 F1_000266 equ $ ; IN [FUELSYS.BAS] endif
08C7                  03448 BC@LL163
  000008C7            03449 F1_000267 equ $ ; IN [FUELSYS.BAS] CLS
                      03450         f@call LCD@CLS
  000008C9            03451 F1_000268 equ $ ; IN [FUELSYS.BAS] PRINT AT 1,1,"fillng FUEL..."
08C9   3080           03452         movlw 128
08CA   00A1           03453         movwf BPFH
                      03454         f@call LCD@CRS
08CD   300A           03455         movlw high (STR@LB29)
08CE   00A6           03456         movwf GEN4H
08CF   3098           03457         movlw low (STR@LB29)
                      03458         f@call C@STROUT
  000008D2            03459 F1_000269 equ $ ; IN [FUELSYS.BAS] FOR Y = 0 TO oil_q
08D2   01C5           03460         clrf _Y
08D3                  03461 FR@LB166
08D3   0845           03462         movf _Y,W
08D4   0248           03463         subwf oil_q,W
                      03464         set@page NX@LB167
08D6   1C03           03465         btfss STATUS,0
08D7   290C           03466         goto NX@LB167
  000008D8            03467 F1_000270 equ $ ; IN [FUELSYS.BAS] FOR X = 0 TO 4
08D8   01C4           03468         clrf _X
08D9                  03469 FR@LB169
08D9   3005           03470         movlw 5
08DA   0244           03471         subwf _X,W
                      03472         set@page NX@LB170
08DC   1803           03473         btfsc STATUS,0
08DD   2907           03474         goto NX@LB170
  000008DE            03475 F1_000271 equ $ ; IN [FUELSYS.BAS] pump = 1
08DE   1685           03476         bsf PORTA,5
  000008DF            03477 F1_000272 equ $ ; IN [FUELSYS.BAS] PRINT AT 1,1,"REMAINING:", DEC oil_q - Y, " L. "
08DF   3080           03478         movlw 128
08E0   00A1           03479         movwf BPFH
                      03480         f@call LCD@CRS
08E3   300A           03481         movlw high (STR@LB30)
08E4   00A6           03482         movwf GEN4H
08E5   30A7           03483         movlw low (STR@LB30)
                      03484         f@call C@STROUT
08E8   01A6           03485         clrf GEN4H
08E9   0845           03486         movf _Y,W
08EA   0248           03487         subwf oil_q,W
08EB   00B1           03488         movwf PP2
08EC   01B2           03489         clrf PP2H
08ED   1C03           03490         btfss STATUS,0
08EE   03B2           03491         decf PP2H,F
                      03492         f@call OUT@DEC
08F1   3020           03493         movlw 32
                      03494         f@call PRINT
08F4   304C           03495         movlw 76
                      03496         f@call PRINT
08F7   302E           03497         movlw 46
                      03498         f@call PRINT
08FA   3020           03499         movlw 32
                      03500         f@call PRINT
  000008FD            03501 F1_000273 equ $ ; IN [FUELSYS.BAS] DELAYMS 1000
08FD   3003           03502         movlw 3
08FE   00B0           03503         movwf PP1H
08FF   30E8           03504         movlw 232
                      03505         f@call DLY@W
0902                  03506 CT@LB171
  00000902            03507 F1_000274 equ $ ; IN [FUELSYS.BAS] NEXT
0902   3001           03508         movlw 1
0903   07C4           03509         addwf _X,F
                      03510         set@page FR@LB169
0905   1C03           03511         btfss STATUS,0
0906   28D9           03512         goto FR@LB169
0907                  03513 NX@LB170
0907                  03514 CT@LB168
  00000907            03515 F1_000275 equ $ ; IN [FUELSYS.BAS] NEXT
0907   3001           03516         movlw 1
0908   07C5           03517         addwf _Y,F
                      03518         set@page FR@LB166
090A   1C03           03519         btfss STATUS,0
090B   28D3           03520         goto FR@LB166
090C                  03521 NX@LB167
  0000090C            03522 F1_000276 equ $ ; IN [FUELSYS.BAS] pump = 0
090C   1285           03523         bcf PORTA,5
  0000090D            03524 F1_000277 equ $ ; IN [FUELSYS.BAS] PRINT AT 2,1,"DONE. THANKS."
090D   3080           03525         movlw 128
090E   00A1           03526         movwf BPFH
090F   30C0           03527         movlw 192
                      03528         f@call LCD@CRS
0912   300A           03529         movlw high (STR@LB31)
0913   00A6           03530         movwf GEN4H
0914   30B2           03531         movlw low (STR@LB31)
                      03532         f@call C@STROUT
  00000917            03533 F1_000278 equ $ ; IN [FUELSYS.BAS] DELAYMS 2000
0917   3007           03534         movlw 7
0918   00B0           03535         movwf PP1H
0919   30D0           03536         movlw 208
                      03537         f@call DLY@W
091C                  03538 default
  0000091C            03539 F1_000281 equ $ ; IN [FUELSYS.BAS] CLS
                      03540         f@call LCD@CLS
  0000091E            03541 F1_000282 equ $ ; IN [FUELSYS.BAS] PRINT AT 1,1,"A: CARD B: PASWD"
091E   3080           03542         movlw 128
091F   00A1           03543         movwf BPFH
                      03544         f@call LCD@CRS
0922   300A           03545         movlw high (STR@LB32)
0923   00A6           03546         movwf GEN4H
0924   30C0           03547         movlw low (STR@LB32)
                      03548         f@call C@STROUT
  00000927            03549 F1_000283 equ $ ; IN [FUELSYS.BAS] PRINT AT 2,1,"C: CARD + PASWD "
0927   3080           03550         movlw 128
0928   00A1           03551         movwf BPFH
0929   30C0           03552         movlw 192
                      03553         f@call LCD@CRS
092C   300A           03554         movlw high (STR@LB33)
092D   00A6           03555         movwf GEN4H
092E   30D1           03556         movlw low (STR@LB33)
                      03557         f@call C@STROUT
  00000931            03558 F1_000284 equ $ ; IN [FUELSYS.BAS] ID_no = 0
0931   01CC           03559         clrf ID_no
  00000932            03560 F1_000285 equ $ ; IN [FUELSYS.BAS] goto main
                      03561         F@JUMP main
  00000934            03562 F1_EOF equ $ ; FUELSYS.BAS
0934                  03563 PB@LB172
                      03564         F@JUMP PB@LB172
0936                  03566 STR@LB1
0936   0046 0075 0065 03567         de 70,117,101,108,32,76,101,118,101,108,58,32,72,73,71,72,0
       006C 0020 004C 
       0065 0076 0065 
       006C 003A 0020 
       0048 0049 0047 
       0048 0000 
0947                  03568 STR@LB2
0947                  03569 STR@LB4
0947                  03570 STR@LB18
0947   0053 0065 006E 03571         de 83,101,110,100,105,110,103,32,83,77,83,46,46,46,46,46,0
       0064 0069 006E 
       0067 0020 0053 
       004D 0053 002E 
       002E 002E 002E 
       002E 0000 
0958                  03572 STR@LB3
0958   0046 0075 0065 03573         de 70,117,101,108,32,76,101,118,101,108,58,32,76,79,87,0
       006C 0020 004C 
       0065 0076 0065 
       006C 003A 0020 
       004C 004F 0057 
       0000 
0968                  03574 STR@LB5
0968   0045 006E 0074 03575         de 69,110,116,101,114,32,117,114,32,112,97,115,115,58,0
       0065 0072 0020 
       0075 0072 0020 
       0070 0061 0073 
       0073 003A 0000 
0977                  03576 STR@LB6
0977   004D 0061 0074 03577         de 77,97,116,99,104,101,100,46,0
       0063 0068 0065 
       0064 002E 0000 
0980                  03578 STR@LB7
0980   0049 0044 0020 03579         de 73,68,32,78,111,58,32,0
       004E 006F 003A 
       0020 0000 
0988                  03580 STR@LB8
0988   004E 006F 0020 03581         de 78,111,32,77,97,116,99,104,32,70,111,117,110,100,46,0
       004D 0061 0074 
       0063 0068 0020 
       0046 006F 0075 
       006E 0064 002E 
       0000 
0998                  03582 STR@LB9
0998   0057 0061 0069 03583         de 87,97,105,116,105,110,103,32,102,111,114,32,97,0
       0074 0069 006E 
       0067 0020 0066 
       006F 0072 0020 
       0061 0000 
09A6                  03584 STR@LB10
09A6   0072 0065 0067 03585         de 114,101,103,105,115,116,101,114,101,100,32,99,97,114,100,46,0
       0069 0073 0074 
       0065 0072 0065 
       0064 0020 0063 
       0061 0072 0064 
       002E 0000 
09B7                  03586 STR@LB11
09B7   0055 006E 0072 03587         de 85,110,114,101,103,105,115,116,101,114,101,100,46,46,0
       0065 0067 0069 
       0073 0074 0065 
       0072 0065 0064 
       002E 002E 0000 
09C6                  03588 STR@LB12
09C6   0043 0061 0072 03589         de 67,97,114,100,32,73,68,32,110,111,58,32,0
       0064 0020 0049 
       0044 0020 006E 
       006F 003A 0020 
       0000 
09D3                  03590 STR@LB13
09D3   0041 003A 0020 03591         de 65,58,32,70,105,108,108,32,70,117,101,108,0
       0046 0069 006C 
       006C 0020 0046 
       0075 0065 006C 
       0000 
09E0                  03592 STR@LB14
09E0   0042 003A 002B 03593         de 66,58,43,50,48,84,75,32,67,58,32,66,108,110,99,0
       0032 0030 0054 
       004B 0020 0043 
       003A 0020 0042 
       006C 006E 0063 
       0000 
09F0                  03594 STR@LB15
09F0   0052 0065 0063 03595         de 82,101,99,104,97,114,103,101,32,117,114,32,99,97,114,100,0
       0068 0061 0072 
       0067 0065 0020 
       0075 0072 0020 
       0063 0061 0072 
       0064 0000 
0A01                  03596 STR@LB16
0A01                  03597 STR@LB25
0A01   0041 003A 0043 03598         de 65,58,67,111,110,102,105,114,109,32,66,58,66,97,99,107,0
       006F 006E 0066 
       0069 0072 006D 
       0020 0042 003A 
       0042 0061 0063 
       006B 0000 
0A12                  03599 STR@LB17
0A12   0052 0065 0063 03600         de 82,101,99,104,97,114,103,105,110,103,46,46,46,46,46,46,0
       0068 0061 0072 
       0067 0069 006E 
       0067 002E 002E 
       002E 002E 002E 
       002E 0000 
0A23                  03601 STR@LB19
0A23   0059 006F 0075 03602         de 89,111,117,114,32,98,97,108,97,110,99,101,0
       0072 0020 0062 
       0061 006C 0061 
       006E 0063 0065 
       0000 
0A30                  03603 STR@LB20
0A30   0045 006E 0074 03604         de 69,110,116,101,114,32,113,117,97,110,116,105,116,121,58,0
       0065 0072 0020 
       0071 0075 0061 
       006E 0074 0069 
       0074 0079 003A 
       0000 
0A40                  03605 STR@LB21
0A40   0020 004C 0069 03606         de 32,76,105,116,114,101,0
       0074 0072 0065 
       0000 
0A47                  03607 STR@LB22
0A47   0045 0072 0072 03608         de 69,114,114,111,114,46,46,46,46,33,33,0
       006F 0072 002E 
       002E 002E 002E 
       0021 0021 0000 
0A53                  03609 STR@LB23
0A53   004F 0076 0065 03610         de 79,118,101,114,102,108,111,119,101,100,46,0
       0072 0066 006C 
       006F 0077 0065 
       0064 002E 0000 
0A5F                  03611 STR@LB24
0A5F   0042 0069 006C 03612         de 66,105,108,108,58,32,0
       006C 003A 0020 
       0000 
0A66                  03613 STR@LB26
0A66   0043 0068 0061 03614         de 67,104,97,99,107,105,110,103,32,66,108,110,99,46,46,46,0
       0063 006B 0069 
       006E 0067 0020 
       0042 006C 006E 
       0063 002E 002E 
       002E 0000 
0A77                  03615 STR@LB27
0A77   0042 0061 006C 03616         de 66,97,108,97,110,99,101,32,105,115,32,76,111,119,46,0
       0061 006E 0063 
       0065 0020 0069 
       0073 0020 004C 
       006F 0077 002E 
       0000 
0A87                  03617 STR@LB28
0A87   0042 0061 006C 03618         de 66,97,108,97,110,99,101,32,85,112,100,97,116,101,100,46,0
       0061 006E 0063 
       0065 0020 0055 
       0070 0064 0061 
       0074 0065 0064 
       002E 0000 
0A98                  03619 STR@LB29
0A98   0046 0069 006C 03620         de 70,105,108,108,110,103,32,70,117,101,108,46,46,46,0
       006C 006E 0067 
       0020 0046 0075 
       0065 006C 002E 
       002E 002E 0000 
0AA7                  03621 STR@LB30
0AA7   0052 0065 006D 03622         de 82,101,109,97,105,110,105,110,103,58,0
       0061 0069 006E 
       0069 006E 0067 
       003A 0000 
0AB2                  03623 STR@LB31
0AB2   0044 006F 006E 03624         de 68,111,110,101,46,32,84,104,97,110,107,115,46,0
       0065 002E 0020 
       0054 0068 0061 
       006E 006B 0073 
       002E 0000 
0AC0                  03625 STR@LB32
0AC0   0041 003A 0020 03626         de 65,58,32,67,97,114,100,32,66,58,32,80,97,115,119,100,0
       0043 0061 0072 
       0064 0020 0042 
       003A 0020 0050 
       0061 0073 0077 
       0064 0000 
0AD1                  03627 STR@LB33
0AD1   0043 003A 0020 03628         de 67,58,32,67,97,114,100,32,43,32,80,97,115,119,100,32,0
       0043 0061 0072 
       0064 0020 002B 
       0020 0050 0061 
       0073 0077 0064 
       0020 0000 
0AE2                  03629 __EOF
2007   3FAA           03630 __config FOSC_HS&WDTE_OFF&PWRTE_OFF&CP_ON&BOREN_OFF
                      03631         end
MPASM  5.42                               A.S   11-23-2017  19:24:39         PAGE  2


SYMBOL TABLE
  LABEL                             VALUE 

ADCON0                            0000001F
ADCON1                            0000009F
ADCS0                             00000006
ADCS1                             00000007
ADIE                              00000006
ADIF                              00000006
ADON                              00000000
ADRES                             0000001E
AGAIN_1                           00000762
AGAIN_2                           00000718
AGAIN_3                           00000865
AGAIN_4                           0000089A
AL@MUL                            000001A1
BANK0_END                         0X7F
BANK0_START                       0X20
BANK1_END                         0X00FF
BANK1_START                       0X00A0
BANK2_END                         0X0120
BANK2_START                       0X0110
BANK3_END                         0X01A0
BANK3_START                       0X0190
BC@LL1                            00000259
BC@LL10                           0000029D
BC@LL101                          000005B0
BC@LL103                          000005CA
BC@LL105                          000005D1
BC@LL107                          000005D7
BC@LL109                          000005DE
BC@LL11                           000002A8
BC@LL111                          000005E5
BC@LL113                          000005EC
BC@LL115                          000005F3
BC@LL117                          00000603
BC@LL12                           000002B3
BC@LL123                          00000682
BC@LL124                          000006AB
BC@LL126                          000006A9
BC@LL127                          000006C8
BC@LL128                          000006F0
BC@LL13                           000002BC
BC@LL130                          000006D3
BC@LL132                          000006DC
BC@LL134                          000006E5
BC@LL136                          000006EE
BC@LL137                          00000705
BC@LL138                          00000756
BC@LL14                           000002ED
BC@LL140                          0000074B
BC@LL144                          00000754
BC@LL15                           000002CE
BC@LL150                          000007DA
BC@LL151                          000007EB
BC@LL153                          00000822
BC@LL154                          00000844
BC@LL155                          0000085A
BC@LL157                          0000084F
BC@LL159                          00000858
BC@LL16                           000002D9
BC@LL162                          0000089A
BC@LL163                          000008C7
BC@LL17                           000002E4
BC@LL18                           000002ED
BC@LL19                           0000031E
BC@LL2                            00000324
BC@LL20                           000002FF
BC@LL21                           0000030A
BC@LL22                           00000315
BC@LL23                           0000031E
BC@LL24                           00000455
BC@LL25                           00000331
BC@LL28                           00000343
BC@LL3                            0000031E
BC@LL30                           00000355
BC@LL32                           00000367
BC@LL34                           00000379
BC@LL36                           0000038B
BC@LL38                           0000039D
BC@LL4                            0000028B
BC@LL40                           000003AF
BC@LL42                           000003C1
BC@LL44                           000003D3
BC@LL46                           000003E5
BC@LL48                           000003F7
BC@LL5                            0000026C
BC@LL50                           00000409
BC@LL52                           0000041B
BC@LL54                           0000042D
BC@LL56                           0000043F
BC@LL58                           00000451
BC@LL6                            00000277
BC@LL60                           00000455
BC@LL62                           0000045D
BC@LL64                           00000462
BC@LL66                           0000048F
BC@LL67                           00000470
BC@LL68                           0000047E
BC@LL7                            00000282
BC@LL70                           000004BC
BC@LL71                           0000049D
BC@LL72                           000004AB
BC@LL74                           000004D0
BC@LL76                           000004D7
BC@LL78                           000004DE
BC@LL8                            0000028B
BC@LL9                            000002BC
BC@LL95                           00000562
BC@LL97                           0000057C
BC@LL99                           00000596
BF                                00000000
BILL                              00000049
BIT_BIT                           
BIT_BYTE                          
BIT_DWORD                         
BIT_WORD                          
BIT_WREG                          
BODEN_OFF                         00003FBF
BODEN_ON                          00003FFF
BOREN_OFF                         00003FBF
BOREN_ON                          00003FFF
BPF                               00000020
BPFH                              00000021
BRGH                              00000002
BYTE_BIT                          
BYTE_BYTE                         
BYTE_DWORD                        
BYTE_WORD                         
BYTE_WREG                         
C                                 00000000
C@READ                            00000160
C@STROUT                          0000014D
C@STROUTLP                        0000014F
C@STROUTW                         0000014E
CAPTURE_KEY                       00000256
CARD_ID                           0000004E
CARD_ID#0                         0000004E
CARD_ID#1                         0000004F
CCP1CON                           00000017
CCP1IE                            00000002
CCP1IF                            00000002
CCP1M0                            00000000
CCP1M1                            00000001
CCP1M2                            00000002
CCP1M3                            00000003
CCP1X                             00000005
CCP1Y                             00000004
CCP2CON                           0000001D
CCP2IE                            00000000
CCP2IF                            00000000
CCP2M0                            00000000
CCP2M1                            00000001
CCP2M2                            00000002
CCP2M3                            00000003
CCP2X                             00000005
CCP2Y                             00000004
CCPR1H                            00000016
CCPR1L                            00000015
CCPR1LH                           00000016
CCPR2H                            0000001C
CCPR2L                            0000001B
CCPR2LH                           0000001C
CH@RCV                            00000147
CH@SND                            00000142
CHECKING                          0000024A
CHECK_SERIAL                      000004BF
CHS0                              00000003
CHS1                              00000004
CHS2                              00000005
CKE                               00000006
CKP                               00000004
CLS                               00000017
COL_1                             PORTC,3
COL_2                             PORTC,2
COL_3                             PORTC,1
COL_4                             PORTC,0
CONFIG_REQ                        1
COST                              0000004A
COSTH                             0000004B
CP@LB3                            00000888
CP_ALL                            00003FEF
CP_OFF                            00003FFF
CP_ON                             00003FEF
CREN                              00000004
CSRC                              00000007
CSTR#CT                           00000022
CT@LB149                          000007EB
CT@LB168                          00000907
CT@LB171                          00000902
CT@LB82                           000004F1
CT@LB85                           00000509
CT@LB88                           00000536
CT@LB91                           00000627
CT@LB94                           00000622
CURRENT@PAGE                      00000000
CURS@                             00000045
CURSOR                            00000021
D@DIG                             000000AD
D@VD                              00000185
D@VD2                             00000187
DATA_ADDRESS                      00000005
DC                                00000001
DEFAULT                           0000091C
DEST@PAGE                         00000000
DL@MS                             00000168
DL@US                             00000175
DLUS@W                            00000176
DLY@P                             0000016A
DLY@W                             00000169
DWORD_BIT                         
DWORD_BYTE                        
DWORD_DWORD                       
DWORD_WORD                        
DWORD_WREG                        
D_A                               00000005
EEADR                             0000010D
EEADRH                            0000010F
EECON1                            0000018C
EEDAT                             0000010C
EEDATA                            0000010C
EEDATH                            0000010E
EEDATL                            0000010C
EEDATLH                           0000010E
EX@SEND@IT                        000000C5
F1_000021                         000001E7
F1_000022                         000001EA
F1_000029                         000001ED
F1_000030                         000001F0
F1_000031                         000001F1
F1_000050                         000001F3
F1_000051                         000001F6
F1_000054                         000001F8
F1_000055                         00000208
F1_000056                         00000218
F1_000057                         00000228
F1_000058                         00000238
F1_000060                         00000248
F1_000065                         00000456
F1_000066                         00000458
F1_000067                         0000045D
F1_000068                         00000462
F1_000069                         00000465
F1_000070                         00000467
F1_000071                         00000470
F1_000072                         00000473
F1_000073                         0000047C
F1_000074                         0000047E
F1_000075                         00000488
F1_000076                         0000048D
F1_000077                         0000048F
F1_000078                         0000048F
F1_000079                         00000492
F1_000080                         00000494
F1_000081                         0000049D
F1_000082                         000004A0
F1_000083                         000004A9
F1_000084                         000004AB
F1_000085                         000004B5
F1_000086                         000004BA
F1_000087                         000004BC
F1_000088                         000004BC
F1_000089                         000004BD
F1_000092                         000004BF
F1_000093                         000004C9
F1_000094                         000004D0
F1_000095                         000004D7
F1_000097                         000004DE
F1_000100                         000004DF
F1_000101                         000004E5
F1_000102                         000004E6
F1_000103                         000004EB
F1_000104                         000004EC
F1_000105                         000004F1
F1_000106                         000004F6
F1_000109                         000004F7
F1_000110                         000004FD
F1_000111                         000004FE
F1_000112                         00000503
F1_000113                         00000504
F1_000114                         00000509
F1_000115                         0000050E
F1_000118                         0000050F
F1_000119                         00000511
F1_000120                         0000051A
F1_000121                         00000520
F1_000122                         00000522
F1_000123                         00000528
F1_000124                         00000536
F1_000125                         0000053B
F1_000126                         0000053D
F1_000127                         00000543
F1_000128                         00000549
F1_000129                         00000562
F1_000130                         0000057C
F1_000131                         00000596
F1_000132                         000005B0
F1_000133                         000005CA
F1_000134                         000005D1
F1_000135                         000005D7
F1_000136                         000005DE
F1_000137                         000005E5
F1_000138                         000005EC
F1_000139                         000005F3
F1_000140                         00000603
F1_000141                         0000060C
F1_000142                         0000061B
F1_000143                         00000620
F1_000144                         00000622
F1_000145                         00000627
F1_000146                         0000062C
F1_000147                         0000062D
F1_000148                         00000636
F1_000149                         0000063B
F1_000150                         0000063D
F1_000153                         0000063E
F1_000154                         00000640
F1_000155                         00000649
F1_000156                         00000653
F1_000157                         0000066D
F1_000158                         0000066F
F1_000159                         00000676
F1_000160                         00000682
F1_000161                         00000682
F1_000162                         00000687
F1_000163                         0000069B
F1_000164                         0000069D
F1_000165                         000006A2
F1_000166                         000006A9
F1_000167                         000006AB
F1_000168                         000006AB
F1_000169                         000006B0
F1_000170                         000006B2
F1_000173                         000006B3
F1_000174                         000006B5
F1_000175                         000006BE
F1_000177                         000006C8
F1_000178                         000006C8
F1_000179                         000006CA
F1_000180                         000006D3
F1_000181                         000006DC
F1_000182                         000006E5
F1_000183                         000006EE
F1_000186                         000006F0
F1_000187                         000006F2
F1_000188                         000006FB
F1_000189                         00000705
F1_000190                         00000705
F1_000191                         00000707
F1_000192                         0000070E
F1_000194                         00000718
F1_000195                         0000071B
F1_000196                         00000728
F1_000197                         0000072D
F1_000198                         0000073A
F1_000199                         00000744
F1_000200                         00000749
F1_000201                         0000074B
F1_000202                         0000074B
F1_000203                         00000754
F1_000204                         00000756
F1_000207                         00000757
F1_000208                         00000759
F1_000210                         00000762
F1_000211                         00000767
F1_000212                         0000077C
F1_000213                         00000790
F1_000214                         00000795
F1_000217                         00000797
F1_000218                         00000799
F1_000219                         000007A2
F1_000220                         000007A8
F1_000221                         000007AA
F1_000222                         000007BB
F1_000223                         000007CE
F1_000224                         000007DA
F1_000225                         000007DA
F1_000226                         000007E4
F1_000227                         000007E9
F1_000228                         000007EB
F1_000229                         000007EB
F1_000230                         000007F0
F1_000231                         00000802
F1_000232                         0000080D
F1_000233                         00000812
F1_000234                         0000081B
F1_000235                         00000820
F1_000236                         00000822
F1_000237                         00000822
F1_000238                         00000824
F1_000239                         0000083A
F1_000241                         00000844
F1_000242                         00000844
F1_000243                         00000846
F1_000244                         0000084F
F1_000245                         00000858
F1_000248                         0000085A
F1_000249                         0000085C
F1_000251                         00000865
F1_000252                         0000086A
F1_000253                         0000087F
F1_000254                         00000888
F1_000255                         00000891
F1_000256                         00000896
F1_000257                         0000089A
F1_000259                         0000089A
F1_000260                         0000089D
F1_000261                         000008AA
F1_000262                         000008AF
F1_000263                         000008B4
F1_000264                         000008B9
F1_000265                         000008C2
F1_000266                         000008C7
F1_000267                         000008C7
F1_000268                         000008C9
F1_000269                         000008D2
F1_000270                         000008D8
F1_000271                         000008DE
F1_000272                         000008DF
F1_000273                         000008FD
F1_000274                         00000902
F1_000275                         00000907
F1_000276                         0000090C
F1_000277                         0000090D
F1_000278                         00000917
F1_000281                         0000091C
F1_000282                         0000091E
F1_000283                         00000927
F1_000284                         00000931
F1_000285                         00000932
F1_EOF                            00000934
F1_SOF                            000001E7
F2_EOF                            000001E7
F2_SOF                            000001E7
F3_000022                         0000024A
F3_000023                         0000024F
F3_000027                         00000253
F3_000030                         00000256
F3_000031                         00000259
F3_000032                         0000025A
F3_000033                         0000025E
F3_000034                         00000261
F3_000035                         00000264
F3_000036                         0000026C
F3_000037                         0000026F
F3_000038                         00000277
F3_000039                         0000027A
F3_000040                         00000282
F3_000041                         00000285
F3_000042                         0000028B
F3_000043                         0000028B
F3_000044                         0000028F
F3_000045                         00000292
F3_000046                         00000295
F3_000047                         0000029D
F3_000048                         000002A0
F3_000049                         000002A8
F3_000050                         000002AB
F3_000051                         000002B3
F3_000052                         000002B6
F3_000053                         000002BC
F3_000054                         000002BC
F3_000055                         000002C0
F3_000056                         000002C3
F3_000057                         000002C6
F3_000058                         000002CE
F3_000059                         000002D1
F3_000060                         000002D9
F3_000061                         000002DC
F3_000062                         000002E4
F3_000063                         000002E7
F3_000064                         000002ED
F3_000065                         000002ED
F3_000066                         000002F1
F3_000067                         000002F4
F3_000068                         000002F7
F3_000069                         000002FF
F3_000070                         00000302
F3_000071                         0000030A
F3_000072                         0000030D
F3_000073                         00000315
F3_000074                         00000318
F3_000075                         0000031E
F3_000076                         0000031E
F3_000077                         00000324
F3_000080                         00000325
F3_000081                         00000325
F3_000082                         00000331
F3_000083                         00000343
F3_000084                         00000355
F3_000085                         00000367
F3_000086                         00000379
F3_000087                         0000038B
F3_000088                         0000039D
F3_000089                         000003AF
F3_000090                         000003C1
F3_000091                         000003D3
F3_000092                         000003E5
F3_000093                         000003F7
F3_000094                         00000409
F3_000095                         0000041B
F3_000096                         0000042D
F3_000097                         0000043F
F3_000098                         0000044F
F3_000099                         00000455
F3_000100                         00000455
F3_EOF                            00000456
F3_SOF                            0000024A
F@CALL                            
F@JUMP                            
FERR                              00000002
FILLNG                            0000085A
FIND@PAGE                         
FOSC_HS                           00003FFE
FOSC_LP                           00003FFC
FOSC_RC                           00003FFF
FOSC_XT                           00003FFD
FR@LB147                          000007A3
FR@LB166                          000008D3
FR@LB169                          000008D9
FR@LB80                           000004E0
FR@LB83                           000004F8
FR@LB86                           0000051B
FR@LB89                           0000053E
FR@LB92                           00000544
FSR                               00000004
FUEL_FILL                         00000797
GATE_LOCK                         000004DF
GATE_OPEN                         000004F7
GEN                               00000023
GEN3H                             00000024
GEN4                              00000025
GEN4H                             00000026
GENH                              00000027
GET_CODE                          00000325
GIE                               00000007
GO                                00000002
GO_DONE                           00000002
GPR                               00000028
H@RSIN                            0000013A
HI_LEVEL                          PORTC,4
HRSIN                             00000135
HRSIN2                            00000115
HRSIN@LPT                         00000120
HRSOUT                            0000013D
HSERIAL_BAUD                      00002580
HSERIAL_RCSTA                     00000090
HSERIAL_SPBRG                     00000081
HSERIAL_TXSTA                     00000024
HS_OSC                            00003FFE
I2C_DATA                          00000005
I2C_READ                          00000002
I2C_START                         00000003
I2C_STOP                          00000004
I@NT                              000001D9
I@NT2                             000001DA
ID_NO                             0000004C
IN@BNF32                          00000084
IN@DCL132                         0000005C
IN@DEC32                          0000004A
IN@DECB32                         0000004F
INDF                              00000000
INTCON                            0000000B
INTE                              00000004
INTEDG                            00000006
INTF                              00000001
IRP                               00000007
IR_1                              PORTB,0
JUMP                              
KEY                               000000A0
KEY_VALUE                         000000A1
LABEL_WORD                        
LCD#DTPIN                         4
LCD#DTPORT                        PORTB
LCD#ENPIN                         3
LCD#ENPORT                        PORTB
LCD#INTERFACE                     4
LCD#LINES                         4
LCD#RSPIN                         2
LCD#RSPORT                        PORTB
LCD#TYPE                          0
LCD@CLS                           00000015
LCD@CRS                           00000043
LCD@CUR                           0000001F
LO_LEVEL                          PORTC,5
LP_OSC                            00003FFC
M@PY                              000001C3
MAIN                              00000456
MLT32@BR                          000001B8
MLT32@LP                          000001A7
MOTOR                             PORTA,0
MSG                               00000043
NOT_A                             00000005
NOT_ADDRESS                       00000005
NOT_BO                            00000000
NOT_BOR                           00000000
NOT_DONE                          00000002
NOT_PD                            00000003
NOT_POR                           00000001
NOT_RBPU                          00000007
NOT_RC8                           00000006
NOT_T1SYNC                        00000002
NOT_TO                            00000004
NOT_TX8                           00000006
NOT_W                             00000002
NOT_WRITE                         00000002
NUM_BIT                           
NUM_BYTE                          
NUM_DWORD                         
NUM_FSR                           
NUM_WORD                          
NUM_WREG                          
NX@LB148                          000007F0
NX@LB167                          0000090C
NX@LB170                          00000907
NX@LB81                           000004F6
NX@LB84                           0000050E
NX@LB87                           0000053B
NX@LB90                           0000062C
NX@LB93                           00000627
OERR                              00000001
OIL                               00000046
OIL#0                             00000046
OIL#1                             00000047
OIL_Q                             00000048
OPTION_REG                        00000081
OUT@DEC                           00000097
OUT@DECB                          00000094
OUT@DECC                          00000095
OVER                              000004DE
PASS_1                            00000050
PASS_1#0                          00000050
PASS_1#1                          00000051
PASS_1#2                          00000052
PASS_1#3                          00000053
PASS_1#4                          00000054
PASS_1#5                          00000055
PASS_1#6                          00000056
PASS_1#7                          00000057
PASS_2                            00000058
PASS_2#0                          00000058
PASS_2#1                          00000059
PASS_2#2                          0000005A
PASS_2#3                          0000005B
PASS_2#4                          0000005C
PASS_2#5                          0000005D
PASS_2#6                          0000005E
PASS_2#7                          0000005F
PASS_3                            00000060
PASS_3#0                          00000060
PASS_3#1                          00000061
PASS_3#2                          00000062
PASS_3#3                          00000063
PASS_3#4                          00000064
PASS_3#5                          00000065
PASS_3#6                          00000066
PASS_3#7                          00000067
PASS_4                            00000068
PASS_4#0                          00000068
PASS_4#1                          00000069
PASS_4#2                          0000006A
PASS_4#3                          0000006B
PASS_4#4                          0000006C
PASS_4#5                          0000006D
PASS_4#6                          0000006E
PASS_4#7                          0000006F
PASS_5                            00000070
PASS_5#0                          00000070
PASS_5#1                          00000071
PASS_5#2                          00000072
PASS_5#3                          00000073
PASS_5#4                          00000074
PASS_5#5                          00000075
PASS_5#6                          00000076
PASS_5#7                          00000077
PASS_MODE                         0000050F
PB@LB119                          00000653
PB@LB122                          00000660
PB@LB142                          0000071F
PB@LB143                          00000731
PB@LB146                          0000076B
PB@LB161                          0000086E
PB@LB165                          000008A1
PB@LB172                          00000934
PBP#VAR0                          00000029
PBP#VAR1                          0000002A
PCFG0                             00000000
PCFG1                             00000001
PCFG2                             00000002
PCL                               00000002
PCLATH                            0000000A
PCON                              0000008E
PDESTINATION@PAGE                 00000000
PEIE                              00000006
PIE1                              0000008C
PIE2                              0000008D
PIR1                              0000000C
PIR2                              0000000D
PMADR                             0000010D
PMADRH                            0000010F
PMCON1                            0000018C
PMDATA                            0000010C
PMDATH                            0000010E
PMDATL                            0000010C
PMDATLH                           0000010E
PORTA                             00000005
PORTB                             00000006
PORTC                             00000007
PP0                               0000002B
PP0H                              0000002C
PP0HH                             0000002D
PP0HHH                            0000002E
PP1                               0000002F
PP1H                              00000030
PP2                               00000031
PP2H                              00000032
PP2HH                             00000033
PP2HHH                            00000034
PP3                               00000035
PP3H                              00000036
PP4                               00000037
PP5                               00000038
PP6                               00000039
PP6H                              0000003A
PP7                               0000003B
PP7H                              0000003C
PPZ                               0000003D
PPZH                              0000003E
PPZHH                             0000003F
PPZHHH                            00000040
PP_BF                             00000000
PP_CREN                           00000004
PP_GO_DONE                        00000002
PP_OERR                           00000001
PP_RCIF                           00000005
PP_RD                             00000000
PP_R_W                            00000002
PP_T2CKPS0                        00000000
PP_T2CKPS1                        00000001
PP_TMR2ON                         00000002
PP_TXIF                           00000004
PR2                               00000092
PR@EX                             00000113
PR@LP                             00000104
PRINT                             000000C6
PRIT@SKP                          000000FE
PROTON#CODE#START                 00000000
PROTON#MAIN#START                 000001DD
PRT@1                             000000F0
PRT@C                             000000EF
PRT@S                             00000103
PS0                               00000000
PS1                               00000001
PS2                               00000002
PSA                               00000003
PUMP                              PORTA,5
PWRTE_OFF                         00003FFF
PWRTE_ON                          00003FF7
R@B                               
RAM_BANK                          00000000
RAM_BANKS                         2
RBIE                              00000003
RBIF                              00000000
RC8_9                             00000006
RC9                               00000006
RCD8                              00000000
RCIE                              00000005
RCIF                              00000005
RCREG                             0000001A
RCSTA                             00000018
RC_OSC                            00003FFF
RD                                00000000
READ_WRITE                        00000002
RECHRG                            000006F0
ROW_1                             PORTA,4
ROW_2                             PORTA,3
ROW_3                             PORTA,2
ROW_4                             PORTA,1
RP0                               00000005
RP1                               00000006
RPFH                              00000041
RX9                               00000006
RX9D                              00000000
R_W                               00000002
S@B                               
SELECT_OPTION                     000006B3
SEND@IT                           000000B4
SET@PAGE                          
SHOW_BLNC                         00000757
SHOW_CARD                         0000063E
SMP                               00000007
SP#P9                             00000042
SPBRG                             00000099
SPEN                              00000007
SREN                              00000005
SSPADD                            00000093
SSPBUF                            00000013
SSPCON                            00000014
SSPEN                             00000005
SSPIE                             00000003
SSPIF                             00000003
SSPM0                             00000000
SSPM1                             00000001
SSPM2                             00000002
SSPM3                             00000003
SSPOV                             00000006
SSPSTAT                           00000094
STATUS                            00000003
STR@LB1                           00000936
STR@LB10                          000009A6
STR@LB11                          000009B7
STR@LB12                          000009C6
STR@LB13                          000009D3
STR@LB14                          000009E0
STR@LB15                          000009F0
STR@LB16                          00000A01
STR@LB17                          00000A12
STR@LB18                          00000947
STR@LB19                          00000A23
STR@LB2                           00000947
STR@LB20                          00000A30
STR@LB21                          00000A40
STR@LB22                          00000A47
STR@LB23                          00000A53
STR@LB24                          00000A5F
STR@LB25                          00000A01
STR@LB26                          00000A66
STR@LB27                          00000A77
STR@LB28                          00000A87
STR@LB29                          00000A98
STR@LB3                           00000958
STR@LB30                          00000AA7
STR@LB31                          00000AB2
STR@LB32                          00000AC0
STR@LB33                          00000AD1
STR@LB4                           00000947
STR@LB5                           00000968
STR@LB6                           00000977
STR@LB7                           00000980
STR@LB8                           00000988
STR@LB9                           00000998
SYNC                              00000004
T0CS                              00000005
T0IE                              00000005
T0IF                              00000002
T0SE                              00000004
T1CKPS0                           00000004
T1CKPS1                           00000005
T1CON                             00000010
T1INSYNC                          00000002
T1OSCEN                           00000003
T2CKPS0                           00000000
T2CKPS1                           00000001
T2CON                             00000012
T@LE                              00000003
T@LEB                             00000001
T@LEW                             00000002
T@ST                              00000005
TEMP_PASS                         00000078
TEMP_PASS#0                       00000078
TEMP_PASS#1                       00000079
TEMP_PASS#2                       0000007A
TEMP_PASS#3                       0000007B
TEMP_PASS#4                       0000007C
TEMP_PASS#5                       0000007D
TEMP_PASS#6                       0000007E
TEMP_PASS#7                       0000007F
TMP_ID                            0000004D
TMR0                              00000001
TMR1CS                            00000001
TMR1H                             0000000F
TMR1IE                            00000000
TMR1IF                            00000000
TMR1L                             0000000E
TMR1LH                            0000000F
TMR1ON                            00000000
TMR2                              00000011
TMR2IE                            00000001
TMR2IF                            00000001
TMR2ON                            00000002
TOUTPS0                           00000003
TOUTPS1                           00000004
TOUTPS2                           00000005
TOUTPS3                           00000006
TRISA                             00000085
TRISB                             00000086
TRISC                             00000087
TRMT                              00000001
TX8_9                             00000006
TX9                               00000006
TX9D                              00000000
TXD8                              00000000
TXEN                              00000005
TXIE                              00000004
TXIF                              00000004
TXREG                             00000019
TXSTA                             00000098
UA                                00000001
WCOL                              00000007
WDTE_OFF                          00003FFB
WDTE_ON                           00003FFF
WDT_OFF                           00003FFB
WDT_ON                            00003FFF
WORD_BIT                          
WORD_BYTE                         
WORD_DWORD                        
WORD_WORD                         
WORD_WREG                         
WREG_BIT                          
WREG_BYTE                         
WREG_DWORD                        
WREG_WORD                         
XTAL                              20
XT_OSC                            00003FFD
Z                                 00000002
_ADC                              5
_ADC_RES                          8
_BANKS                            3
_CORE                             14
_CWRITE_BLOCK                     0
_EEPROM                           0
_FLASH                            2
_I2C_SCL_PIN                      00000003
_I2C_SCL_PORT                     00000087
_I2C_SDA_PIN                      00000004
_I2C_SDA_PORT                     00000087
_MAXMEM                           4096
_MAXRAM                           192
_PAGES                            2
_RAM_END                          0X00C0
_SYSTEM_VARIABLE_COUNT            35
_USART                            1
_USB                              0
_X                                00000044
_Y                                00000045
__16F73                           1
__EOF                             00000AE2
__HSERIAL_BAUD                    9600
__HSERIAL_RCSTA                   144
__HSERIAL_TXSTA                   36
__LCD_DTPIN                       4
__LCD_DTPORT                      PORTB
__LCD_ENPIN                       3
__LCD_ENPORT                      PORTB
__LCD_INTERFACE                   4
__LCD_LINES                       4
__LCD_RSPIN                       2
__LCD_RSPORT                      PORTB
__XTAL                            20


MEMORY USAGE MAP ('X' = USED,  '-' = UNUSED)

0000 : XXXXXXXXXXXXXXXX XXXXXXXXXXXXXXXX XXXXXXXXXXXXXXXX XXXXXXXXXXXXXXXX
0040 : XXXXXXXXXXXXXXXX XXXXXXXXXXXXXXXX XXXXXXXXXXXXXXXX XXXXXXXXXXXXXXXX
0080 : XXXXXXXXXXXXXXXX XXXXXXXXXXXXXXXX XXXXXXXXXXXXXXXX XXXXXXXXXXXXXXXX
00C0 : XXXXXXXXXXXXXXXX XXXXXXXXXXXXXXXX XXXXXXXXXXXXXXXX XXXXXXXXXXXXXXXX
0100 : XXXXXXXXXXXXXXXX XXXXXXXXXXXXXXXX XXXXXXXXXXXXXXXX XXXXXXXXXXXXXXXX
0140 : XXXXXXXXXXXXXXXX XXXXXXXXXXXXXXXX XXXXXXXXXXXXXXXX XXXXXXXXXXXXXXXX
0180 : XXXXXXXXXXXXXXXX XXXXXXXXXXXXXXXX XXXXXXXXXXXXXXXX XXXXXXXXXXXXXXXX
01C0 : XXXXXXXXXXXXXXXX XXXXXXXXXXXXXXXX XXXXXXXXXXXXXXXX XXXXXXXXXXXXXXXX
0200 : XXXXXXXXXXXXXXXX XXXXXXXXXXXXXXXX XXXXXXXXXXXXXXXX XXXXXXXXXXXXXXXX
0240 : XXXXXXXXXXXXXXXX XXXXXXXXXXXXXXXX XXXXXXXXXXXXXXXX XXXXXXXXXXXXXXXX
0280 : XXXXXXXXXXXXXXXX XXXXXXXXXXXXXXXX XXXXXXXXXXXXXXXX XXXXXXXXXXXXXXXX
02C0 : XXXXXXXXXXXXXXXX XXXXXXXXXXXXXXXX XXXXXXXXXXXXXXXX XXXXXXXXXXXXXXXX
0300 : XXXXXXXXXXXXXXXX XXXXXXXXXXXXXXXX XXXXXXXXXXXXXXXX XXXXXXXXXXXXXXXX
0340 : XXXXXXXXXXXXXXXX XXXXXXXXXXXXXXXX XXXXXXXXXXXXXXXX XXXXXXXXXXXXXXXX
0380 : XXXXXXXXXXXXXXXX XXXXXXXXXXXXXXXX XXXXXXXXXXXXXXXX XXXXXXXXXXXXXXXX
03C0 : XXXXXXXXXXXXXXXX XXXXXXXXXXXXXXXX XXXXXXXXXXXXXXXX XXXXXXXXXXXXXXXX
0400 : XXXXXXXXXXXXXXXX XXXXXXXXXXXXXXXX XXXXXXXXXXXXXXXX XXXXXXXXXXXXXXXX
0440 : XXXXXXXXXXXXXXXX XXXXXXXXXXXXXXXX XXXXXXXXXXXXXXXX XXXXXXXXXXXXXXXX
0480 : XXXXXXXXXXXXXXXX XXXXXXXXXXXXXXXX XXXXXXXXXXXXXXXX XXXXXXXXXXXXXXXX
04C0 : XXXXXXXXXXXXXXXX XXXXXXXXXXXXXXXX XXXXXXXXXXXXXXXX XXXXXXXXXXXXXXXX
0500 : XXXXXXXXXXXXXXXX XXXXXXXXXXXXXXXX XXXXXXXXXXXXXXXX XXXXXXXXXXXXXXXX
0540 : XXXXXXXXXXXXXXXX XXXXXXXXXXXXXXXX XXXXXXXXXXXXXXXX XXXXXXXXXXXXXXXX
0580 : XXXXXXXXXXXXXXXX XXXXXXXXXXXXXXXX XXXXXXXXXXXXXXXX XXXXXXXXXXXXXXXX
05C0 : XXXXXXXXXXXXXXXX XXXXXXXXXXXXXXXX XXXXXXXXXXXXXXXX XXXXXXXXXXXXXXXX
0600 : XXXXXXXXXXXXXXXX XXXXXXXXXXXXXXXX XXXXXXXXXXXXXXXX XXXXXXXXXXXXXXXX
0640 : XXXXXXXXXXXXXXXX XXXXXXXXXXXXXXXX XXXXXXXXXXXXXXXX XXXXXXXXXXXXXXXX
0680 : XXXXXXXXXXXXXXXX XXXXXXXXXXXXXXXX XXXXXXXXXXXXXXXX XXXXXXXXXXXXXXXX
06C0 : XXXXXXXXXXXXXXXX XXXXXXXXXXXXXXXX XXXXXXXXXXXXXXXX XXXXXXXXXXXXXXXX
0700 : XXXXXXXXXXXXXXXX XXXXXXXXXXXXXXXX XXXXXXXXXXXXXXXX XXXXXXXXXXXXXXXX
0740 : XXXXXXXXXXXXXXXX XXXXXXXXXXXXXXXX XXXXXXXXXXXXXXXX XXXXXXXXXXXXXXXX
0780 : XXXXXXXXXXXXXXXX XXXXXXXXXXXXXXXX XXXXXXXXXXXXXXXX XXXXXXXXXXXXXXXX
07C0 : XXXXXXXXXXXXXXXX XXXXXXXXXXXXXXXX XXXXXXXXXXXXXXXX XXXXXXXXXXXXXXXX
0800 : XXXXXXXXXXXXXXXX XXXXXXXXXXXXXXXX XXXXXXXXXXXXXXXX XXXXXXXXXXXXXXXX
0840 : XXXXXXXXXXXXXXXX XXXXXXXXXXXXXXXX XXXXXXXXXXXXXXXX XXXXXXXXXXXXXXXX
0880 : XXXXXXXXXXXXXXXX XXXXXXXXXXXXXXXX XXXXXXXXXXXXXXXX XXXXXXXXXXXXXXXX
08C0 : XXXXXXXXXXXXXXXX XXXXXXXXXXXXXXXX XXXXXXXXXXXXXXXX XXXXXXXXXXXXXXXX
0900 : XXXXXXXXXXXXXXXX XXXXXXXXXXXXXXXX XXXXXXXXXXXXXXXX XXXXXXXXXXXXXXXX
0940 : XXXXXXXXXXXXXXXX XXXXXXXXXXXXXXXX XXXXXXXXXXXXXXXX XXXXXXXXXXXXXXXX
0980 : XXXXXXXXXXXXXXXX XXXXXXXXXXXXXXXX XXXXXXXXXXXXXXXX XXXXXXXXXXXXXXXX
09C0 : XXXXXXXXXXXXXXXX XXXXXXXXXXXXXXXX XXXXXXXXXXXXXXXX XXXXXXXXXXXXXXXX
0A00 : XXXXXXXXXXXXXXXX XXXXXXXXXXXXXXXX XXXXXXXXXXXXXXXX XXXXXXXXXXXXXXXX
0A40 : XXXXXXXXXXXXXXXX XXXXXXXXXXXXXXXX XXXXXXXXXXXXXXXX XXXXXXXXXXXXXXXX
0A80 : XXXXXXXXXXXXXXXX XXXXXXXXXXXXXXXX XXXXXXXXXXXXXXXX XXXXXXXXXXXXXXXX
0AC0 : XXXXXXXXXXXXXXXX XXXXXXXXXXXXXXXX XX-------------- ----------------
2000 : -------X-------- ---------------- ---------------- ----------------

ALL OTHER MEMORY BLOCKS UNUSED.

PROGRAM MEMORY WORDS USED:  2786
PROGRAM MEMORY WORDS FREE:  1310


ERRORS   :     0
WARNINGS :     0 REPORTED,  1815 SUPPRESSED
MESSAGES :     1 REPORTED,   148 SUPPRESSED


