MPASM  5.42                               A.S   9-22-2016  1:20:49         PAGE  1


LOC  OBJECT CODE     LINE SOURCE TEXT
  VALUE


                      00002         list
                      00003 ;{
                      00004 ;FILE F1 = D:\1. ELECTRONICS\ABRAR'S CORNER\TANVIR BHAI\PROJECTS\6. FINGERPRINT voting MACHINE\FIRMWARE 
                            PDS\FINGERP.BAS
                      00005 ;FILE F2 = D:\1. ELECTRONICS\ABRAR'S CORNER\TANVIR BHAI\PROJECTS\6. FINGERPRINT voting MACHINE\FIRMWARE 
                            PDS\FINGERP.PRP
                      00006 ;}
                      00007 ;[Variable Listing]
                      00008 ;new_ID,0033,DT_BYTE,1
                      00009 ;can_vote,0034,DT_BYTE,5
                      00010 ;Vote_A,0039,DT_BYTE,1
                      00011 ;Vote_B,003A,DT_BYTE,1
                      00012 ;Vote_C,003B,DT_BYTE,1
                      00013 ;Vote_D,003C,DT_BYTE,1
                      00014 ;Vote_E,003D,DT_BYTE,1
                      00015 ;RXD,003E,DT_BYTE,20
                      00016 ;X,0052,DT_BYTE,1
                      00017 ;get_ID,0053,DT_BYTE,1
                      00018 ;ID_no,0054,DT_BYTE,1
                      00019 ;checksum,0055,DT_BYTE,1
                      00020 ;IDs,0056,DT_BYTE,1
                      00021 ;vote_flag,0032.0,DT_BIT
                      00022 ;voted,0032.1,DT_BIT
                      00023 ;voted_flag1,0032.2,DT_BIT
                      00024 ;voted_flag2,0032.3,DT_BIT
                      00025 ;voted_flag3,0032.4,DT_BIT
                      00026 ;voted_flag4,0032.5,DT_BIT
                      00027 ;voted_flag5,0032.6,DT_BIT
                      00028 ;can_A,0007.0,DT_BIT
                      00029 ;can_B,0007.1,DT_BIT
                      00030 ;can_C,0007.2,DT_BIT
                      00031 ;can_D,0007.3,DT_BIT
                      00032 ;can_E,0007.4,DT_BIT
                      00033 ;vote,0007.5,DT_BIT
                      00034 ;result,0006.0,DT_BIT
                      00035 ;ADD,0005.0,DT_BIT
                      00036 ;Change,0005.1,DT_BIT
                      00037 ;permission,0005.2,DT_BIT
                      00038 ;led,0005.5,DT_BIT
                      00039 ;FP_error,0032.7,DT_BIT
                      00040 ;[End Listing]
                      00041 ;[TOTAL VARS] 55

                      00043 #define CONFIG_REQ 1
MESSAGE[308]: WARNING LEVEL SUPERSEDED BY COMMAND LINE VALUE. (2)
                      00044  LIST  P = 16F73, F = INHX8M, W = 2, X = ON, R = DEC, MM = ON, N = 0, C = 255
  00000000            00045 INDF equ 0X0000
  00000001            00046 TMR0 equ 0X0001
  00000002            00047 PCL equ 0X0002
  00000003            00048 STATUS equ 0X0003
  00000004            00049 FSR equ 0X0004
  00000005            00050 PORTA equ 0X0005
  00000006            00051 PORTB equ 0X0006
  00000007            00052 PORTC equ 0X0007
  0000000A            00053 PCLATH equ 0X000A
  0000000B            00054 INTCON equ 0X000B
  0000000C            00055 PIR1 equ 0X000C
  0000000D            00056 PIR2 equ 0X000D
  0000000E            00057 TMR1L equ 0X000E
  0000000F            00058 TMR1LH equ 0X000F
  0000000F            00059 TMR1H equ 0X000F
  00000010            00060 T1CON equ 0X0010
  00000011            00061 TMR2 equ 0X0011
  00000012            00062 T2CON equ 0X0012
  00000013            00063 SSPBUF equ 0X0013
  00000014            00064 SSPCON equ 0X0014
  00000015            00065 CCPR1L equ 0X0015
  00000016            00066 CCPR1LH equ 0X0016
  00000016            00067 CCPR1H equ 0X0016
  00000017            00068 CCP1CON equ 0X0017
  00000018            00069 RCSTA equ 0X0018
  00000019            00070 TXREG equ 0X0019
  0000001A            00071 RCREG equ 0X001A
  0000001B            00072 CCPR2L equ 0X001B
  0000001C            00073 CCPR2LH equ 0X001C
  0000001C            00074 CCPR2H equ 0X001C
  0000001D            00075 CCP2CON equ 0X001D
  0000001E            00076 ADRES equ 0X001E
  0000001F            00077 ADCON0 equ 0X001F
  00000081            00078 OPTION_REG equ 0X0081
  00000085            00079 TRISA equ 0X0085
  00000086            00080 TRISB equ 0X0086
  00000087            00081 TRISC equ 0X0087
  0000008C            00082 PIE1 equ 0X008C
  0000008D            00083 PIE2 equ 0X008D
  0000008E            00084 PCON equ 0X008E
  00000092            00085 PR2 equ 0X0092
  00000093            00086 SSPADD equ 0X0093
  00000094            00087 SSPSTAT equ 0X0094
  00000098            00088 TXSTA equ 0X0098
  00000099            00089 SPBRG equ 0X0099
  0000009F            00090 ADCON1 equ 0X009F
  0000010C            00091 EEDATL equ 0X010C
  0000010C            00092 PMDATL equ 0X010C
  0000010C            00093 EEDATA equ 0X010C
  0000010C            00094 EEDAT equ 0X010C
  0000010C            00095 PMDATA equ 0X010C
  0000010D            00096 EEADR equ 0X010D
  0000010D            00097 PMADR equ 0X010D
  0000010E            00098 EEDATLH equ 0X010E
  0000010E            00099 PMDATLH equ 0X010E
  0000010E            00100 EEDATH equ 0X010E
  0000010E            00101 PMDATH equ 0X010E
  0000010F            00102 EEADRH equ 0X010F
  0000010F            00103 PMADRH equ 0X010F
  0000018C            00104 EECON1 equ 0X018C
  0000018C            00105 PMCON1 equ 0X018C
  00000087            00106 _I2C_SCL_PORT=TRISC
  00000003            00107 _I2C_SCL_PIN=3
  00000087            00108 _I2C_SDA_PORT=TRISC
  00000004            00109 _I2C_SDA_PIN=4
  00000007            00110 IRP=7
  00000006            00111 RP1=6
  00000005            00112 RP0=5
  00000004            00113 NOT_TO=4
  00000003            00114 NOT_PD=3
  00000002            00115 Z=2
  00000001            00116 DC=1
  00000000            00117 C=0
  00000007            00118 GIE=7
  00000006            00119 PEIE=6
  00000005            00120 T0IE=5
  00000004            00121 INTE=4
  00000003            00122 RBIE=3
  00000002            00123 T0IF=2
  00000001            00124 INTF=1
  00000000            00125 RBIF=0
  00000006            00126 ADIF=6
  00000005            00127 RCIF=5
  00000005            00128 PP_RCIF=5
  00000004            00129 TXIF=4
  00000004            00130 PP_TXIF=4
  00000003            00131 SSPIF=3
  00000002            00132 CCP1IF=2
  00000001            00133 TMR2IF=1
  00000000            00134 TMR1IF=0
  00000000            00135 CCP2IF=0
  00000005            00136 T1CKPS1=5
  00000004            00137 T1CKPS0=4
  00000003            00138 T1OSCEN=3
  00000002            00139 NOT_T1SYNC=2
  00000002            00140 T1INSYNC=2
  00000001            00141 TMR1CS=1
  00000000            00142 TMR1ON=0
  00000006            00143 TOUTPS3=6
  00000005            00144 TOUTPS2=5
  00000004            00145 TOUTPS1=4
  00000003            00146 TOUTPS0=3
  00000002            00147 TMR2ON=2
  00000002            00148 PP_TMR2ON=2
  00000001            00149 T2CKPS1=1
  00000001            00150 PP_T2CKPS1=1
  00000000            00151 T2CKPS0=0
  00000000            00152 PP_T2CKPS0=0
  00000007            00153 WCOL=7
  00000006            00154 SSPOV=6
  00000005            00155 SSPEN=5
  00000004            00156 CKP=4
  00000003            00157 SSPM3=3
  00000002            00158 SSPM2=2
  00000001            00159 SSPM1=1
  00000000            00160 SSPM0=0
  00000005            00161 CCP1X=5
  00000004            00162 CCP1Y=4
  00000003            00163 CCP1M3=3
  00000002            00164 CCP1M2=2
  00000001            00165 CCP1M1=1
  00000000            00166 CCP1M0=0
  00000007            00167 SPEN=7
  00000006            00168 RX9=6
  00000006            00169 RC9=6
  00000006            00170 NOT_RC8=6
  00000006            00171 RC8_9=6
  00000005            00172 SREN=5
  00000004            00173 CREN=4
  00000004            00174 PP_CREN=4
  00000002            00175 FERR=2
  00000001            00176 OERR=1
  00000001            00177 PP_OERR=1
  00000000            00178 RX9D=0
  00000000            00179 RCD8=0
  00000005            00180 CCP2X=5
  00000004            00181 CCP2Y=4
  00000003            00182 CCP2M3=3
  00000002            00183 CCP2M2=2
  00000001            00184 CCP2M1=1
  00000000            00185 CCP2M0=0
  00000007            00186 ADCS1=7
  00000006            00187 ADCS0=6
  00000005            00188 CHS2=5
  00000004            00189 CHS1=4
  00000003            00190 CHS0=3
  00000002            00191 GO=2
  00000002            00192 NOT_DONE=2
  00000002            00193 GO_DONE=2
  00000002            00194 PP_GO_DONE=2
  00000000            00195 ADON=0
  00000007            00196 NOT_RBPU=7
  00000006            00197 INTEDG=6
  00000005            00198 T0CS=5
  00000004            00199 T0SE=4
  00000003            00200 PSA=3
  00000002            00201 PS2=2
  00000001            00202 PS1=1
  00000000            00203 PS0=0
  00000006            00204 ADIE=6
  00000005            00205 RCIE=5
  00000004            00206 TXIE=4
  00000003            00207 SSPIE=3
  00000002            00208 CCP1IE=2
  00000001            00209 TMR2IE=1
  00000000            00210 TMR1IE=0
  00000000            00211 CCP2IE=0
  00000001            00212 NOT_POR=1
  00000000            00213 NOT_BO=0
  00000000            00214 NOT_BOR=0
  00000007            00215 SMP=7
  00000006            00216 CKE=6
  00000005            00217 I2C_DATA=5
  00000005            00218 NOT_A=5
  00000005            00219 NOT_ADDRESS=5
  00000005            00220 D_A=5
  00000005            00221 DATA_ADDRESS=5
  00000004            00222 I2C_STOP=4
  00000003            00223 I2C_START=3
  00000002            00224 I2C_READ=2
  00000002            00225 NOT_W=2
  00000002            00226 NOT_WRITE=2
  00000002            00227 R_W=2
  00000002            00228 PP_R_W=2
  00000002            00229 READ_WRITE=2
  00000001            00230 UA=1
  00000000            00231 BF=0
  00000000            00232 PP_BF=0
  00000007            00233 CSRC=7
  00000006            00234 TX9=6
  00000006            00235 NOT_TX8=6
  00000006            00236 TX8_9=6
  00000005            00237 TXEN=5
  00000004            00238 SYNC=4
  00000002            00239 BRGH=2
  00000001            00240 TRMT=1
  00000000            00241 TX9D=0
  00000000            00242 TXD8=0
  00000002            00243 PCFG2=2
  00000001            00244 PCFG1=1
  00000000            00245 PCFG0=0
  00000000            00246 RD=0
  00000000            00247 PP_RD=0
  000001FF            00248   __MAXRAM 0X1FF
                      00249   __BADRAM 0X08-0X09
                      00250   __BADRAM 0X88-0X89, 0X8F-0X91, 0X95-0X97, 0X9A-0X9E
                      00251   __BADRAM 0X105, 0X107-0X109, 0X110-0X11F
                      00252   __BADRAM 0X185, 0X187-0X189, 0X18D-0X19F
  00003FFF            00253 BODEN_ON equ 0X3FFF
  00003FBF            00254 BODEN_OFF equ 0X3FBF
  00003FEF            00255 CP_ALL equ 0X3FEF
  00003FFF            00256 CP_OFF equ 0X3FFF
  00003FFF            00257 PWRTE_OFF equ 0X3FFF
  00003FF7            00258 PWRTE_ON equ 0X3FF7
  00003FFF            00259 WDT_ON equ 0X3FFF
  00003FFB            00260 WDT_OFF equ 0X3FFB
  00003FFC            00261 LP_OSC equ 0X3FFC
  00003FFD            00262 XT_OSC equ 0X3FFD
  00003FFE            00263 HS_OSC equ 0X3FFE
  00003FFF            00264 RC_OSC equ 0X3FFF
  00003FBF            00265 BOREN_OFF equ 0X3FBF
  00003FFF            00266 BOREN_ON equ 0X3FFF
  00003FEF            00267 CP_ON equ 0X3FEF
  00003FFE            00268 FOSC_HS equ 0X3FFE
  00003FFC            00269 FOSC_LP equ 0X3FFC
  00003FFF            00270 FOSC_RC equ 0X3FFF
  00003FFD            00271 FOSC_XT equ 0X3FFD
  00003FFB            00272 WDTE_OFF equ 0X3FFB
  00003FFF            00273 WDTE_ON equ 0X3FFF

                      00277 #define __16F73 1
                      00278 #define XTAL 20
                      00279 #define _CORE 14
                      00280 #define _MAXRAM 192
                      00281 #define _RAM_END 0X00C0
                      00282 #define _MAXMEM 4096
                      00283 #define _ADC 5
                      00284 #define _ADC_RES 8
                      00285 #define _EEPROM 0
                      00286 #define _PAGES 2
                      00287 #define _BANKS 3
                      00288 #define RAM_BANKS 2
                      00289 #define _USART 1
                      00290 #define _USB 0
                      00291 #define _FLASH 2
                      00292 #define _CWRITE_BLOCK 0
                      00293 #define BANK0_START 0X20
                      00294 #define BANK0_END 0X7F
                      00295 #define BANK1_START 0X00A0
                      00296 #define BANK1_END 0X00FF
                      00297 #define BANK2_START 0X0110
                      00298 #define BANK2_END 0X0120
                      00299 #define BANK3_START 0X0190
                      00300 #define BANK3_END 0X01A0
                      00301 #define _SYSTEM_VARIABLE_COUNT 18
  00000000            00302 ram_bank = 0
  00000000            00303 CURRENT@PAGE = 0
  00000000            00304 DEST@PAGE = 0
                      00305 #define LCD#DTPORT PORTB
                      00306 #define LCD#DTPIN 4
                      00307 #define LCD#RSPORT PORTB
                      00308 #define LCD#RSPIN 2
                      00309 #define LCD#ENPORT PORTB
                      00310 #define LCD#ENPIN 3
                      00311 #define LCD#INTERFACE 4
                      00312 #define LCD#TYPE 0
                      00314 f@call macro PDEST
                      00315 if(PDEST < 1)
                      00316 if((PDEST & 2048) == 0)
                      00317         bcf 10,3
                      00318 else
                      00319         bsf 10,3
                      00320 endif
                      00321 else
                      00322 if(PDEST > $)
                      00323 if((PDEST & 2048) == 0)
                      00324         bcf 10,3
                      00325 else
                      00326         bsf 10,3
                      00327 endif
                      00328 else
                      00329 if((PDEST & 6144) == 0)
                      00330         clrf 10
                      00331 else
                      00332 if((PDEST & 2048) == 0)
                      00333         bcf 10,3
                      00334 else
                      00335         bsf 10,3
                      00336 endif
                      00337 endif
                      00338 endif
                      00339 endif
                      00340         call PDEST
                      00341         endm
                      00342 F@JUMP macro PDEST
                      00343 if(PDEST < 1)
                      00344 if((PDEST & 2048) == 0)
                      00345         bcf 10,3
                      00346 else
                      00347         bsf 10,3
                      00348 endif
                      00349 else
                      00350 if(PDEST > $)
                      00351 if((PDEST & 2048) == 0)
                      00352         bcf 10,3
                      00353 else
                      00354         bsf 10,3
                      00355 endif
                      00356 else
                      00357 if((PDEST & 6144) == 0)
                      00358         clrf 10
                      00359 else
                      00360 if((PDEST & 2048) == 0)
                      00361         bcf 10,3
                      00362 else
                      00363         bsf 10,3
                      00364 endif
                      00365 endif
                      00366 endif
                      00367 endif
                      00368         goto PDEST
                      00369         endm
                      00370 set@page macro PDEST
                      00371 if((PDEST & 2048) == 0)
                      00372         bcf 10,3
                      00373 else
                      00374         bsf 10,3
                      00375 endif
                      00376         endm
                      00377 s@b     macro pVarin
                      00378 if((pVarin & 384) == 0)
                      00379 if(ram_bank == 1)
                      00380         bcf 3,5
                      00381 endif
                      00382 if(ram_bank == 2)
                      00383         bcf 3,6
                      00384 endif
                      00385 if(ram_bank == 3)
                      00386         bcf 3,5
                      00387         bcf 3,6
                      00388 endif
                      00389 ram_bank = 0
                      00390 endif
                      00391 if((pVarin & 384) == 128)
                      00392 if(ram_bank == 0)
                      00393         bsf 3,5
                      00394 endif
                      00395 if(ram_bank == 2)
                      00396         bsf 3,5
                      00397         bcf 3,6
                      00398 endif
                      00399 if(ram_bank == 3)
                      00400         bcf 3,6
                      00401 endif
                      00402 ram_bank = 1
                      00403 endif
                      00404 if((pVarin & 384) == 256)
                      00405 if(ram_bank == 0)
                      00406         bsf 3,6
                      00407 endif
                      00408 if(ram_bank == 1)
                      00409         bcf 3,5
                      00410         bsf 3,6
                      00411 endif
                      00412 if(ram_bank == 3)
                      00413         bcf 3,5
                      00414 endif
                      00415 ram_bank = 2
                      00416 endif
                      00417 if((pVarin & 384) == 384)
                      00418 if(ram_bank == 0)
                      00419         bsf 3,5
                      00420         bsf 3,6
                      00421 endif
                      00422 if(ram_bank == 1)
                      00423         bsf 3,6
                      00424 endif
                      00425 if(ram_bank == 2)
                      00426         bsf 3,5
                      00427 endif
                      00428 ram_bank = 3
                      00429 endif
                      00430         endm
                      00431 r@b     macro
                      00432 if((ram_bank & 1) != 0)
                      00433         bcf 3,5
                      00434 endif
                      00435 if((ram_bank & 2) != 0)
                      00436         bcf 3,6
                      00437 endif
                      00438 ram_bank = 0
                      00439         endm
                      00440 jump macro PLABEL
                      00441     goto PLABEL
                      00442     endm
                      00443 wreg_byte macro pByteOut
                      00444     s@b pByteOut
                      00445     movwf pByteOut
                      00446     r@b
                      00447     endm
                      00448 wreg_bit macro pVarOut,pBitout
                      00449     s@b pVarOut
                      00450     andlw 1
                      00451     btfsc STATUS,2
                      00452     bcf pVarOut,pBitout
                      00453     btfss STATUS,2
                      00454     bsf pVarOut,pBitout
                      00455     r@b
                      00456     endm
                      00457 wreg_word macro pWordOut
                      00458     s@b pWordOut
                      00459     movwf pWordOut
                      00460     s@b pWordOut+1
                      00461     clrf pWordOut+1
                      00462     r@b
                      00463     endm
                      00464 wreg_dword macro pDwordOut
                      00465     s@b pDwordOut+3
                      00466     clrf pDwordOut+3
                      00467     s@b pDwordOut+2
                      00468     clrf pDwordOut+2
                      00469     s@b pDwordOut+1
                      00470     clrf pDwordOut+1
                      00471     s@b pDwordOut
                      00472     movwf pDwordOut
                      00473     r@b
                      00474     endm
                      00475 byte_wreg macro pByteIn
                      00476     s@b pByteIn
                      00477     movf pByteIn,W
                      00478     r@b
                      00479     endm
                      00480 num_wreg macro pNumIn
                      00481     movlw (pNumIn & 255)
                      00482     endm
                      00483 num_byte macro pNumIn,pByteOut
                      00484     s@b pByteOut
                      00485 if(pNumIn == 0)
                      00486     clrf pByteOut
                      00487 else
                      00488     movlw (pNumIn & 255)
                      00489     movwf pByteOut
                      00490 endif
                      00491     r@b
                      00492     endm
                      00493 num_bit macro pNumIn,pVarOut,pBitout
                      00494     s@b pVarOut
                      00495 if((pNumIn & 1) == 1)
                      00496     bsf pVarOut,pBitout
                      00497 else
                      00498     bcf pVarOut,pBitout
                      00499 endif
                      00500     r@b
                      00501     endm
                      00502 num_word macro pNumIn,pWordOut
                      00503 if((pNumIn & 255) == 0)
                      00504     s@b pWordOut
                      00505     clrf pWordOut
                      00506 else
                      00507     s@b pWordOut
                      00508     movlw low (pNumIn)
                      00509     movwf pWordOut
                      00510 endif
                      00511 if(((pNumIn >> 8) & 255) == 0)
                      00512     s@b pWordOut+1
                      00513     clrf pWordOut+1
                      00514 else
                      00515     s@b pWordOut+1
                      00516     movlw high (pNumIn)
                      00517     movwf pWordOut+1
                      00518 endif
                      00519     r@b
                      00520     endm
                      00521 num_dword macro pNumIn,pDwordOut
                      00522 if ((pNumIn >> 24 & 255) == 0)
                      00523     s@b pDwordOut+3
                      00524     clrf pDwordOut+3
                      00525 else
                      00526     s@b pDwordOut+3
                      00527     movlw ((pNumIn >> 24) & 255)
                      00528     movwf pDwordOut+3
                      00529 endif
                      00530 if( ((pNumIn >> 16) & 255) == 0)
                      00531     s@b pDwordOut+2
                      00532     clrf pDwordOut+2
                      00533 else
                      00534     s@b pDwordOut+2
                      00535     movlw ((pNumIn >> 16) & 255)
                      00536     movwf pDwordOut+2
                      00537 endif
                      00538 if( ((pNumIn >> 8) & 255) == 0)
                      00539     s@b pDwordOut+1
                      00540     clrf pDwordOut+1
                      00541 else
                      00542     s@b pDwordOut+1
                      00543     movlw high (pNumIn)
                      00544     movwf pDwordOut+1
                      00545 endif
                      00546 if((pNumIn & 255) == 0)
                      00547     s@b pDwordOut
                      00548     clrf pDwordOut
                      00549 else
                      00550     s@b pDwordOut
                      00551     movlw low (pNumIn)
                      00552     movwf pDwordOut
                      00553 endif
                      00554     r@b
                      00555     endm
                      00556 bit_wreg macro pVarin,pBitIn
                      00557     s@b pVarin
                      00558     clrw
                      00559     btfsc pVarin,pBitIn
                      00560     movlw 1
                      00561     r@b
                      00562     endm
                      00563 bit_byte macro pVarin,pBitIn,pByteOut
                      00564     s@b pVarin
                      00565     clrw
                      00566     btfsc pVarin,pBitIn
                      00567     movlw 1
                      00568     s@b pByteOut
                      00569     movwf pByteOut
                      00570     r@b
                      00571     endm
                      00572 bit_bit macro pVarin,pBitIn,pVarOut,pBitout
                      00573 if((pVarin & 65408) == (pVarOut & 65408))
                      00574     s@b pVarOut
                      00575     btfsc pVarin,pBitIn
                      00576     bsf pVarOut,pBitout
                      00577     btfss pVarin,pBitIn
                      00578     bcf pVarOut,pBitout
                      00579 else
                      00580     s@b pVarin
                      00581     clrdc
                      00582     btfsc pVarin,pBitIn
                      00583     setdc
                      00584     s@b pVarOut
                      00585     skpndc
                      00586     bsf pVarOut,pBitout
                      00587     skpdc
                      00588     bcf pVarOut,pBitout
                      00589 endif
                      00590     endm
                      00591 bit_word macro pVarin,pBitIn,pWordOut
                      00592     s@b pWordOut+1
                      00593     clrf pWordOut+1
                      00594     bit_byte pVarin,pBitIn,pWordOut
                      00595     endm
                      00596 bit_dword macro pVarin,pBitIn,pDwordOut
                      00597     s@b pDwordOut+3
                      00598     clrf pDwordOut+3
                      00599     s@b pDwordOut+2
                      00600     clrf pDwordOut+2
                      00601     s@b pDwordOut+1
                      00602     clrf pDwordOut+1
                      00603     bit_byte pVarin,pBitIn,pDwordOut
                      00604     endm
                      00605 word_wreg macro pWordIn
                      00606     byte_wreg pWordIn
                      00607     endm
                      00608 word_byte macro pWordIn,pByteOut
                      00609     byte_byte pWordIn,pByteOut
                      00610     endm
                      00611 word_bit macro pWordIn,pVarOut,pBitout
                      00612     byte_bit pWordIn, pVarOut, pBitout
                      00613     endm
                      00614 word_word macro pWordIn,pWordOut
                      00615     s@b pWordIn+1
                      00616     movf pWordIn+1,W
                      00617     s@b pWordOut+1
                      00618     movwf pWordOut+1
                      00619     byte_byte pWordIn,pWordOut
                      00620     endm
                      00621 word_dword macro pWordIn,pDwordOut
                      00622     s@b pDwordOut+3
                      00623     clrf pDwordOut+3
                      00624     s@b pDwordOut+2
                      00625     clrf pDwordOut+2
                      00626     byte_byte pWordIn+1,pDwordOut+1
                      00627     byte_byte pWordIn,pDwordOut
                      00628     endm
                      00629 byte_byte macro pByteIn,pByteOut
                      00630     s@b pByteIn
                      00631     movf pByteIn,W
                      00632     s@b pByteOut
                      00633     movwf pByteOut
                      00634     r@b
                      00635     endm
                      00636 byte_word macro pByteIn,pWordOut
                      00637     s@b pWordOut+1
                      00638     clrf pWordOut+1
                      00639     byte_byte pByteIn,pWordOut
                      00640     endm
                      00641 byte_dword macro pByteIn,pDwordOut
                      00642     s@b pDwordOut+3
                      00643     clrf pDwordOut+3
                      00644     s@b pDwordOut+2
                      00645     clrf pDwordOut+2
                      00646     s@b pDwordOut+1
                      00647     clrf pDwordOut+1
                      00648     byte_byte pByteIn,pDwordOut
                      00649     endm
                      00650     byte_bit macro pByteIn,pVarOut,pBitout
                      00651 if((pByteIn & 65408) == (pVarOut & 65408))
                      00652     s@b pByteIn
                      00653     btfsc pByteIn,0
                      00654     bsf pVarOut,pBitout
                      00655     btfss pByteIn,0
                      00656     bcf pVarOut,pBitout
                      00657 else
                      00658     s@b pByteIn
                      00659     rrf pByteIn,W
                      00660     s@b pVarOut
                      00661     skpnc
                      00662     bsf pVarOut,pBitout
                      00663     skpc
                      00664     bcf pVarOut,pBitout
                      00665 endif
                      00666     r@b
                      00667     endm
                      00668 dword_wreg macro pDwordIn
                      00669     byte_wreg pDwordIn
                      00670     endm
                      00671 dword_byte macro pDwordIn,pByteOut
                      00672     byte_byte pDwordIn,pByteOut
                      00673     endm
                      00674 dword_word macro pDwordIn,pWordOut
                      00675     s@b pDwordIn+1
                      00676     movf pDwordIn+1,W
                      00677     s@b pWordOut+1
                      00678     movwf pWordOut+1
                      00679     byte_byte pDwordIn,pWordOut
                      00680     endm
                      00681 dword_dword macro pDwordIn,pDwordOut
                      00682     byte_byte pDwordIn+3,pDwordOut+3
                      00683     byte_byte pDwordIn+2,pDwordOut+2
                      00684     byte_byte pDwordIn+1,pDwordOut+1
                      00685     byte_byte pDwordIn,pDwordOut
                      00686     endm
                      00687 dword_bit macro pDwordIn,pVarOut,pBitout
                      00688     byte_bit pDwordIn,pVarOut,pBitout
                      00689     endm
  0000                00690 variable CURRENT@PAGE = 0
  0000                00691 variable PDESTINATION@PAGE = 0
                      00692 FIND@PAGE macro pLabelIn
                      00693 local CURRENT_ADDR = $
                      00694 local DEST_ADDR = pLabelIn
                      00695 if((CURRENT_ADDR >= 0X1800) && (CURRENT_ADDR <= 0X2000))
                      00696     CURRENT@PAGE = 3
                      00697 endif
                      00698 if((CURRENT_ADDR >= 0X1000) && (CURRENT_ADDR <= 0X1800))
                      00699     CURRENT@PAGE = 2
                      00700 endif
                      00701 if((CURRENT_ADDR >= 0X0800) && (CURRENT_ADDR <= 0X1000))
                      00702     CURRENT@PAGE = 1
                      00703 endif
                      00704 if((CURRENT_ADDR >= 0) && (CURRENT_ADDR <= 0X0800))
                      00705     CURRENT@PAGE = 0
                      00706 endif
                      00707 if((DEST_ADDR >= 0X1800) && (DEST_ADDR <= 0X2000))
                      00708     PDESTINATION@PAGE = 3
                      00709 endif
                      00710 if((DEST_ADDR >= 0X1000) && (DEST_ADDR <= 0X1800))
                      00711     PDESTINATION@PAGE = 2
                      00712 endif
                      00713 if((DEST_ADDR >= 0X0800) && (DEST_ADDR <= 0X1000))
                      00714     PDESTINATION@PAGE = 1
                      00715 endif
                      00716 if((DEST_ADDR >= 0) && (DEST_ADDR <= 0X0800))
                      00717     PDESTINATION@PAGE = 0
                      00718 endif
                      00719     endm
                      00720 NUM_FSR macro pNumIn
                      00721     num_byte pNumIn, FSR
                      00722 if (((pNumIn >> 8) & 255) == 1)
                      00723     bsf STATUS,7
                      00724 else
                      00725     bcf STATUS,7
                      00726 endif
                      00727     endm
                      00728 label_word macro pLabelIn,pWordOut
                      00729     movlw low (pLabelIn)
                      00730     s@b pWordOut
                      00731     movwf pWordOut
                      00732     movlw high (pLabelIn)
                      00733     s@b pWordOut
                      00734     movwf pWordOut+1
                      00735     r@b
                      00736     endm
  00000020            00739 BPF = 32
  00000021            00740 BPFH = 33
  00000022            00741 CSTR#CT = 34
  00000023            00742 GEN = 35
  00000024            00743 GEN4 = 36
  00000025            00744 GEN4H = 37
  00000026            00745 PBP#VAR0 = 38
  00000027            00746 PP0 = 39
  00000028            00747 PP0H = 40
  00000029            00748 PP1 = 41
  0000002A            00749 PP1H = 42
  0000002B            00750 PP2 = 43
  0000002C            00751 PP2H = 44
  0000002D            00752 PP3 = 45
  0000002E            00753 PP3H = 46
  0000002F            00754 PP4 = 47
  00000030            00755 PP5 = 48
  00000031            00756 SP#P9 = 49
  00000032            00757 _B#VR1 = 50
  00000033            00758 new_ID = 51
  00000034            00759 can_vote = 52
  0034                00760 variable can_vote#0=52,can_vote#1=53,can_vote#2=54,can_vote#3=55
  0038                00761 variable can_vote#4=56
  00000039            00762 Vote_A = 57
  0000003A            00763 Vote_B = 58
  0000003B            00764 Vote_C = 59
  0000003C            00765 Vote_D = 60
  0000003D            00766 Vote_E = 61
  0000003E            00767 RXD = 62
  003E                00768 variable RXD#0=62,RXD#1=63,RXD#2=64,RXD#3=65
  0042                00769 variable RXD#4=66,RXD#5=67,RXD#6=68,RXD#7=69
  0046                00770 variable RXD#8=70,RXD#9=71,RXD#10=72,RXD#11=73
  004A                00771 variable RXD#12=74,RXD#13=75,RXD#14=76,RXD#15=77
  004E                00772 variable RXD#16=78,RXD#17=79,RXD#18=80,RXD#19=81
  00000052            00773 _X = 82
  00000053            00774 get_ID = 83
  00000054            00775 ID_no = 84
  00000055            00776 checksum = 85
  00000056            00777 IDs = 86
                      00778 #define __LCD_RSPORT PORTB
                      00779 #define __LCD_ENPORT PORTB
                      00780 #define __LCD_DTPORT PORTB
                      00781 #define vote_flag _B#VR1,0
                      00782 #define voted _B#VR1,1
                      00783 #define voted_flag1 _B#VR1,2
                      00784 #define voted_flag2 _B#VR1,3
                      00785 #define voted_flag3 _B#VR1,4
                      00786 #define voted_flag4 _B#VR1,5
                      00787 #define voted_flag5 _B#VR1,6
                      00788 #define can_A PORTC,0
                      00789 #define can_B PORTC,1
                      00790 #define can_C PORTC,2
                      00791 #define can_D PORTC,3
                      00792 #define can_E PORTC,4
                      00793 #define vote PORTC,5
                      00794 #define result PORTB,0
                      00795 #define ADD PORTA,0
                      00796 #define Change PORTA,1
                      00797 #define permission PORTA,2
                      00798 #define led PORTA,5
                      00799 #define FP_error _B#VR1,7
                      00800 #define __XTAL 20
                      00801 #define __LCD_RSPIN 2
                      00802 #define __LCD_ENPIN 3
                      00803 #define __LCD_DTPIN 4
                      00804 #define __LCD_INTERFACE 4
                      00805 #define __HSERIAL_BAUD 49664
                      00806 #define __HSERIAL_RCSTA 144
                      00807 #define __HSERIAL_TXSTA 36
  0000000A            00808 HSERIAL_SPBRG = 10
  00000024            00809 HSERIAL_TXSTA = 36
  00000090            00810 HSERIAL_RCSTA = 144
  0001C200            00811 HSERIAL_BAUD = 115200
0000                  00812 proton#code#start
0000                  00813         org 0
0000   2903           00814         goto proton#main#start
0001                  00815 LCD@CLS
0001   3080           00816         movlw 128
0002   00A1           00817         movwf 33
0003                  00818 CLS
0003   30FE           00819         movlw 254
0004   20A0           00820         call CH@SND
0005   3001           00821         movlw 1
0006   20A0           00822         call CH@SND
0007   3075           00823         movlw 117
0008   00A8           00824         movwf 40
0009   3030           00825         movlw 48
000A   28D4           00826         goto DLUS@W
000B                  00827 LCD@CRS
000B   01A1           00828         clrf 33
000C   17A1           00829         bsf 33,7
000D                  00830 CURS@
000D   00B0           00831         movwf 48
000E   30FE           00832         movlw 254
000F   20A0           00833         call CH@SND
0010   0830           00834         movf 48,W
0011   28A0           00835         goto CH@SND
0012                  00836 OUT@DECB
0012   01A5           00837         clrf 37
0013                  00838 OUT@DECC
0013   00AB           00839         movwf 43
0014   01AC           00840         clrf 44
0015                  00841 OUT@DEC
0015   11A0           00842         bcf 32,3
0016   0825           00843         movf 37,W
0017   1903           00844         skpnz
0018   15A0           00845         bsf 32,3
0019   3005           00846         movlw 5
001A   00A4           00847         movwf 36
001B   3027           00848         movlw 39
001C   00AA           00849         movwf 42
001D   3010           00850         movlw 16
001E   202B           00851         call D@DIG
001F   3003           00852         movlw 3
0020   00AA           00853         movwf 42
0021   30E8           00854         movlw 232
0022   202B           00855         call D@DIG
0023   01AA           00856         clrf 42
0024   3064           00857         movlw 100
0025   202B           00858         call D@DIG
0026   01AA           00859         clrf 42
0027   300A           00860         movlw 10
0028   202B           00861         call D@DIG
0029   082B           00862         movf 43,W
002A   2832           00863         goto SEND@IT
002B                  00864 D@DIG
002B   00A9           00865         movwf 41
002C   082C           00866         movf 44,W
002D   00A8           00867         movwf 40
002E   082B           00868         movf 43,W
002F   00A7           00869         movwf 39
0030   20E3           00870         call D@VD
0031   0827           00871         movf 39,W
0032                  00872 SEND@IT
0032   00A7           00873         movwf 39
0033   03A4           00874         decf 36,F
0034   1903           00875         skpnz
0035   11A0           00876         bcf 32,3
0036   0825           00877         movf 37,W
0037   1903           00878         skpnz
0038   283C           00879         goto $ + 4
0039   0224           00880         subwf 36,W
003A   1803           00881         skpnc
003B   2843           00882         goto EX@SEND@IT
003C   0827           00883         movf 39,W
003D   1D03           00884         skpz
003E   11A0           00885         bcf 32,3
003F   19A0           00886         btfsc 32,3
0040   2843           00887         goto EX@SEND@IT
0041   3E30           00888         addlw 48
0042   28A0           00889         goto CH@SND
0043                  00890 EX@SEND@IT
0043   0008           00891         return
0044                  00892 PRINT
0044   00AE           00893         movwf 46
0045   1186           00894         bcf PORTB,3
0046   1106           00895         bcf PORTB,2
0047   1683           00896         bsf 3,5
0048   1186           00897         bcf PORTB,3
0049   1106           00898         bcf PORTB,2
004A   300F           00899         movlw 15
004B   0586           00900         andwf PORTB,F
004C   1283           00901         bcf 3,5
004D   082E           00902         movf 46,W
004E   18A0           00903         btfsc 32,1
004F   286E           00904         goto PRT@1
0050   303E           00905         movlw 62
0051   00A8           00906         movwf 40
0052   3080           00907         movlw 128
0053   20D4           00908         call DLUS@W
0054   3033           00909         movlw 51
0055   00AD           00910         movwf 45
0056   2082           00911         call PR@LP
0057   3013           00912         movlw 19
0058   00A8           00913         movwf 40
0059   3088           00914         movlw 136
005A   20D4           00915         call DLUS@W
005B   2082           00916         call PR@LP
005C   3064           00917         movlw 100
005D   20D3           00918         call DL@US
005E   2082           00919         call PR@LP
005F   3064           00920         movlw 100
0060   20D3           00921         call DL@US
0061   3022           00922         movlw 34
0062   00AD           00923         movwf 45
0063   2082           00924         call PR@LP
0064   3028           00925         movlw 40
0065   206D           00926         call PRT@C
0066   300C           00927         movlw 12
0067   206D           00928         call PRT@C
0068   3006           00929         movlw 6
0069   206D           00930         call PRT@C
006A   14A0           00931         bsf 32,1
006B   082E           00932         movf 46,W
006C   286E           00933         goto PRT@1
006D                  00934 PRT@C
006D   1420           00935         bsf 32,0
006E                  00936 PRT@1
006E   00AD           00937         movwf 45
006F   1C20           00938         btfss 32,0
0070   287C           00939         goto PRIT@SKP
0071   1106           00940         bcf PORTB,2
0072   3C03           00941         sublw 3
0073   1C03           00942         skpc
0074   2881           00943         goto PRT@S
0075   2081           00944         call PRT@S
0076   3007           00945         movlw 7
0077   00A8           00946         movwf 40
0078   30D0           00947         movlw 208
0079   20D4           00948         call DLUS@W
007A   1403           00949         bsf 3,0
007B   0008           00950         return
007C                  00951 PRIT@SKP
007C   1420           00952         bsf 32,0
007D   3CFE           00953         sublw 254
007E   1903           00954         skpnz
007F   2891           00955         goto PR@EX
0080   1506           00956         bsf PORTB,2
0081                  00957 PRT@S
0081   1C20           00958         btfss 32,0
0082                  00959 PR@LP
0082   1020           00960         bcf 32,0
0083   1586           00961         bsf PORTB,3
0084   300F           00962         movlw 15
0085   0586           00963         andwf PORTB,F
0086   082D           00964         movf 45,W
0087   39F0           00965         andlw 240
0088   0486           00966         iorwf PORTB,F
0089   0000           00967         nop
008A   1186           00968         bcf PORTB,3
008B   0EAD           00969         swapf 45,F
008C   0000           00970         nop
008D   1820           00971         btfsc 32,0
008E   2882           00972         goto PR@LP
008F   3032           00973         movlw 50
0090   20D3           00974         call DL@US
0091                  00975 PR@EX
0091   082E           00976         movf 46,W
0092   28FF           00977         goto I@NT
0093                  00978 HRSIN
0093   1898           00979         btfsc 24,PP_OERR
0094   1218           00980         bcf 24,PP_CREN
0095   1618           00981         bsf 24,PP_CREN
0096   1E8C           00982         btfss 12,PP_RCIF
0097   2896           00983         goto $ - 1
0098                  00984 H@RSIN
0098   081A           00985         movf 26,W
0099   1403           00986         bsf 3,0
009A   28FF           00987         goto I@NT
009B                  00988 HRSOUT
009B   1E0C           00989         btfss 12,PP_TXIF
009C   289B           00990         goto $ - 1
009D   0099           00991         movwf 25
009E   1403           00992         bsf 3,0
009F   28FF           00993         goto I@NT
00A0                  00994 CH@SND
00A0   1BA1           00995         btfsc 33,7
00A1   2844           00996         goto PRINT
00A2   1921           00997         btfsc 33,2
00A3   289B           00998         goto HRSOUT
00A4   0008           00999         return
00A5                  01000 C@STROUT
00A5   00A4           01001         movwf 36
00A6                  01002 C@STROUTW
00A6   01A2           01003         clrf 34
00A7                  01004 C@STROUTLP
00A7   0824           01005         movf 36,W
00A8   1703           01006         bsf 3,6
00A9   008D           01007         movwf 269
00AA   1303           01008         bcf 3,6
00AB   0825           01009         movf 37,W
00AC   1703           01010         bsf 3,6
00AD   008F           01011         movwf 271
00AE   20B8           01012         call C@READ
00AF   1903           01013         skpnz
00B0   28FF           01014         goto I@NT
00B1   20A0           01015         call CH@SND
00B2   0AA4           01016         incf 36,F
00B3   1903           01017         skpnz
00B4   0AA5           01018         incf 37,F
00B5   0FA2           01019         incfsz 34,F
00B6   28A7           01020         goto C@STROUTLP
00B7   28FF           01021         goto I@NT
00B8                  01022 C@READ
00B8   1683           01023         bsf 3,5
00B9   1703           01024         bsf 3,6
00BA   140C           01025         bsf 396,PP_RD
00BB   0000           01026         nop
00BC   0000           01027         nop
00BD   1283           01028         bcf 3,5
00BE   080C           01029         movf 268,W
00BF   28FF           01030         goto I@NT
00C0                  01031 CL@R
00C0   0180           01032         clrf 0
00C1   0A84           01033         incf 4,F
00C2   3EFF           01034         addlw 255
00C3   1D03           01035         skpz
00C4   28C0           01036         goto $ - 4
00C5   28FF           01037         goto I@NT
00C6                  01038 DL@MS
00C6   01AA           01039         clrf 42
00C7                  01040 DLY@W
00C7   00A9           01041         movwf 41
00C8                  01042 DLY@P
00C8   30FF           01043         movlw 255
00C9   07A9           01044         addwf 41,F
00CA   1C03           01045         skpc
00CB   07AA           01046         addwf 42,F
00CC   1C03           01047         skpc
00CD   28FF           01048         goto I@NT
00CE   3003           01049         movlw 3
00CF   00A8           01050         movwf 40
00D0   30E6           01051         movlw 230
00D1   20D4           01052         call DLUS@W
00D2   28C8           01053         goto DLY@P
00D3                  01054 DL@US
00D3   01A8           01055         clrf 40
00D4                  01056 DLUS@W
00D4   3EFC           01057         addlw 252
00D5   00A7           01058         movwf 39
00D6   09A8           01059         comf 40,F
00D7   1C03           01060         skpc
00D8   28DF           01061         goto $ + 7
00D9   30FF           01062         movlw 255
00DA   0000           01063         nop
00DB   07A7           01064         addwf 39,F
00DC   1803           01065         skpnc
00DD   28DA           01066         goto $ - 3
00DE   07A7           01067         addwf 39,F
00DF   0000           01068         nop
00E0   0FA8           01069         incfsz 40,F
00E1   28D9           01070         goto $ - 8
00E2   0008           01071         return
00E3                  01072 D@VD
00E3   01AC           01073         clrf 44
00E4   01AB           01074         clrf 43
00E5                  01075 D@VD2
00E5   3010           01076         movlw 16
00E6   00AD           01077         movwf 45
00E7   0D28           01078         rlf 40,W
00E8   0DAB           01079         rlf 43,F
00E9   0DAC           01080         rlf 44,F
00EA   0829           01081         movf 41,W
00EB   02AB           01082         subwf 43,F
00EC   082A           01083         movf 42,W
00ED   1C03           01084         skpc
00EE   0F2A           01085         incfsz 42,W
00EF   02AC           01086         subwf 44,F
00F0   1803           01087         skpnc
00F1   28F9           01088         goto $ + 8
00F2   0829           01089         movf 41,W
00F3   07AB           01090         addwf 43,F
00F4   082A           01091         movf 42,W
00F5   1803           01092         skpnc
00F6   0F2A           01093         incfsz 42,W
00F7   07AC           01094         addwf 44,F
00F8   1003           01095         bcf 3,0
00F9   0DA7           01096         rlf 39,F
00FA   0DA8           01097         rlf 40,F
00FB   0BAD           01098         decfsz 45,F
00FC   28E7           01099         goto $ - 21
00FD   0827           01100         movf 39,W
00FE   0008           01101         return
00FF                  01102 I@NT
00FF   1383           01103         bcf 3,7
0100                  01104 I@NT2
0100   1283           01105         bcf 3,5
0101   1303           01106         bcf 3,6
0102   0008           01107         return
0103                  01108 proton#main#start
0103   0183           01109         clrf 3
0104   1683           01110         bsf 3,5
0105   300A           01111         movlw 10
0106   0099           01112         movwf 153
0107   3024           01113         movlw 36
0108   0098           01114         movwf 152
0109   1283           01115         bcf 3,5
010A   3090           01116         movlw 144
010B   0098           01117         movwf 24
010C   01A0           01118         clrf 32

  0000010D            01121 F2_SOF equ $ ; ABRAR
  0000010D            01122 F2_EOF equ $ ; ABRAR
  0000010D            01123 F1_SOF equ $ ; ABRAR
  0000010D            01124 F1_000020 equ $ ; IN [ABRAR] ALL_DIGITAL = TRUE
010D   3007           01125         movlw 7
010E   1683           01126         bsf STATUS,5
  00000001            01127 ram_bank = 1
010F   009F           01128         movwf ADCON1
  00000110            01129 F1_000022 equ $ ; IN [ABRAR] TRISA = %000111
0110   0085           01130         movwf TRISA
  00000111            01131 F1_000023 equ $ ; IN [ABRAR] TRISB.0 = 1
0111   1406           01132         bsf TRISB,0
  00000112            01133 F1_000024 equ $ ; IN [ABRAR] TRISC = %10111111
0112   30BF           01134         movlw 191
0113   0087           01135         movwf TRISC
  00000114            01136 F1_000064 equ $ ; IN [ABRAR] CLS
0114   1283           01137         bcf STATUS,5
  00000000            01138 ram_bank = 0
                      01139         f@call LCD@CLS
  00000117            01140 F1_000065 equ $ ; IN [ABRAR] PRINT AT 3,1,"  PLEASE WAIT..."
0117   3080           01141         movlw 128
0118   00A1           01142         movwf BPFH
0119   3094           01143         movlw 148
                      01144         f@call LCD@CRS
011C   3009           01145         movlw high (STR@LB1)
011D   00A5           01146         movwf GEN4H
011E   309E           01147         movlw low (STR@LB1)
                      01148         f@call C@STROUT
  00000121            01149 F1_000066 equ $ ; IN [ABRAR] DELAYMS 10000
0121   3027           01150         movlw 39
0122   00AA           01151         movwf PP1H
0123   3010           01152         movlw 16
                      01153         f@call DLY@W
  00000126            01154 F1_000067 equ $ ; IN [ABRAR] CLS
                      01155         f@call LCD@CLS
0128                  01156 main
  00000128            01157 F1_000070 equ $ ; IN [ABRAR] CLEAR
0128   3020           01158         movlw 32
0129   0084           01159         movwf FSR
012A   3060           01160         movlw 96
                      01161         f@call CL@R
012D   30A0           01162         movlw 160
012E   0084           01163         movwf FSR
012F   3060           01164         movlw 96
                      01165         f@call CL@R
  00000132            01166 F1_000071 equ $ ; IN [ABRAR] Vote_A = 0 : Vote_B = 0
0132   01B9           01167         clrf Vote_A
0133   01BA           01168         clrf Vote_B
  00000134            01169 F1_000072 equ $ ; IN [ABRAR] Vote_C = 0 : Vote_D = 0
0134   01BB           01170         clrf Vote_C
0135   01BC           01171         clrf Vote_D
  00000136            01172 F1_000073 equ $ ; IN [ABRAR] Vote_E = 0
0136   01BD           01173         clrf Vote_E
  00000137            01174 F1_000074 equ $ ; IN [ABRAR] GOSUB default_lcd
                      01175         f@call default_lcd
0139                  01176 start
  00000139            01177 F1_000077 equ $ ; IN [ABRAR] if permission = 1 THEN GOSUB Delay_200 : vote_flag = ~vote_flag
                      01178         set@page BC@LL2
013A   1D05           01179         btfss PORTA,2
013B   2940           01180         goto BC@LL2
                      01181         f@call Delay_200
013E   3001           01182         movlw 1
013F   06B2           01183         xorwf _B#VR1,F
0140                  01184 BC@LL2
  00000140            01185 F1_000078 equ $ ; IN [ABRAR] if vote_flag = 0 THEN
                      01186         set@page BC@LL4
0141   1832           01187         btfsc _B#VR1,0
0142   295D           01188         goto BC@LL4
  00000143            01189 F1_000079 equ $ ; IN [ABRAR] PRINT AT 3,1,"voting CURRENTLY off"
0143   3080           01190         movlw 128
0144   00A1           01191         movwf BPFH
0145   3094           01192         movlw 148
                      01193         f@call LCD@CRS
0148   3009           01194         movlw high (STR@LB2)
0149   00A5           01195         movwf GEN4H
014A   30AF           01196         movlw low (STR@LB2)
                      01197         f@call C@STROUT
  0000014D            01198 F1_000080 equ $ ; IN [ABRAR] if vote = 1 THEN GOSUB Delay_200 : GOSUB Menu
                      01199         set@page BC@LL6
014E   1E87           01200         btfss PORTC,5
014F   2954           01201         goto BC@LL6
                      01202         f@call Delay_200
                      01203         f@call Menu
0154                  01204 BC@LL6
  00000154            01205 F1_000081 equ $ ; IN [ABRAR] if result = 1 THEN GOSUB Delay_200 : GOSUB show_result
                      01206         set@page BC@LL8
0155   1C06           01207         btfss PORTB,0
0156   295B           01208         goto BC@LL8
                      01209         f@call Delay_200
                      01210         f@call show_result
015B                  01211 BC@LL8
                      01212         F@JUMP BC@LL9
015D                  01213 BC@LL4
  0000015D            01214 F1_000082 equ $ ; IN [ABRAR] else
  0000015D            01215 F1_000083 equ $ ; IN [ABRAR] PRINT AT 3,1,"  READY FOR voting  "
015D   3080           01216         movlw 128
015E   00A1           01217         movwf BPFH
015F   3094           01218         movlw 148
                      01219         f@call LCD@CRS
0162   3009           01220         movlw high (STR@LB3)
0163   00A5           01221         movwf GEN4H
0164   30C4           01222         movlw low (STR@LB3)
                      01223         f@call C@STROUT
  00000167            01224 F1_000084 equ $ ; IN [ABRAR] if vote = 1 THEN GOSUB Delay_200 : GOSUB voting
                      01225         set@page BC@LL11
0168   1E87           01226         btfss PORTC,5
0169   296E           01227         goto BC@LL11
                      01228         f@call Delay_200
                      01229         f@call voting
016E                  01230 BC@LL11
  0000016E            01231 F1_000085 equ $ ; IN [ABRAR] endif
016E                  01232 BC@LL9
  0000016E            01233 F1_000086 equ $ ; IN [ABRAR] if ADD = 1 THEN GOSUB Delay_200 : GOSUB ADD_ID
                      01234         set@page BC@LL13
016F   1C05           01235         btfss PORTA,0
0170   2975           01236         goto BC@LL13
                      01237         f@call Delay_200
                      01238         f@call ADD_ID
0175                  01239 BC@LL13
  00000175            01240 F1_000087 equ $ ; IN [ABRAR] if Change = 1 THEN
                      01241         set@page BC@LL15
0176   1C85           01242         btfss PORTA,1
0177   29A8           01243         goto BC@LL15
  00000178            01244 F1_000088 equ $ ; IN [ABRAR] GOSUB Delay_200
                      01245         f@call Delay_200
  0000017A            01246 F1_000089 equ $ ; IN [ABRAR] GOSUB FP_total_ID
                      01247         f@call FP_total_ID
  0000017C            01248 F1_000090 equ $ ; IN [ABRAR] if FP_error = 0 THEN
                      01249         set@page BC@LL17
017D   1BB2           01250         btfsc _B#VR1,7
017E   2998           01251         goto BC@LL17
  0000017F            01252 F1_000091 equ $ ; IN [ABRAR] CLS
                      01253         f@call LCD@CLS
  00000181            01254 F1_000092 equ $ ; IN [ABRAR] PRINT AT 3,1,"TOTAL IDs: ", DEC (IDs / 2)
0181   3080           01255         movlw 128
0182   00A1           01256         movwf BPFH
0183   3094           01257         movlw 148
                      01258         f@call LCD@CRS
0186   3009           01259         movlw high (STR@LB4)
0187   00A5           01260         movwf GEN4H
0188   30D9           01261         movlw low (STR@LB4)
                      01262         f@call C@STROUT
018B   01A5           01263         clrf GEN4H
018C   1003           01264         bcf STATUS,0
018D   0C56           01265         rrf IDs,W
018E   00AB           01266         movwf PP2
018F   01AC           01267         clrf PP2H
                      01268         f@call OUT@DEC
  00000192            01269 F1_000093 equ $ ; IN [ABRAR] GOSUB Delay_2000
                      01270         f@call Delay_2000
  00000194            01271 F1_000094 equ $ ; IN [ABRAR] GOSUB default_lcd
                      01272         f@call default_lcd
                      01273         F@JUMP BC@LL18
0198                  01274 BC@LL17
  00000198            01275 F1_000095 equ $ ; IN [ABRAR] else
  00000198            01276 F1_000096 equ $ ; IN [ABRAR] CLS
                      01277         f@call LCD@CLS
  0000019A            01278 F1_000097 equ $ ; IN [ABRAR] PRINT AT 3,1,"error."
019A   3080           01279         movlw 128
019B   00A1           01280         movwf BPFH
019C   3094           01281         movlw 148
                      01282         f@call LCD@CRS
019F   3009           01283         movlw high (STR@LB5)
01A0   00A5           01284         movwf GEN4H
01A1   30E5           01285         movlw low (STR@LB5)
                      01286         f@call C@STROUT
  000001A4            01287 F1_000098 equ $ ; IN [ABRAR] GOSUB Delay_2000
                      01288         f@call Delay_2000
  000001A6            01289 F1_000099 equ $ ; IN [ABRAR] GOSUB default_lcd
                      01290         f@call default_lcd
  000001A8            01291 F1_000100 equ $ ; IN [ABRAR] endif
01A8                  01292 BC@LL18
  000001A8            01293 F1_000101 equ $ ; IN [ABRAR] endif
01A8                  01294 BC@LL15
  000001A8            01295 F1_000102 equ $ ; IN [ABRAR] goto start
                      01296         F@JUMP start
01AA                  01297 show_result
  000001AA            01298 F1_000105 equ $ ; IN [ABRAR] CLS
                      01299         f@call LCD@CLS
  000001AC            01300 F1_000106 equ $ ; IN [ABRAR] while 1 = 1
01AC                  01301 BC@LL19
  000001AC            01302 F1_000107 equ $ ; IN [ABRAR] PRINT AT 1,1,"vote FINAL result"
01AC   3080           01303         movlw 128
01AD   00A1           01304         movwf BPFH
                      01305         f@call LCD@CRS
01B0   3009           01306         movlw high (STR@LB6)
01B1   00A5           01307         movwf GEN4H
01B2   30EC           01308         movlw low (STR@LB6)
                      01309         f@call C@STROUT
  000001B5            01310 F1_000108 equ $ ; IN [ABRAR] PRINT AT 2,1,"can_A: ",DEC Vote_A,"   can_B: ",DEC Vote_B
01B5   3080           01311         movlw 128
01B6   00A1           01312         movwf BPFH
01B7   30C0           01313         movlw 192
                      01314         f@call LCD@CRS
01BA   3009           01315         movlw high (STR@LB7)
01BB   00A5           01316         movwf GEN4H
01BC   30FE           01317         movlw low (STR@LB7)
                      01318         f@call C@STROUT
01BF   0839           01319         movf Vote_A,W
                      01320         f@call OUT@DECB
01C2   300A           01321         movlw high (STR@LB8)
01C3   00A5           01322         movwf GEN4H
01C4   3006           01323         movlw low (STR@LB8)
                      01324         f@call C@STROUT
01C7   083A           01325         movf Vote_B,W
                      01326         f@call OUT@DECB
  000001CA            01327 F1_000109 equ $ ; IN [ABRAR] PRINT AT 3,1,"can_C: ",DEC Vote_C,"   can_D: ",DEC Vote_D
01CA   3080           01328         movlw 128
01CB   00A1           01329         movwf BPFH
01CC   3094           01330         movlw 148
                      01331         f@call LCD@CRS
01CF   300A           01332         movlw high (STR@LB9)
01D0   00A5           01333         movwf GEN4H
01D1   3011           01334         movlw low (STR@LB9)
                      01335         f@call C@STROUT
01D4   083B           01336         movf Vote_C,W
                      01337         f@call OUT@DECB
01D7   300A           01338         movlw high (STR@LB10)
01D8   00A5           01339         movwf GEN4H
01D9   3019           01340         movlw low (STR@LB10)
                      01341         f@call C@STROUT
01DC   083C           01342         movf Vote_D,W
                      01343         f@call OUT@DECB
  000001DF            01344 F1_000110 equ $ ; IN [ABRAR] PRINT AT 4,1,"can_E: ",DEC Vote_E
01DF   3080           01345         movlw 128
01E0   00A1           01346         movwf BPFH
01E1   30D4           01347         movlw 212
                      01348         f@call LCD@CRS
01E4   300A           01349         movlw high (STR@LB11)
01E5   00A5           01350         movwf GEN4H
01E6   3024           01351         movlw low (STR@LB11)
                      01352         f@call C@STROUT
01E9   083D           01353         movf Vote_E,W
                      01354         f@call OUT@DECB
  000001EC            01355 F1_000111 equ $ ; IN [ABRAR] if result = 1 THEN GOSUB Delay_200 : GOSUB default_lcd
                      01356         set@page BC@LL22
01ED   1C06           01357         btfss PORTB,0
01EE   29F3           01358         goto BC@LL22
                      01359         f@call Delay_200
                      01360         f@call default_lcd
01F3                  01361 BC@LL22
  000001F3            01362 F1_000112 equ $ ; IN [ABRAR] WEND
                      01363         F@JUMP BC@LL19
01F5                  01364 BC@LL20
01F5                  01365 voting
  000001F5            01366 F1_000116 equ $ ; IN [ABRAR] CLS
                      01367         f@call LCD@CLS
  000001F7            01368 F1_000117 equ $ ; IN [ABRAR] PRINT AT 2,1,"voting ALLOWED."
01F7   3080           01369         movlw 128
01F8   00A1           01370         movwf BPFH
01F9   30C0           01371         movlw 192
                      01372         f@call LCD@CRS
01FC   300A           01373         movlw high (STR@LB12)
01FD   00A5           01374         movwf GEN4H
01FE   302C           01375         movlw low (STR@LB12)
                      01376         f@call C@STROUT
  00000201            01377 F1_000119 equ $ ; IN [ABRAR] while vote_flag = 1
0201                  01378 BC@LL23
                      01379         set@page BC@LL24
0202   1C32           01380         btfss _B#VR1,0
0203   2AF6           01381         goto BC@LL24
  00000204            01382 F1_000120 equ $ ; IN [ABRAR] if permission = 1 THEN GOSUB Delay_200 : vote_flag = ~vote_flag
                      01383         set@page BC@LL26
0205   1D05           01384         btfss PORTA,2
0206   2A0B           01385         goto BC@LL26
                      01386         f@call Delay_200
0209   3001           01387         movlw 1
020A   06B2           01388         xorwf _B#VR1,F
020B                  01389 BC@LL26
  0000020B            01390 F1_000121 equ $ ; IN [ABRAR] PRINT AT 3,1,"PRESS AGAIN FOR vote"
020B   3080           01391         movlw 128
020C   00A1           01392         movwf BPFH
020D   3094           01393         movlw 148
                      01394         f@call LCD@CRS
0210   300A           01395         movlw high (STR@LB13)
0211   00A5           01396         movwf GEN4H
0212   303C           01397         movlw low (STR@LB13)
                      01398         f@call C@STROUT
  00000215            01399 F1_000122 equ $ ; IN [ABRAR] while vote = 1
0215                  01400 BC@LL27
                      01401         set@page BC@LL28
0216   1E87           01402         btfss PORTC,5
0217   2AF4           01403         goto BC@LL28
  00000218            01404 F1_000123 equ $ ; IN [ABRAR] CLS
                      01405         f@call LCD@CLS
  0000021A            01406 F1_000124 equ $ ; IN [ABRAR] PRINT AT 3,1,"PUT YOUR FINGER - 1"
021A   3080           01407         movlw 128
021B   00A1           01408         movwf BPFH
021C   3094           01409         movlw 148
                      01410         f@call LCD@CRS
021F   300A           01411         movlw high (STR@LB14)
0220   00A5           01412         movwf GEN4H
0221   3051           01413         movlw low (STR@LB14)
                      01414         f@call C@STROUT
  00000224            01415 F1_000125 equ $ ; IN [ABRAR] GOSUB FP_Search
                      01416         f@call FP_Search
  00000226            01417 F1_000126 equ $ ; IN [ABRAR] if FP_error = 0 THEN
                      01418         set@page BC@LL30
0227   1BB2           01419         btfsc _B#VR1,7
0228   2AE2           01420         goto BC@LL30
  00000229            01421 F1_000127 equ $ ; IN [ABRAR] CLS
                      01422         f@call LCD@CLS
  0000022B            01423 F1_000128 equ $ ; IN [ABRAR] if get_ID = 0 AND voted_flag1 = 0 THEN
022B   3001           01424         movlw 1
022C   08D3           01425         movf get_ID,F
022D   1D03           01426         btfss STATUS,2
022E   3000           01427         movlw 0
022F   00B1           01428         movwf SP#P9
0230   3001           01429         movlw 1
0231   1932           01430         btfsc _B#VR1,2
0232   3000           01431         movlw 0
0233   05B1           01432         andwf SP#P9,F
                      01433         set@page BC@LL32
0235   1903           01434         btfsc STATUS,2
0236   2A4E           01435         goto BC@LL32
  00000237            01436 F1_000129 equ $ ; IN [ABRAR] GOSUB sub3
                      01437         f@call sub3
  00000239            01438 F1_000130 equ $ ; IN [ABRAR] if FP_error = 0 AND get_ID = 1 THEN
0239   3001           01439         movlw 1
023A   1BB2           01440         btfsc _B#VR1,7
023B   3000           01441         movlw 0
023C   00B1           01442         movwf SP#P9
023D   3001           01443         movlw 1
023E   0253           01444         subwf get_ID,W
023F   3001           01445         movlw 1
0240   1D03           01446         btfss STATUS,2
0241   3000           01447         movlw 0
0242   05B1           01448         andwf SP#P9,F
                      01449         set@page BC@LL34
0244   1903           01450         btfsc STATUS,2
0245   2A4A           01451         goto BC@LL34
  00000246            01452 F1_000131 equ $ ; IN [ABRAR] GOSUB sub1
                      01453         f@call sub1
                      01454         F@JUMP BC@LL35
024A                  01455 BC@LL34
  0000024A            01456 F1_000132 equ $ ; IN [ABRAR] else
  0000024A            01457 F1_000133 equ $ ; IN [ABRAR] GOSUB sub2
                      01458         f@call sub2
  0000024C            01459 F1_000134 equ $ ; IN [ABRAR] endif
024C                  01460 BC@LL35
                      01461         F@JUMP BC@LL31
  0000024E            01462 F1_000135 equ $ ; IN [ABRAR] ELSEIF get_ID = 2 AND voted_flag2 = 0 THEN
024E                  01463 BC@LL32
024E   3002           01464         movlw 2
024F   0253           01465         subwf get_ID,W
0250   3001           01466         movlw 1
0251   1D03           01467         btfss STATUS,2
0252   3000           01468         movlw 0
0253   00B1           01469         movwf SP#P9
0254   3001           01470         movlw 1
0255   19B2           01471         btfsc _B#VR1,3
0256   3000           01472         movlw 0
0257   05B1           01473         andwf SP#P9,F
                      01474         set@page BC@LL36
0259   1903           01475         btfsc STATUS,2
025A   2A72           01476         goto BC@LL36
  0000025B            01477 F1_000136 equ $ ; IN [ABRAR] GOSUB sub3
                      01478         f@call sub3
  0000025D            01479 F1_000137 equ $ ; IN [ABRAR] if FP_error = 0 AND get_ID = 3 THEN
025D   3001           01480         movlw 1
025E   1BB2           01481         btfsc _B#VR1,7
025F   3000           01482         movlw 0
0260   00B1           01483         movwf SP#P9
0261   3003           01484         movlw 3
0262   0253           01485         subwf get_ID,W
0263   3001           01486         movlw 1
0264   1D03           01487         btfss STATUS,2
0265   3000           01488         movlw 0
0266   05B1           01489         andwf SP#P9,F
                      01490         set@page BC@LL38
0268   1903           01491         btfsc STATUS,2
0269   2A6E           01492         goto BC@LL38
  0000026A            01493 F1_000138 equ $ ; IN [ABRAR] GOSUB sub1
                      01494         f@call sub1
                      01495         F@JUMP BC@LL39
026E                  01496 BC@LL38
  0000026E            01497 F1_000139 equ $ ; IN [ABRAR] else
  0000026E            01498 F1_000140 equ $ ; IN [ABRAR] GOSUB sub2
                      01499         f@call sub2
  00000270            01500 F1_000141 equ $ ; IN [ABRAR] endif
0270                  01501 BC@LL39
                      01502         F@JUMP BC@LL31
  00000272            01503 F1_000142 equ $ ; IN [ABRAR] ELSEIF get_ID = 4 AND voted_flag3 = 0 THEN
0272                  01504 BC@LL36
0272   3004           01505         movlw 4
0273   0253           01506         subwf get_ID,W
0274   3001           01507         movlw 1
0275   1D03           01508         btfss STATUS,2
0276   3000           01509         movlw 0
0277   00B1           01510         movwf SP#P9
0278   3001           01511         movlw 1
0279   1A32           01512         btfsc _B#VR1,4
027A   3000           01513         movlw 0
027B   05B1           01514         andwf SP#P9,F
                      01515         set@page BC@LL40
027D   1903           01516         btfsc STATUS,2
027E   2A96           01517         goto BC@LL40
  0000027F            01518 F1_000143 equ $ ; IN [ABRAR] GOSUB sub3
                      01519         f@call sub3
  00000281            01520 F1_000144 equ $ ; IN [ABRAR] if FP_error = 0 AND get_ID = 5 THEN
0281   3001           01521         movlw 1
0282   1BB2           01522         btfsc _B#VR1,7
0283   3000           01523         movlw 0
0284   00B1           01524         movwf SP#P9
0285   3005           01525         movlw 5
0286   0253           01526         subwf get_ID,W
0287   3001           01527         movlw 1
0288   1D03           01528         btfss STATUS,2
0289   3000           01529         movlw 0
028A   05B1           01530         andwf SP#P9,F
                      01531         set@page BC@LL42
028C   1903           01532         btfsc STATUS,2
028D   2A92           01533         goto BC@LL42
  0000028E            01534 F1_000145 equ $ ; IN [ABRAR] GOSUB sub1
                      01535         f@call sub1
                      01536         F@JUMP BC@LL43
0292                  01537 BC@LL42
  00000292            01538 F1_000146 equ $ ; IN [ABRAR] else
  00000292            01539 F1_000147 equ $ ; IN [ABRAR] GOSUB sub2
                      01540         f@call sub2
  00000294            01541 F1_000148 equ $ ; IN [ABRAR] endif
0294                  01542 BC@LL43
                      01543         F@JUMP BC@LL31
  00000296            01544 F1_000149 equ $ ; IN [ABRAR] ELSEIF get_ID = 6 AND voted_flag4 = 0 THEN
0296                  01545 BC@LL40
0296   3006           01546         movlw 6
0297   0253           01547         subwf get_ID,W
0298   3001           01548         movlw 1
0299   1D03           01549         btfss STATUS,2
029A   3000           01550         movlw 0
029B   00B1           01551         movwf SP#P9
029C   3001           01552         movlw 1
029D   1AB2           01553         btfsc _B#VR1,5
029E   3000           01554         movlw 0
029F   05B1           01555         andwf SP#P9,F
                      01556         set@page BC@LL44
02A1   1903           01557         btfsc STATUS,2
02A2   2ABA           01558         goto BC@LL44
  000002A3            01559 F1_000150 equ $ ; IN [ABRAR] GOSUB sub3
                      01560         f@call sub3
  000002A5            01561 F1_000151 equ $ ; IN [ABRAR] if FP_error = 0 AND get_ID = 7 THEN
02A5   3001           01562         movlw 1
02A6   1BB2           01563         btfsc _B#VR1,7
02A7   3000           01564         movlw 0
02A8   00B1           01565         movwf SP#P9
02A9   3007           01566         movlw 7
02AA   0253           01567         subwf get_ID,W
02AB   3001           01568         movlw 1
02AC   1D03           01569         btfss STATUS,2
02AD   3000           01570         movlw 0
02AE   05B1           01571         andwf SP#P9,F
                      01572         set@page BC@LL46
02B0   1903           01573         btfsc STATUS,2
02B1   2AB6           01574         goto BC@LL46
  000002B2            01575 F1_000152 equ $ ; IN [ABRAR] GOSUB sub1
                      01576         f@call sub1
                      01577         F@JUMP BC@LL47
02B6                  01578 BC@LL46
  000002B6            01579 F1_000153 equ $ ; IN [ABRAR] else
  000002B6            01580 F1_000154 equ $ ; IN [ABRAR] GOSUB sub2
                      01581         f@call sub2
  000002B8            01582 F1_000155 equ $ ; IN [ABRAR] endif
02B8                  01583 BC@LL47
                      01584         F@JUMP BC@LL31
  000002BA            01585 F1_000156 equ $ ; IN [ABRAR] ELSEIF get_ID = 8 AND voted_flag5 = 0 THEN
02BA                  01586 BC@LL44
02BA   3008           01587         movlw 8
02BB   0253           01588         subwf get_ID,W
02BC   3001           01589         movlw 1
02BD   1D03           01590         btfss STATUS,2
02BE   3000           01591         movlw 0
02BF   00B1           01592         movwf SP#P9
02C0   3001           01593         movlw 1
02C1   1B32           01594         btfsc _B#VR1,6
02C2   3000           01595         movlw 0
02C3   05B1           01596         andwf SP#P9,F
                      01597         set@page BC@LL48
02C5   1903           01598         btfsc STATUS,2
02C6   2ADE           01599         goto BC@LL48
  000002C7            01600 F1_000157 equ $ ; IN [ABRAR] GOSUB sub3
                      01601         f@call sub3
  000002C9            01602 F1_000158 equ $ ; IN [ABRAR] if FP_error = 0 AND get_ID = 9 THEN
02C9   3001           01603         movlw 1
02CA   1BB2           01604         btfsc _B#VR1,7
02CB   3000           01605         movlw 0
02CC   00B1           01606         movwf SP#P9
02CD   3009           01607         movlw 9
02CE   0253           01608         subwf get_ID,W
02CF   3001           01609         movlw 1
02D0   1D03           01610         btfss STATUS,2
02D1   3000           01611         movlw 0
02D2   05B1           01612         andwf SP#P9,F
                      01613         set@page BC@LL50
02D4   1903           01614         btfsc STATUS,2
02D5   2ADA           01615         goto BC@LL50
  000002D6            01616 F1_000159 equ $ ; IN [ABRAR] GOSUB sub1
                      01617         f@call sub1
                      01618         F@JUMP BC@LL51
02DA                  01619 BC@LL50
  000002DA            01620 F1_000160 equ $ ; IN [ABRAR] else
  000002DA            01621 F1_000161 equ $ ; IN [ABRAR] GOSUB sub2
                      01622         f@call sub2
  000002DC            01623 F1_000162 equ $ ; IN [ABRAR] endif
02DC                  01624 BC@LL51
                      01625         F@JUMP BC@LL52
02DE                  01626 BC@LL48
  000002DE            01627 F1_000163 equ $ ; IN [ABRAR] else
  000002DE            01628 F1_000164 equ $ ; IN [ABRAR] GOSUB sub4
                      01629         f@call sub4
  000002E0            01630 F1_000165 equ $ ; IN [ABRAR] endif
02E0                  01631 BC@LL52
02E0                  01632 BC@LL31
                      01633         F@JUMP BC@LL53
02E2                  01634 BC@LL30
  000002E2            01635 F1_000166 equ $ ; IN [ABRAR] else
  000002E2            01636 F1_000167 equ $ ; IN [ABRAR] CLS
                      01637         f@call LCD@CLS
  000002E4            01638 F1_000168 equ $ ; IN [ABRAR] PRINT AT 3,1,"error."
02E4   3080           01639         movlw 128
02E5   00A1           01640         movwf BPFH
02E6   3094           01641         movlw 148
                      01642         f@call LCD@CRS
02E9   3009           01643         movlw high (STR@LB15)
02EA   00A5           01644         movwf GEN4H
02EB   30E5           01645         movlw low (STR@LB15)
                      01646         f@call C@STROUT
  000002EE            01647 F1_000169 equ $ ; IN [ABRAR] GOSUB Delay_2000
                      01648         f@call Delay_2000
  000002F0            01649 F1_000170 equ $ ; IN [ABRAR] GOSUB default_lcd
                      01650         f@call default_lcd
  000002F2            01651 F1_000171 equ $ ; IN [ABRAR] endif
02F2                  01652 BC@LL53
  000002F2            01653 F1_000172 equ $ ; IN [ABRAR] WEND
                      01654         F@JUMP BC@LL27
02F4                  01655 BC@LL28
  000002F4            01656 F1_000173 equ $ ; IN [ABRAR] WEND
                      01657         F@JUMP BC@LL23
02F6                  01658 BC@LL24
02F6                  01659 sub1
  000002F6            01660 F1_000176 equ $ ; IN [ABRAR] PRINT AT 3,1,"PRESS YOUR CANDIDATE"
02F6   3080           01661         movlw 128
02F7   00A1           01662         movwf BPFH
02F8   3094           01663         movlw 148
                      01664         f@call LCD@CRS
02FB   300A           01665         movlw high (STR@LB16)
02FC   00A5           01666         movwf GEN4H
02FD   3065           01667         movlw low (STR@LB16)
                      01668         f@call C@STROUT
  00000300            01669 F1_000177 equ $ ; IN [ABRAR] GOSUB select_vote
                      01670         f@call select_vote
0302                  01671 sub2
  00000302            01672 F1_000180 equ $ ; IN [ABRAR] led = 1
0302   1685           01673         bsf PORTA,5
  00000303            01674 F1_000181 equ $ ; IN [ABRAR] PRINT AT 3,1,"YOU R NOT REGISTERED"
0303   3080           01675         movlw 128
0304   00A1           01676         movwf BPFH
0305   3094           01677         movlw 148
                      01678         f@call LCD@CRS
0308   300A           01679         movlw high (STR@LB17)
0309   00A5           01680         movwf GEN4H
030A   307A           01681         movlw low (STR@LB17)
                      01682         f@call C@STROUT
  0000030D            01683 F1_000182 equ $ ; IN [ABRAR] GOSUB Delay_2000
                      01684         f@call Delay_2000
  0000030F            01685 F1_000183 equ $ ; IN [ABRAR] led = 0
030F   1285           01686         bcf PORTA,5
  00000310            01687 F1_000184 equ $ ; IN [ABRAR] GOSUB default_lcd
                      01688         f@call default_lcd
0312                  01689 sub3
  00000312            01690 F1_000187 equ $ ; IN [ABRAR] PRINT AT 3,1,"PUT YOUR FINGER - 2"
0312   3080           01691         movlw 128
0313   00A1           01692         movwf BPFH
0314   3094           01693         movlw 148
                      01694         f@call LCD@CRS
0317   300A           01695         movlw high (STR@LB18)
0318   00A5           01696         movwf GEN4H
0319   308F           01697         movlw low (STR@LB18)
                      01698         f@call C@STROUT
  0000031C            01699 F1_000188 equ $ ; IN [ABRAR] GOSUB Delay_2000
                      01700         f@call Delay_2000
  0000031E            01701 F1_000189 equ $ ; IN [ABRAR] GOSUB FP_Search
                      01702         f@call FP_Search
  00000320            01703 F1_000190 equ $ ; IN [ABRAR] return
0320   0008           01704         return
0321                  01705 sub4
  00000321            01706 F1_000193 equ $ ; IN [ABRAR] led = 1
0321   1685           01707         bsf PORTA,5
  00000322            01708 F1_000194 equ $ ; IN [ABRAR] PRINT AT 3,1,"YOU ALREADY voted."
0322   3080           01709         movlw 128
0323   00A1           01710         movwf BPFH
0324   3094           01711         movlw 148
                      01712         f@call LCD@CRS
0327   300A           01713         movlw high (STR@LB19)
0328   00A5           01714         movwf GEN4H
0329   30A3           01715         movlw low (STR@LB19)
                      01716         f@call C@STROUT
  0000032C            01717 F1_000195 equ $ ; IN [ABRAR] GOSUB Delay_2000
                      01718         f@call Delay_2000
  0000032E            01719 F1_000196 equ $ ; IN [ABRAR] led = 0
032E   1285           01720         bcf PORTA,5
  0000032F            01721 F1_000197 equ $ ; IN [ABRAR] GOSUB default_lcd
                      01722         f@call default_lcd
0331                  01723 select_vote
  00000331            01724 F1_000200 equ $ ; IN [ABRAR] voted = 0
0331   10B2           01725         bcf _B#VR1,1
  00000332            01726 F1_000201 equ $ ; IN [ABRAR] REPEAT
0332                  01727 BC@LL54
  00000332            01728 F1_000202 equ $ ; IN [ABRAR] if can_A = 1 THEN
                      01729         set@page BC@LL58
0333   1C07           01730         btfss PORTC,0
0334   2B3B           01731         goto BC@LL58
  00000335            01732 F1_000203 equ $ ; IN [ABRAR] GOSUB Delay_200 : INC Vote_A : voted = 1
                      01733         f@call Delay_200
0337   0AB9           01734         incf Vote_A,F
0338   14B2           01735         bsf _B#VR1,1
                      01736         F@JUMP BC@LL57
  0000033B            01737 F1_000204 equ $ ; IN [ABRAR] ELSEIF can_B = 1 THEN
033B                  01738 BC@LL58
                      01739         set@page BC@LL59
033C   1C87           01740         btfss PORTC,1
033D   2B44           01741         goto BC@LL59
  0000033E            01742 F1_000205 equ $ ; IN [ABRAR] GOSUB Delay_200 : INC Vote_B : voted = 1
                      01743         f@call Delay_200
0340   0ABA           01744         incf Vote_B,F
0341   14B2           01745         bsf _B#VR1,1
                      01746         F@JUMP BC@LL57
  00000344            01747 F1_000206 equ $ ; IN [ABRAR] ELSEIF can_C = 1 THEN
0344                  01748 BC@LL59
                      01749         set@page BC@LL60
0345   1D07           01750         btfss PORTC,2
0346   2B4D           01751         goto BC@LL60
  00000347            01752 F1_000207 equ $ ; IN [ABRAR] GOSUB Delay_200 : INC Vote_C : voted = 1
                      01753         f@call Delay_200
0349   0ABB           01754         incf Vote_C,F
034A   14B2           01755         bsf _B#VR1,1
                      01756         F@JUMP BC@LL57
  0000034D            01757 F1_000208 equ $ ; IN [ABRAR] ELSEIF can_D = 1 THEN
034D                  01758 BC@LL60
                      01759         set@page BC@LL61
034E   1D87           01760         btfss PORTC,3
034F   2B56           01761         goto BC@LL61
  00000350            01762 F1_000209 equ $ ; IN [ABRAR] GOSUB Delay_200 : INC Vote_D : voted = 1
                      01763         f@call Delay_200
0352   0ABC           01764         incf Vote_D,F
0353   14B2           01765         bsf _B#VR1,1
                      01766         F@JUMP BC@LL57
  00000356            01767 F1_000210 equ $ ; IN [ABRAR] ELSEIF can_E = 1 THEN
0356                  01768 BC@LL61
                      01769         set@page BC@LL62
0357   1E07           01770         btfss PORTC,4
0358   2B5D           01771         goto BC@LL62
  00000359            01772 F1_000211 equ $ ; IN [ABRAR] GOSUB Delay_200 : INC Vote_E : voted = 1
                      01773         f@call Delay_200
035B   0ABD           01774         incf Vote_E,F
035C   14B2           01775         bsf _B#VR1,1
  0000035D            01776 F1_000212 equ $ ; IN [ABRAR] endif
035D                  01777 BC@LL62
035D                  01778 BC@LL57
035D                  01779 BC@LL56
  0000035D            01780 F1_000213 equ $ ; IN [ABRAR] UNTIL voted = 1
                      01781         set@page BC@LL54
035E   1CB2           01782         btfss _B#VR1,1
035F   2B32           01783         goto BC@LL54
0360                  01784 BC@LL55
  00000360            01785 F1_000214 equ $ ; IN [ABRAR] CLS
                      01786         f@call LCD@CLS
  00000362            01787 F1_000215 equ $ ; IN [ABRAR] PRINT AT 3,1,"vote GRANTED."
0362   3080           01788         movlw 128
0363   00A1           01789         movwf BPFH
0364   3094           01790         movlw 148
                      01791         f@call LCD@CRS
0367   300A           01792         movlw high (STR@LB20)
0368   00A5           01793         movwf GEN4H
0369   30B6           01794         movlw low (STR@LB20)
                      01795         f@call C@STROUT
  0000036C            01796 F1_000216 equ $ ; IN [ABRAR] if get_ID = 1 THEN voted_flag1 = 1
036C   3001           01797         movlw 1
036D   0253           01798         subwf get_ID,W
                      01799         set@page BC@LL64
036F   1D03           01800         btfss STATUS,2
0370   2B72           01801         goto BC@LL64
0371   1532           01802         bsf _B#VR1,2
0372                  01803 BC@LL64
  00000372            01804 F1_000217 equ $ ; IN [ABRAR] if get_ID = 3 THEN voted_flag2 = 1
0372   3003           01805         movlw 3
0373   0253           01806         subwf get_ID,W
                      01807         set@page BC@LL66
0375   1D03           01808         btfss STATUS,2
0376   2B78           01809         goto BC@LL66
0377   15B2           01810         bsf _B#VR1,3
0378                  01811 BC@LL66
  00000378            01812 F1_000218 equ $ ; IN [ABRAR] if get_ID = 5 THEN voted_flag3 = 1
0378   3005           01813         movlw 5
0379   0253           01814         subwf get_ID,W
                      01815         set@page BC@LL68
037B   1D03           01816         btfss STATUS,2
037C   2B7E           01817         goto BC@LL68
037D   1632           01818         bsf _B#VR1,4
037E                  01819 BC@LL68
  0000037E            01820 F1_000219 equ $ ; IN [ABRAR] if get_ID = 7 THEN voted_flag4 = 1
037E   3007           01821         movlw 7
037F   0253           01822         subwf get_ID,W
                      01823         set@page BC@LL70
0381   1D03           01824         btfss STATUS,2
0382   2B84           01825         goto BC@LL70
0383   16B2           01826         bsf _B#VR1,5
0384                  01827 BC@LL70
  00000384            01828 F1_000220 equ $ ; IN [ABRAR] if get_ID = 9 THEN voted_flag5 = 1
0384   3009           01829         movlw 9
0385   0253           01830         subwf get_ID,W
                      01831         set@page BC@LL72
0387   1D03           01832         btfss STATUS,2
0388   2B8A           01833         goto BC@LL72
0389   1732           01834         bsf _B#VR1,6
038A                  01835 BC@LL72
  0000038A            01836 F1_000221 equ $ ; IN [ABRAR] GOSUB Delay_2000
                      01837         f@call Delay_2000
  0000038C            01838 F1_000222 equ $ ; IN [ABRAR] GOSUB default_lcd
                      01839         f@call default_lcd
038E                  01840 Menu
  0000038E            01841 F1_000225 equ $ ; IN [ABRAR] CLS
                      01842         f@call LCD@CLS
  00000390            01843 F1_000226 equ $ ; IN [ABRAR] PRINT AT 2,1,"1. DELETE ALL IDs??"
0390   3080           01844         movlw 128
0391   00A1           01845         movwf BPFH
0392   30C0           01846         movlw 192
                      01847         f@call LCD@CRS
0395   300A           01848         movlw high (STR@LB21)
0396   00A5           01849         movwf GEN4H
0397   30C4           01850         movlw low (STR@LB21)
                      01851         f@call C@STROUT
  0000039A            01852 F1_000227 equ $ ; IN [ABRAR] PRINT AT 3,1,"2. DELETE ALL vote?"
039A   3080           01853         movlw 128
039B   00A1           01854         movwf BPFH
039C   3094           01855         movlw 148
                      01856         f@call LCD@CRS
039F   300A           01857         movlw high (STR@LB22)
03A0   00A5           01858         movwf GEN4H
03A1   30D8           01859         movlw low (STR@LB22)
                      01860         f@call C@STROUT
  000003A4            01861 F1_000228 equ $ ; IN [ABRAR] while 1 = 1
03A4                  01862 BC@LL73
  000003A4            01863 F1_000229 equ $ ; IN [ABRAR] if vote = 1 THEN GOSUB Delay_200 : GOSUB default_lcd
                      01864         set@page BC@LL76
03A5   1E87           01865         btfss PORTC,5
03A6   2BAB           01866         goto BC@LL76
                      01867         f@call Delay_200
                      01868         f@call default_lcd
03AB                  01869 BC@LL76
  000003AB            01870 F1_000230 equ $ ; IN [ABRAR] if result = 1 THEN
                      01871         set@page BC@LL78
03AC   1C06           01872         btfss PORTB,0
03AD   2BCB           01873         goto BC@LL78
  000003AE            01874 F1_000231 equ $ ; IN [ABRAR] GOSUB Delay_200
                      01875         f@call Delay_200
  000003B0            01876 F1_000232 equ $ ; IN [ABRAR] CLEAR
03B0   3020           01877         movlw 32
03B1   0084           01878         movwf FSR
03B2   3060           01879         movlw 96
                      01880         f@call CL@R
03B5   30A0           01881         movlw 160
03B6   0084           01882         movwf FSR
03B7   3060           01883         movlw 96
                      01884         f@call CL@R
  000003BA            01885 F1_000233 equ $ ; IN [ABRAR] Vote_A = 0 : Vote_B = 0
03BA   01B9           01886         clrf Vote_A
03BB   01BA           01887         clrf Vote_B
  000003BC            01888 F1_000234 equ $ ; IN [ABRAR] Vote_C = 0 : Vote_D = 0
03BC   01BB           01889         clrf Vote_C
03BD   01BC           01890         clrf Vote_D
  000003BE            01891 F1_000235 equ $ ; IN [ABRAR] Vote_E = 0
03BE   01BD           01892         clrf Vote_E
  000003BF            01893 F1_000237 equ $ ; IN [ABRAR] PRINT AT 3,1,"ALL vote CLEARED."
03BF   3080           01894         movlw 128
03C0   00A1           01895         movwf BPFH
03C1   3094           01896         movlw 148
                      01897         f@call LCD@CRS
03C4   300A           01898         movlw high (STR@LB23)
03C5   00A5           01899         movwf GEN4H
03C6   30EC           01900         movlw low (STR@LB23)
                      01901         f@call C@STROUT
  000003C9            01902 F1_000238 equ $ ; IN [ABRAR] GOSUB default_lcd
                      01903         f@call default_lcd
  000003CB            01904 F1_000239 equ $ ; IN [ABRAR] endif
03CB                  01905 BC@LL78
  000003CB            01906 F1_000240 equ $ ; IN [ABRAR] if permission = 1 THEN
                      01907         set@page BC@LL80
03CC   1D05           01908         btfss PORTA,2
03CD   2BFB           01909         goto BC@LL80
  000003CE            01910 F1_000241 equ $ ; IN [ABRAR] led = 1
03CE   1685           01911         bsf PORTA,5
  000003CF            01912 F1_000242 equ $ ; IN [ABRAR] GOSUB Delay_200
                      01913         f@call Delay_200
  000003D1            01914 F1_000243 equ $ ; IN [ABRAR] led = 0
03D1   1285           01915         bcf PORTA,5
  000003D2            01916 F1_000244 equ $ ; IN [ABRAR] GOSUB FP_Delete_ALL
                      01917         f@call FP_Delete_ALL
  000003D4            01918 F1_000245 equ $ ; IN [ABRAR] if FP_error = 0 THEN
                      01919         set@page BC@LL82
03D5   1BB2           01920         btfsc _B#VR1,7
03D6   2BEB           01921         goto BC@LL82
  000003D7            01922 F1_000246 equ $ ; IN [ABRAR] CLS
                      01923         f@call LCD@CLS
  000003D9            01924 F1_000247 equ $ ; IN [ABRAR] PRINT AT 3,1,"ALL DELETED."
03D9   3080           01925         movlw 128
03DA   00A1           01926         movwf BPFH
03DB   3094           01927         movlw 148
                      01928         f@call LCD@CRS
03DE   300A           01929         movlw high (STR@LB24)
03DF   00A5           01930         movwf GEN4H
03E0   30FE           01931         movlw low (STR@LB24)
                      01932         f@call C@STROUT
  000003E3            01933 F1_000248 equ $ ; IN [ABRAR] led = 1
03E3   1685           01934         bsf PORTA,5
  000003E4            01935 F1_000249 equ $ ; IN [ABRAR] GOSUB Delay_2000
                      01936         f@call Delay_2000
  000003E6            01937 F1_000250 equ $ ; IN [ABRAR] led = 0
03E6   1285           01938         bcf PORTA,5
  000003E7            01939 F1_000251 equ $ ; IN [ABRAR] GOSUB default_lcd
                      01940         f@call default_lcd
                      01941         F@JUMP BC@LL83
03EB                  01942 BC@LL82
  000003EB            01943 F1_000252 equ $ ; IN [ABRAR] else
  000003EB            01944 F1_000253 equ $ ; IN [ABRAR] CLS
                      01945         f@call LCD@CLS
  000003ED            01946 F1_000254 equ $ ; IN [ABRAR] PRINT AT 3,1,"error."
03ED   3080           01947         movlw 128
03EE   00A1           01948         movwf BPFH
03EF   3094           01949         movlw 148
                      01950         f@call LCD@CRS
03F2   3009           01951         movlw high (STR@LB25)
03F3   00A5           01952         movwf GEN4H
03F4   30E5           01953         movlw low (STR@LB25)
                      01954         f@call C@STROUT
  000003F7            01955 F1_000255 equ $ ; IN [ABRAR] GOSUB Delay_2000
                      01956         f@call Delay_2000
  000003F9            01957 F1_000256 equ $ ; IN [ABRAR] GOSUB default_lcd
                      01958         f@call default_lcd
  000003FB            01959 F1_000257 equ $ ; IN [ABRAR] endif
03FB                  01960 BC@LL83
  000003FB            01961 F1_000258 equ $ ; IN [ABRAR] endif
03FB                  01962 BC@LL80
  000003FB            01963 F1_000259 equ $ ; IN [ABRAR] WEND
                      01964         F@JUMP BC@LL73
03FD                  01965 BC@LL74
03FD                  01966 ADD_ID
  000003FD            01967 F1_000262 equ $ ; IN [ABRAR] CLS
                      01968         f@call LCD@CLS
  000003FF            01969 F1_000263 equ $ ; IN [ABRAR] PRINT AT 2,1,"ENTER ID #:"
03FF   3080           01970         movlw 128
0400   00A1           01971         movwf BPFH
0401   30C0           01972         movlw 192
                      01973         f@call LCD@CRS
0404   300B           01974         movlw high (STR@LB26)
0405   00A5           01975         movwf GEN4H
0406   300B           01976         movlw low (STR@LB26)
                      01977         f@call C@STROUT
  00000409            01978 F1_000264 equ $ ; IN [ABRAR] ID_no = 100
0409   3064           01979         movlw 100
040A   00D4           01980         movwf ID_no
  0000040B            01981 F1_000265 equ $ ; IN [ABRAR] REPEAT
040B                  01982 BC@LL84
  0000040B            01983 F1_000266 equ $ ; IN [ABRAR] if can_A = 1 THEN
                      01984         set@page BC@LL88
040C   1C07           01985         btfss PORTC,0
040D   2C15           01986         goto BC@LL88
  0000040E            01987 F1_000267 equ $ ; IN [ABRAR] GOSUB Delay_200 : ID_no = 0 : new_ID = 1
                      01988         f@call Delay_200
0410   01D4           01989         clrf ID_no
0411   3001           01990         movlw 1
0412   00B3           01991         movwf new_ID
                      01992         F@JUMP BC@LL87
  00000415            01993 F1_000268 equ $ ; IN [ABRAR] ELSEIF can_B = 1 THEN
0415                  01994 BC@LL88
                      01995         set@page BC@LL89
0416   1C87           01996         btfss PORTC,1
0417   2C1F           01997         goto BC@LL89
  00000418            01998 F1_000269 equ $ ; IN [ABRAR] GOSUB Delay_200 : ID_no = 2 : new_ID = 2
                      01999         f@call Delay_200
041A   3002           02000         movlw 2
041B   00D4           02001         movwf ID_no
041C   00B3           02002         movwf new_ID
                      02003         F@JUMP BC@LL87
  0000041F            02004 F1_000270 equ $ ; IN [ABRAR] ELSEIF can_C = 1 THEN
041F                  02005 BC@LL89
                      02006         set@page BC@LL90
0420   1D07           02007         btfss PORTC,2
0421   2C2A           02008         goto BC@LL90
  00000422            02009 F1_000271 equ $ ; IN [ABRAR] GOSUB Delay_200 : ID_no = 4 : new_ID = 3
                      02010         f@call Delay_200
0424   3004           02011         movlw 4
0425   00D4           02012         movwf ID_no
0426   3003           02013         movlw 3
0427   00B3           02014         movwf new_ID
                      02015         F@JUMP BC@LL87
  0000042A            02016 F1_000272 equ $ ; IN [ABRAR] ELSEIF can_D = 1 THEN
042A                  02017 BC@LL90
                      02018         set@page BC@LL91
042B   1D87           02019         btfss PORTC,3
042C   2C35           02020         goto BC@LL91
  0000042D            02021 F1_000273 equ $ ; IN [ABRAR] GOSUB Delay_200 : ID_no = 6 : new_ID = 4
                      02022         f@call Delay_200
042F   3006           02023         movlw 6
0430   00D4           02024         movwf ID_no
0431   3004           02025         movlw 4
0432   00B3           02026         movwf new_ID
                      02027         F@JUMP BC@LL87
  00000435            02028 F1_000274 equ $ ; IN [ABRAR] ELSEIF can_E = 1 THEN
0435                  02029 BC@LL91
                      02030         set@page BC@LL92
0436   1E07           02031         btfss PORTC,4
0437   2C3E           02032         goto BC@LL92
  00000438            02033 F1_000275 equ $ ; IN [ABRAR] GOSUB Delay_200 : ID_no = 8 : new_ID = 5
                      02034         f@call Delay_200
043A   3008           02035         movlw 8
043B   00D4           02036         movwf ID_no
043C   3005           02037         movlw 5
043D   00B3           02038         movwf new_ID
  0000043E            02039 F1_000276 equ $ ; IN [ABRAR] endif
043E                  02040 BC@LL92
043E                  02041 BC@LL87
  0000043E            02042 F1_000277 equ $ ; IN [ABRAR] if Change = 1 THEN GOSUB Delay_200 : GOSUB default_lcd
                      02043         set@page BC@LL94
043F   1C85           02044         btfss PORTA,1
0440   2C45           02045         goto BC@LL94
                      02046         f@call Delay_200
                      02047         f@call default_lcd
0445                  02048 BC@LL94
0445                  02049 BC@LL86
  00000445            02050 F1_000278 equ $ ; IN [ABRAR] UNTIL ID_no < 10
0445   300A           02051         movlw 10
0446   0254           02052         subwf ID_no,W
                      02053         set@page BC@LL84
0448   1803           02054         btfsc STATUS,0
0449   2C0B           02055         goto BC@LL84
044A                  02056 BC@LL85
  0000044A            02057 F1_000279 equ $ ; IN [ABRAR] PRINT AT 2,1,"ADDING ID # ", DEC new_ID
044A   3080           02058         movlw 128
044B   00A1           02059         movwf BPFH
044C   30C0           02060         movlw 192
                      02061         f@call LCD@CRS
044F   300B           02062         movlw high (STR@LB27)
0450   00A5           02063         movwf GEN4H
0451   3017           02064         movlw low (STR@LB27)
                      02065         f@call C@STROUT
0454   0833           02066         movf new_ID,W
                      02067         f@call OUT@DECB
  00000457            02068 F1_000280 equ $ ; IN [ABRAR] PRINT AT 3,1,"PUT YOUR FINGER 1."
0457   3080           02069         movlw 128
0458   00A1           02070         movwf BPFH
0459   3094           02071         movlw 148
                      02072         f@call LCD@CRS
045C   300B           02073         movlw high (STR@LB28)
045D   00A5           02074         movwf GEN4H
045E   3024           02075         movlw low (STR@LB28)
                      02076         f@call C@STROUT
  00000461            02077 F1_000281 equ $ ; IN [ABRAR] GOSUB FP_Enroll
                      02078         f@call FP_Enroll
  00000463            02079 F1_000282 equ $ ; IN [ABRAR] if FP_error = 1 THEN
                      02080         set@page BC@LL96
0464   1FB2           02081         btfss _B#VR1,7
0465   2C6B           02082         goto BC@LL96
  00000466            02083 F1_000283 equ $ ; IN [ABRAR] GOSUB ErrorFP
                      02084         f@call ErrorFP
  00000468            02085 F1_000284 equ $ ; IN [ABRAR] return
0468   0008           02086         return
                      02087         F@JUMP BC@LL97
046B                  02088 BC@LL96
  0000046B            02089 F1_000285 equ $ ; IN [ABRAR] else
  0000046B            02090 F1_000286 equ $ ; IN [ABRAR] PRINT AT 3,1,"ID # 0",DEC new_ID, " ADDED. F-1"
046B   3080           02091         movlw 128
046C   00A1           02092         movwf BPFH
046D   3094           02093         movlw 148
                      02094         f@call LCD@CRS
0470   300B           02095         movlw high (STR@LB29)
0471   00A5           02096         movwf GEN4H
0472   3037           02097         movlw low (STR@LB29)
                      02098         f@call C@STROUT
0475   0833           02099         movf new_ID,W
                      02100         f@call OUT@DECB
0478   300B           02101         movlw high (STR@LB30)
0479   00A5           02102         movwf GEN4H
047A   303E           02103         movlw low (STR@LB30)
                      02104         f@call C@STROUT
  0000047D            02105 F1_000287 equ $ ; IN [ABRAR] GOSUB Delay_2000
                      02106         f@call Delay_2000
  0000047F            02107 F1_000288 equ $ ; IN [ABRAR] endif
047F                  02108 BC@LL97
  0000047F            02109 F1_000289 equ $ ; IN [ABRAR] PRINT AT 3,1,"PUT YOUR FINGER 2."
047F   3080           02110         movlw 128
0480   00A1           02111         movwf BPFH
0481   3094           02112         movlw 148
                      02113         f@call LCD@CRS
0484   300B           02114         movlw high (STR@LB31)
0485   00A5           02115         movwf GEN4H
0486   304A           02116         movlw low (STR@LB31)
                      02117         f@call C@STROUT
  00000489            02118 F1_000290 equ $ ; IN [ABRAR] ID_no = ID_no + 1
0489   0AD4           02119         incf ID_no,F
  0000048A            02120 F1_000291 equ $ ; IN [ABRAR] GOSUB FP_Enroll
                      02121         f@call FP_Enroll
  0000048C            02122 F1_000292 equ $ ; IN [ABRAR] if FP_error = 1 THEN
                      02123         set@page BC@LL99
048D   1FB2           02124         btfss _B#VR1,7
048E   2C93           02125         goto BC@LL99
  0000048F            02126 F1_000293 equ $ ; IN [ABRAR] GOSUB ErrorFP
                      02127         f@call ErrorFP
                      02128         F@JUMP BC@LL100
0493                  02129 BC@LL99
  00000493            02130 F1_000294 equ $ ; IN [ABRAR] else
  00000493            02131 F1_000295 equ $ ; IN [ABRAR] PRINT AT 3,1,"ID # 0",DEC new_ID, " ADDED. F-2"
0493   3080           02132         movlw 128
0494   00A1           02133         movwf BPFH
0495   3094           02134         movlw 148
                      02135         f@call LCD@CRS
0498   300B           02136         movlw high (STR@LB32)
0499   00A5           02137         movwf GEN4H
049A   3037           02138         movlw low (STR@LB32)
                      02139         f@call C@STROUT
049D   0833           02140         movf new_ID,W
                      02141         f@call OUT@DECB
04A0   300B           02142         movlw high (STR@LB33)
04A1   00A5           02143         movwf GEN4H
04A2   305D           02144         movlw low (STR@LB33)
                      02145         f@call C@STROUT
  000004A5            02146 F1_000296 equ $ ; IN [ABRAR] GOSUB Delay_2000
                      02147         f@call Delay_2000
  000004A7            02148 F1_000297 equ $ ; IN [ABRAR] GOSUB default_lcd
                      02149         f@call default_lcd
  000004A9            02150 F1_000298 equ $ ; IN [ABRAR] endif
04A9                  02151 BC@LL100
  000004A9            02152 F1_000299 equ $ ; IN [ABRAR] return
04A9   0008           02153         return
04AA                  02154 ErrorFP
  000004AA            02155 F1_000302 equ $ ; IN [ABRAR] PRINT AT 3,1,"SOMETHING WRONG..."
04AA   3080           02156         movlw 128
04AB   00A1           02157         movwf BPFH
04AC   3094           02158         movlw 148
                      02159         f@call LCD@CRS
04AF   300B           02160         movlw high (STR@LB34)
04B0   00A5           02161         movwf GEN4H
04B1   3069           02162         movlw low (STR@LB34)
                      02163         f@call C@STROUT
  000004B4            02164 F1_000303 equ $ ; IN [ABRAR] led = 1
04B4   1685           02165         bsf PORTA,5
  000004B5            02166 F1_000304 equ $ ; IN [ABRAR] GOSUB Delay_2000
                      02167         f@call Delay_2000
  000004B7            02168 F1_000305 equ $ ; IN [ABRAR] led = 0
04B7   1285           02169         bcf PORTA,5
  000004B8            02170 F1_000306 equ $ ; IN [ABRAR] CLEAR
04B8   3020           02171         movlw 32
04B9   0084           02172         movwf FSR
04BA   3060           02173         movlw 96
                      02174         f@call CL@R
04BD   30A0           02175         movlw 160
04BE   0084           02176         movwf FSR
04BF   3060           02177         movlw 96
                      02178         f@call CL@R

04C2   018A           02180   clrf PCLATH


04C3   2800           02183   goto 0

04C4                  02185 default_lcd
  000004C4            02186 F1_000312 equ $ ; IN [ABRAR] PRINT $FE, 1
04C4   30FE           02187         movlw 254
                      02188         f@call PRINT
04C7   3001           02189         movlw 1
                      02190         f@call PRINT
  000004CA            02191 F1_000313 equ $ ; IN [ABRAR] PRINT AT 1,1," FP. voting MACHINE "
04CA   3080           02192         movlw 128
04CB   00A1           02193         movwf BPFH
                      02194         f@call LCD@CRS
04CE   300B           02195         movlw high (STR@LB35)
04CF   00A5           02196         movwf GEN4H
04D0   307C           02197         movlw low (STR@LB35)
                      02198         f@call C@STROUT
  000004D3            02199 F1_000314 equ $ ; IN [ABRAR] PRINT AT 2,1,"TOTAL CANDIDATE: 005"
04D3   3080           02200         movlw 128
04D4   00A1           02201         movwf BPFH
04D5   30C0           02202         movlw 192
                      02203         f@call LCD@CRS
04D8   300B           02204         movlw high (STR@LB36)
04D9   00A5           02205         movwf GEN4H
04DA   3091           02206         movlw low (STR@LB36)
                      02207         f@call C@STROUT
  000004DD            02208 F1_000315 equ $ ; IN [ABRAR] PRINT AT 4,1,"ADD    IDs    voting"
04DD   3080           02209         movlw 128
04DE   00A1           02210         movwf BPFH
04DF   30D4           02211         movlw 212
                      02212         f@call LCD@CRS
04E2   300B           02213         movlw high (STR@LB37)
04E3   00A5           02214         movwf GEN4H
04E4   30A6           02215         movlw low (STR@LB37)
                      02216         f@call C@STROUT
  000004E7            02217 F1_000316 equ $ ; IN [ABRAR] goto start
                      02218         F@JUMP start
04E9                  02219 Delay_200
  000004E9            02220 F1_000319 equ $ ; IN [ABRAR] DELAYMS 200
04E9   30C8           02221         movlw 200
                      02222         f@call DL@MS
  000004EC            02223 F1_000320 equ $ ; IN [ABRAR] return
04EC   0008           02224         return
04ED                  02225 Delay_2000
  000004ED            02226 F1_000323 equ $ ; IN [ABRAR] DELAYMS 2000
04ED   3007           02227         movlw 7
04EE   00AA           02228         movwf PP1H
04EF   30D0           02229         movlw 208
                      02230         f@call DLY@W
  000004F2            02231 F1_000324 equ $ ; IN [ABRAR] return
04F2   0008           02232         return
04F3                  02233 FP_Enroll
  000004F3            02234 F1_000327 equ $ ; IN [ABRAR] FP_error = 0
04F3   13B2           02235         bcf _B#VR1,7
  000004F4            02236 F1_000328 equ $ ; IN [ABRAR] HSEROUT[$EF , $01 , $FF , $FF , $FF , $FF , $01 , $00 , $03 , $01 , $00 , $05]
04F4   30EF           02237         movlw 239
                      02238         f@call HRSOUT
04F7   3001           02239         movlw 1
                      02240         f@call HRSOUT
04FA   30FF           02241         movlw 255
                      02242         f@call HRSOUT
04FD   30FF           02243         movlw 255
                      02244         f@call HRSOUT
0500   30FF           02245         movlw 255
                      02246         f@call HRSOUT
0503   30FF           02247         movlw 255
                      02248         f@call HRSOUT
0506   3001           02249         movlw 1
                      02250         f@call HRSOUT
0509   3000           02251         movlw 0
                      02252         f@call HRSOUT
050C   3003           02253         movlw 3
                      02254         f@call HRSOUT
050F   3001           02255         movlw 1
                      02256         f@call HRSOUT
0512   3000           02257         movlw 0
                      02258         f@call HRSOUT
0515   3005           02259         movlw 5
                      02260         f@call HRSOUT
  00000518            02261 F1_000329 equ $ ; IN [ABRAR] HSERIN[RXD[0],RXD[1],RXD[2],RXD[3],RXD[4],RXD[5],RXD[6],RXD[7],RXD[8],RXD[9],RXD[10],RXD[11]]
                      02262         f@call HRSIN
051A   081A           02263         movf RCREG,W
051B   00BE           02264         movwf RXD#0
                      02265         f@call HRSIN
051E   081A           02266         movf RCREG,W
051F   00BF           02267         movwf RXD#1
                      02268         f@call HRSIN
0522   081A           02269         movf RCREG,W
0523   00C0           02270         movwf RXD#2
                      02271         f@call HRSIN
0526   081A           02272         movf RCREG,W
0527   00C1           02273         movwf RXD#3
                      02274         f@call HRSIN
052A   081A           02275         movf RCREG,W
052B   00C2           02276         movwf RXD#4
                      02277         f@call HRSIN
052E   081A           02278         movf RCREG,W
052F   00C3           02279         movwf RXD#5
                      02280         f@call HRSIN
0532   081A           02281         movf RCREG,W
0533   00C4           02282         movwf RXD#6
                      02283         f@call HRSIN
0536   081A           02284         movf RCREG,W
0537   00C5           02285         movwf RXD#7
                      02286         f@call HRSIN
053A   081A           02287         movf RCREG,W
053B   00C6           02288         movwf RXD#8
                      02289         f@call HRSIN
053E   081A           02290         movf RCREG,W
053F   00C7           02291         movwf RXD#9
                      02292         f@call HRSIN
0542   081A           02293         movf RCREG,W
0543   00C8           02294         movwf RXD#10
                      02295         f@call HRSIN
0546   081A           02296         movf RCREG,W
0547   00C9           02297         movwf RXD#11
  00000548            02298 F1_000330 equ $ ; IN [ABRAR] if RXD[9] != 0 THEN FP_Enroll
0548   0847           02299         movf RXD#9,W
0549   00A6           02300         movwf PBP#VAR0
054A   08A6           02301         movf PBP#VAR0,F
                      02302         set@page BC@LL102
054C   1903           02303         btfsc STATUS,2
054D   2D50           02304         goto BC@LL102
                      02305         F@JUMP FP_Enroll
0550                  02306 BC@LL102
  00000550            02307 F1_000331 equ $ ; IN [ABRAR] HSEROUT[$EF , $01 , $FF , $FF , $FF , $FF , $01 , $00 , $04 , $02 , $01 , $00 , $08]
0550   30EF           02308         movlw 239
                      02309         f@call HRSOUT
0553   3001           02310         movlw 1
                      02311         f@call HRSOUT
0556   30FF           02312         movlw 255
                      02313         f@call HRSOUT
0559   30FF           02314         movlw 255
                      02315         f@call HRSOUT
055C   30FF           02316         movlw 255
                      02317         f@call HRSOUT
055F   30FF           02318         movlw 255
                      02319         f@call HRSOUT
0562   3001           02320         movlw 1
                      02321         f@call HRSOUT
0565   3000           02322         movlw 0
                      02323         f@call HRSOUT
0568   3004           02324         movlw 4
                      02325         f@call HRSOUT
056B   3002           02326         movlw 2
                      02327         f@call HRSOUT
056E   3001           02328         movlw 1
                      02329         f@call HRSOUT
0571   3000           02330         movlw 0
                      02331         f@call HRSOUT
0574   3008           02332         movlw 8
                      02333         f@call HRSOUT
  00000577            02334 F1_000332 equ $ ; IN [ABRAR] HSERIN[RXD[0],RXD[1],RXD[2],RXD[3],RXD[4],RXD[5],RXD[6],RXD[7],RXD[8],RXD[9],RXD[10],RXD[11]]
                      02335         f@call HRSIN
0579   081A           02336         movf RCREG,W
057A   00BE           02337         movwf RXD#0
                      02338         f@call HRSIN
057D   081A           02339         movf RCREG,W
057E   00BF           02340         movwf RXD#1
                      02341         f@call HRSIN
0581   081A           02342         movf RCREG,W
0582   00C0           02343         movwf RXD#2
                      02344         f@call HRSIN
0585   081A           02345         movf RCREG,W
0586   00C1           02346         movwf RXD#3
                      02347         f@call HRSIN
0589   081A           02348         movf RCREG,W
058A   00C2           02349         movwf RXD#4
                      02350         f@call HRSIN
058D   081A           02351         movf RCREG,W
058E   00C3           02352         movwf RXD#5
                      02353         f@call HRSIN
0591   081A           02354         movf RCREG,W
0592   00C4           02355         movwf RXD#6
                      02356         f@call HRSIN
0595   081A           02357         movf RCREG,W
0596   00C5           02358         movwf RXD#7
                      02359         f@call HRSIN
0599   081A           02360         movf RCREG,W
059A   00C6           02361         movwf RXD#8
                      02362         f@call HRSIN
059D   081A           02363         movf RCREG,W
059E   00C7           02364         movwf RXD#9
                      02365         f@call HRSIN
05A1   081A           02366         movf RCREG,W
05A2   00C8           02367         movwf RXD#10
                      02368         f@call HRSIN
05A5   081A           02369         movf RCREG,W
05A6   00C9           02370         movwf RXD#11
  000005A7            02371 F1_000333 equ $ ; IN [ABRAR] if RXD[9] != 0 THEN FP_error = 1 : return
05A7   0847           02372         movf RXD#9,W
05A8   00A6           02373         movwf PBP#VAR0
05A9   08A6           02374         movf PBP#VAR0,F
                      02375         set@page BC@LL104
05AB   1903           02376         btfsc STATUS,2
05AC   2DAF           02377         goto BC@LL104
05AD   17B2           02378         bsf _B#VR1,7
05AE   0008           02379         return
05AF                  02380 BC@LL104
05AF                  02381 Recheck
  000005AF            02382 F1_000335 equ $ ; IN [ABRAR] HSEROUT[$EF , $01 , $FF , $FF , $FF , $FF , $01 , $00 , $03 , $01 , $00 , $05]
05AF   30EF           02383         movlw 239
                      02384         f@call HRSOUT
05B2   3001           02385         movlw 1
                      02386         f@call HRSOUT
05B5   30FF           02387         movlw 255
                      02388         f@call HRSOUT
05B8   30FF           02389         movlw 255
                      02390         f@call HRSOUT
05BB   30FF           02391         movlw 255
                      02392         f@call HRSOUT
05BE   30FF           02393         movlw 255
                      02394         f@call HRSOUT
05C1   3001           02395         movlw 1
                      02396         f@call HRSOUT
05C4   3000           02397         movlw 0
                      02398         f@call HRSOUT
05C7   3003           02399         movlw 3
                      02400         f@call HRSOUT
05CA   3001           02401         movlw 1
                      02402         f@call HRSOUT
05CD   3000           02403         movlw 0
                      02404         f@call HRSOUT
05D0   3005           02405         movlw 5
                      02406         f@call HRSOUT
  000005D3            02407 F1_000336 equ $ ; IN [ABRAR] HSERIN[RXD[0],RXD[1],RXD[2],RXD[3],RXD[4],RXD[5],RXD[6],RXD[7],RXD[8],RXD[9],RXD[10],RXD[11]]
                      02408         f@call HRSIN
05D5   081A           02409         movf RCREG,W
05D6   00BE           02410         movwf RXD#0
                      02411         f@call HRSIN
05D9   081A           02412         movf RCREG,W
05DA   00BF           02413         movwf RXD#1
                      02414         f@call HRSIN
05DD   081A           02415         movf RCREG,W
05DE   00C0           02416         movwf RXD#2
                      02417         f@call HRSIN
05E1   081A           02418         movf RCREG,W
05E2   00C1           02419         movwf RXD#3
                      02420         f@call HRSIN
05E5   081A           02421         movf RCREG,W
05E6   00C2           02422         movwf RXD#4
                      02423         f@call HRSIN
05E9   081A           02424         movf RCREG,W
05EA   00C3           02425         movwf RXD#5
                      02426         f@call HRSIN
05ED   081A           02427         movf RCREG,W
05EE   00C4           02428         movwf RXD#6
                      02429         f@call HRSIN
05F1   081A           02430         movf RCREG,W
05F2   00C5           02431         movwf RXD#7
                      02432         f@call HRSIN
05F5   081A           02433         movf RCREG,W
05F6   00C6           02434         movwf RXD#8
                      02435         f@call HRSIN
05F9   081A           02436         movf RCREG,W
05FA   00C7           02437         movwf RXD#9
                      02438         f@call HRSIN
05FD   081A           02439         movf RCREG,W
05FE   00C8           02440         movwf RXD#10
                      02441         f@call HRSIN
0601   081A           02442         movf RCREG,W
0602   00C9           02443         movwf RXD#11
  00000603            02444 F1_000337 equ $ ; IN [ABRAR] if RXD[9] != 0 THEN Recheck
0603   0847           02445         movf RXD#9,W
0604   00A6           02446         movwf PBP#VAR0
0605   08A6           02447         movf PBP#VAR0,F
                      02448         set@page BC@LL106
0607   1903           02449         btfsc STATUS,2
0608   2E0B           02450         goto BC@LL106
                      02451         F@JUMP Recheck
060B                  02452 BC@LL106
  0000060B            02453 F1_000338 equ $ ; IN [ABRAR] HSEROUT[$EF , $01 , $FF , $FF , $FF , $FF , $01 , $00 , $04 , $02 , $02 , $00 , $09]
060B   30EF           02454         movlw 239
                      02455         f@call HRSOUT
060E   3001           02456         movlw 1
                      02457         f@call HRSOUT
0611   30FF           02458         movlw 255
                      02459         f@call HRSOUT
0614   30FF           02460         movlw 255
                      02461         f@call HRSOUT
0617   30FF           02462         movlw 255
                      02463         f@call HRSOUT
061A   30FF           02464         movlw 255
                      02465         f@call HRSOUT
061D   3001           02466         movlw 1
                      02467         f@call HRSOUT
0620   3000           02468         movlw 0
                      02469         f@call HRSOUT
0623   3004           02470         movlw 4
                      02471         f@call HRSOUT
0626   3002           02472         movlw 2
                      02473         f@call HRSOUT
0629   3002           02474         movlw 2
                      02475         f@call HRSOUT
062C   3000           02476         movlw 0
                      02477         f@call HRSOUT
062F   3009           02478         movlw 9
                      02479         f@call HRSOUT
  00000632            02480 F1_000339 equ $ ; IN [ABRAR] HSERIN[RXD[0],RXD[1],RXD[2],RXD[3],RXD[4],RXD[5],RXD[6],RXD[7],RXD[8],RXD[9],RXD[10],RXD[11]]
                      02481         f@call HRSIN
0634   081A           02482         movf RCREG,W
0635   00BE           02483         movwf RXD#0
                      02484         f@call HRSIN
0638   081A           02485         movf RCREG,W
0639   00BF           02486         movwf RXD#1
                      02487         f@call HRSIN
063C   081A           02488         movf RCREG,W
063D   00C0           02489         movwf RXD#2
                      02490         f@call HRSIN
0640   081A           02491         movf RCREG,W
0641   00C1           02492         movwf RXD#3
                      02493         f@call HRSIN
0644   081A           02494         movf RCREG,W
0645   00C2           02495         movwf RXD#4
                      02496         f@call HRSIN
0648   081A           02497         movf RCREG,W
0649   00C3           02498         movwf RXD#5
                      02499         f@call HRSIN
064C   081A           02500         movf RCREG,W
064D   00C4           02501         movwf RXD#6
                      02502         f@call HRSIN
0650   081A           02503         movf RCREG,W
0651   00C5           02504         movwf RXD#7
                      02505         f@call HRSIN
0654   081A           02506         movf RCREG,W
0655   00C6           02507         movwf RXD#8
                      02508         f@call HRSIN
0658   081A           02509         movf RCREG,W
0659   00C7           02510         movwf RXD#9
                      02511         f@call HRSIN
065C   081A           02512         movf RCREG,W
065D   00C8           02513         movwf RXD#10
                      02514         f@call HRSIN
0660   081A           02515         movf RCREG,W
0661   00C9           02516         movwf RXD#11
  00000662            02517 F1_000340 equ $ ; IN [ABRAR] if RXD[9] != 0 THEN FP_error = 1 : return
0662   0847           02518         movf RXD#9,W
0663   00A6           02519         movwf PBP#VAR0
0664   08A6           02520         movf PBP#VAR0,F
                      02521         set@page BC@LL108
0666   1903           02522         btfsc STATUS,2
0667   2E6A           02523         goto BC@LL108
0668   17B2           02524         bsf _B#VR1,7
0669   0008           02525         return
066A                  02526 BC@LL108
  0000066A            02527 F1_000341 equ $ ; IN [ABRAR] HSEROUT[$EF , $01 , $FF , $FF , $FF , $FF , $01 , $00 , $03 , $05 , $00 , $09]
066A   30EF           02528         movlw 239
                      02529         f@call HRSOUT
066D   3001           02530         movlw 1
                      02531         f@call HRSOUT
0670   30FF           02532         movlw 255
                      02533         f@call HRSOUT
0673   30FF           02534         movlw 255
                      02535         f@call HRSOUT
0676   30FF           02536         movlw 255
                      02537         f@call HRSOUT
0679   30FF           02538         movlw 255
                      02539         f@call HRSOUT
067C   3001           02540         movlw 1
                      02541         f@call HRSOUT
067F   3000           02542         movlw 0
                      02543         f@call HRSOUT
0682   3003           02544         movlw 3
                      02545         f@call HRSOUT
0685   3005           02546         movlw 5
                      02547         f@call HRSOUT
0688   3000           02548         movlw 0
                      02549         f@call HRSOUT
068B   3009           02550         movlw 9
                      02551         f@call HRSOUT
  0000068E            02552 F1_000342 equ $ ; IN [ABRAR] HSERIN[RXD[0],RXD[1],RXD[2],RXD[3],RXD[4],RXD[5],RXD[6],RXD[7],RXD[8],RXD[9],RXD[10],RXD[11]]
                      02553         f@call HRSIN
0690   081A           02554         movf RCREG,W
0691   00BE           02555         movwf RXD#0
                      02556         f@call HRSIN
0694   081A           02557         movf RCREG,W
0695   00BF           02558         movwf RXD#1
                      02559         f@call HRSIN
0698   081A           02560         movf RCREG,W
0699   00C0           02561         movwf RXD#2
                      02562         f@call HRSIN
069C   081A           02563         movf RCREG,W
069D   00C1           02564         movwf RXD#3
                      02565         f@call HRSIN
06A0   081A           02566         movf RCREG,W
06A1   00C2           02567         movwf RXD#4
                      02568         f@call HRSIN
06A4   081A           02569         movf RCREG,W
06A5   00C3           02570         movwf RXD#5
                      02571         f@call HRSIN
06A8   081A           02572         movf RCREG,W
06A9   00C4           02573         movwf RXD#6
                      02574         f@call HRSIN
06AC   081A           02575         movf RCREG,W
06AD   00C5           02576         movwf RXD#7
                      02577         f@call HRSIN
06B0   081A           02578         movf RCREG,W
06B1   00C6           02579         movwf RXD#8
                      02580         f@call HRSIN
06B4   081A           02581         movf RCREG,W
06B5   00C7           02582         movwf RXD#9
                      02583         f@call HRSIN
06B8   081A           02584         movf RCREG,W
06B9   00C8           02585         movwf RXD#10
                      02586         f@call HRSIN
06BC   081A           02587         movf RCREG,W
06BD   00C9           02588         movwf RXD#11
  000006BE            02589 F1_000343 equ $ ; IN [ABRAR] if RXD[9] != 0 THEN FP_error = 1 : return
06BE   0847           02590         movf RXD#9,W
06BF   00A6           02591         movwf PBP#VAR0
06C0   08A6           02592         movf PBP#VAR0,F
                      02593         set@page BC@LL110
06C2   1903           02594         btfsc STATUS,2
06C3   2EC6           02595         goto BC@LL110
06C4   17B2           02596         bsf _B#VR1,7
06C5   0008           02597         return
06C6                  02598 BC@LL110
  000006C6            02599 F1_000344 equ $ ; IN [ABRAR] checksum = 15 + ID_no
06C6   300F           02600         movlw 15
06C7   0754           02601         addwf ID_no,W
06C8   00D5           02602         movwf checksum
  000006C9            02603 F1_000345 equ $ ; IN [ABRAR] HSEROUT[$EF , $01 , $FF , $FF , $FF , $FF , $01 , $00 , $06 , $06 , $02 , $00, ID_no, $00, checksum]
06C9   30EF           02604         movlw 239
                      02605         f@call HRSOUT
06CC   3001           02606         movlw 1
                      02607         f@call HRSOUT
06CF   30FF           02608         movlw 255
                      02609         f@call HRSOUT
06D2   30FF           02610         movlw 255
                      02611         f@call HRSOUT
06D5   30FF           02612         movlw 255
                      02613         f@call HRSOUT
06D8   30FF           02614         movlw 255
                      02615         f@call HRSOUT
06DB   3001           02616         movlw 1
                      02617         f@call HRSOUT
06DE   3000           02618         movlw 0
                      02619         f@call HRSOUT
06E1   3006           02620         movlw 6
                      02621         f@call HRSOUT
06E4   3006           02622         movlw 6
                      02623         f@call HRSOUT
06E7   3002           02624         movlw 2
                      02625         f@call HRSOUT
06EA   3000           02626         movlw 0
                      02627         f@call HRSOUT
06ED   0854           02628         movf ID_no,W
                      02629         f@call HRSOUT
06F0   3000           02630         movlw 0
                      02631         f@call HRSOUT
06F3   0855           02632         movf checksum,W
                      02633         f@call HRSOUT
  000006F6            02634 F1_000346 equ $ ; IN [ABRAR] HSERIN[RXD[0],RXD[1],RXD[2],RXD[3],RXD[4],RXD[5],RXD[6],RXD[7],RXD[8],RXD[9],RXD[10],RXD[11]]
                      02635         f@call HRSIN
06F8   081A           02636         movf RCREG,W
06F9   00BE           02637         movwf RXD#0
                      02638         f@call HRSIN
06FC   081A           02639         movf RCREG,W
06FD   00BF           02640         movwf RXD#1
                      02641         f@call HRSIN
0700   081A           02642         movf RCREG,W
0701   00C0           02643         movwf RXD#2
                      02644         f@call HRSIN
0704   081A           02645         movf RCREG,W
0705   00C1           02646         movwf RXD#3
                      02647         f@call HRSIN
0708   081A           02648         movf RCREG,W
0709   00C2           02649         movwf RXD#4
                      02650         f@call HRSIN
070C   081A           02651         movf RCREG,W
070D   00C3           02652         movwf RXD#5
                      02653         f@call HRSIN
0710   081A           02654         movf RCREG,W
0711   00C4           02655         movwf RXD#6
                      02656         f@call HRSIN
0714   081A           02657         movf RCREG,W
0715   00C5           02658         movwf RXD#7
                      02659         f@call HRSIN
0718   081A           02660         movf RCREG,W
0719   00C6           02661         movwf RXD#8
                      02662         f@call HRSIN
071C   081A           02663         movf RCREG,W
071D   00C7           02664         movwf RXD#9
                      02665         f@call HRSIN
0720   081A           02666         movf RCREG,W
0721   00C8           02667         movwf RXD#10
                      02668         f@call HRSIN
0724   081A           02669         movf RCREG,W
0725   00C9           02670         movwf RXD#11
  00000726            02671 F1_000347 equ $ ; IN [ABRAR] if RXD[9] != 0 THEN FP_error = 1 : return
0726   0847           02672         movf RXD#9,W
0727   00A6           02673         movwf PBP#VAR0
0728   08A6           02674         movf PBP#VAR0,F
                      02675         set@page BC@LL112
072A   1903           02676         btfsc STATUS,2
072B   2F2E           02677         goto BC@LL112
072C   17B2           02678         bsf _B#VR1,7
072D   0008           02679         return
072E                  02680 BC@LL112
  0000072E            02681 F1_000348 equ $ ; IN [ABRAR] return
072E   0008           02682         return
072F                  02683 FP_Search
  0000072F            02684 F1_000351 equ $ ; IN [ABRAR] FP_error = 0
072F   13B2           02685         bcf _B#VR1,7
  00000730            02686 F1_000352 equ $ ; IN [ABRAR] HSEROUT[$EF , $01 , $FF , $FF , $FF , $FF , $01 , $00 , $03 , $01 , $00 , $05]
0730   30EF           02687         movlw 239
                      02688         f@call HRSOUT
0733   3001           02689         movlw 1
                      02690         f@call HRSOUT
0736   30FF           02691         movlw 255
                      02692         f@call HRSOUT
0739   30FF           02693         movlw 255
                      02694         f@call HRSOUT
073C   30FF           02695         movlw 255
                      02696         f@call HRSOUT
073F   30FF           02697         movlw 255
                      02698         f@call HRSOUT
0742   3001           02699         movlw 1
                      02700         f@call HRSOUT
0745   3000           02701         movlw 0
                      02702         f@call HRSOUT
0748   3003           02703         movlw 3
                      02704         f@call HRSOUT
074B   3001           02705         movlw 1
                      02706         f@call HRSOUT
074E   3000           02707         movlw 0
                      02708         f@call HRSOUT
0751   3005           02709         movlw 5
                      02710         f@call HRSOUT
  00000754            02711 F1_000353 equ $ ; IN [ABRAR] HSERIN[RXD[0],RXD[1],RXD[2],RXD[3],RXD[4],RXD[5],RXD[6],RXD[7],RXD[8],RXD[9],RXD[10],RXD[11]]
                      02712         f@call HRSIN
0756   081A           02713         movf RCREG,W
0757   00BE           02714         movwf RXD#0
                      02715         f@call HRSIN
075A   081A           02716         movf RCREG,W
075B   00BF           02717         movwf RXD#1
                      02718         f@call HRSIN
075E   081A           02719         movf RCREG,W
075F   00C0           02720         movwf RXD#2
                      02721         f@call HRSIN
0762   081A           02722         movf RCREG,W
0763   00C1           02723         movwf RXD#3
                      02724         f@call HRSIN
0766   081A           02725         movf RCREG,W
0767   00C2           02726         movwf RXD#4
                      02727         f@call HRSIN
076A   081A           02728         movf RCREG,W
076B   00C3           02729         movwf RXD#5
                      02730         f@call HRSIN
076E   081A           02731         movf RCREG,W
076F   00C4           02732         movwf RXD#6
                      02733         f@call HRSIN
0772   081A           02734         movf RCREG,W
0773   00C5           02735         movwf RXD#7
                      02736         f@call HRSIN
0776   081A           02737         movf RCREG,W
0777   00C6           02738         movwf RXD#8
                      02739         f@call HRSIN
077A   081A           02740         movf RCREG,W
077B   00C7           02741         movwf RXD#9
                      02742         f@call HRSIN
077E   081A           02743         movf RCREG,W
077F   00C8           02744         movwf RXD#10
                      02745         f@call HRSIN
0782   081A           02746         movf RCREG,W
0783   00C9           02747         movwf RXD#11
  00000784            02748 F1_000354 equ $ ; IN [ABRAR] if RXD[9] != 0 THEN FP_Search
0784   0847           02749         movf RXD#9,W
0785   00A6           02750         movwf PBP#VAR0
0786   08A6           02751         movf PBP#VAR0,F
                      02752         set@page BC@LL114
0788   1903           02753         btfsc STATUS,2
0789   2F8C           02754         goto BC@LL114
                      02755         F@JUMP FP_Search
078C                  02756 BC@LL114
  0000078C            02757 F1_000355 equ $ ; IN [ABRAR] HSEROUT[$EF , $01 , $FF , $FF , $FF , $FF , $01 , $00 , $04 , $02 , $01 , $00 , $08]
078C   30EF           02758         movlw 239
                      02759         f@call HRSOUT
078F   3001           02760         movlw 1
                      02761         f@call HRSOUT
0792   30FF           02762         movlw 255
                      02763         f@call HRSOUT
0795   30FF           02764         movlw 255
                      02765         f@call HRSOUT
0798   30FF           02766         movlw 255
                      02767         f@call HRSOUT
079B   30FF           02768         movlw 255
                      02769         f@call HRSOUT
079E   3001           02770         movlw 1
                      02771         f@call HRSOUT
07A1   3000           02772         movlw 0
                      02773         f@call HRSOUT
07A4   3004           02774         movlw 4
                      02775         f@call HRSOUT
07A7   3002           02776         movlw 2
                      02777         f@call HRSOUT
07AA   3001           02778         movlw 1
                      02779         f@call HRSOUT
07AD   3000           02780         movlw 0
                      02781         f@call HRSOUT
07B0   3008           02782         movlw 8
                      02783         f@call HRSOUT
  000007B3            02784 F1_000356 equ $ ; IN [ABRAR] HSERIN[RXD[0],RXD[1],RXD[2],RXD[3],RXD[4],RXD[5],RXD[6],RXD[7],RXD[8],RXD[9],RXD[10],RXD[11]]
                      02785         f@call HRSIN
07B5   081A           02786         movf RCREG,W
07B6   00BE           02787         movwf RXD#0
                      02788         f@call HRSIN
07B9   081A           02789         movf RCREG,W
07BA   00BF           02790         movwf RXD#1
                      02791         f@call HRSIN
07BD   081A           02792         movf RCREG,W
07BE   00C0           02793         movwf RXD#2
                      02794         f@call HRSIN
07C1   081A           02795         movf RCREG,W
07C2   00C1           02796         movwf RXD#3
                      02797         f@call HRSIN
07C5   081A           02798         movf RCREG,W
07C6   00C2           02799         movwf RXD#4
                      02800         f@call HRSIN
07C9   081A           02801         movf RCREG,W
07CA   00C3           02802         movwf RXD#5
                      02803         f@call HRSIN
07CD   081A           02804         movf RCREG,W
07CE   00C4           02805         movwf RXD#6
                      02806         f@call HRSIN
07D1   081A           02807         movf RCREG,W
07D2   00C5           02808         movwf RXD#7
                      02809         f@call HRSIN
07D5   081A           02810         movf RCREG,W
07D6   00C6           02811         movwf RXD#8
                      02812         f@call HRSIN
07D9   081A           02813         movf RCREG,W
07DA   00C7           02814         movwf RXD#9
                      02815         f@call HRSIN
07DD   081A           02816         movf RCREG,W
07DE   00C8           02817         movwf RXD#10
                      02818         f@call HRSIN
07E1   081A           02819         movf RCREG,W
07E2   00C9           02820         movwf RXD#11
  000007E3            02821 F1_000357 equ $ ; IN [ABRAR] if RXD[9] != 0 THEN FP_error = 1 : return
07E3   0847           02822         movf RXD#9,W
07E4   00A6           02823         movwf PBP#VAR0
07E5   08A6           02824         movf PBP#VAR0,F
                      02825         set@page BC@LL116
07E7   1903           02826         btfsc STATUS,2
07E8   2FEB           02827         goto BC@LL116
07E9   17B2           02828         bsf _B#VR1,7
07EA   0008           02829         return
07EB                  02830 BC@LL116
  000007EB            02831 F1_000358 equ $ ; IN [ABRAR] HSEROUT[$EF, $01, $FF, $FF, $FF, $FF, $01, $00, $08, $1B, $01, $00, $00, $03, $E9, $01, $11]
07EB   30EF           02832         movlw 239
                      02833         f@call HRSOUT
07EE   3001           02834         movlw 1
                      02835         f@call HRSOUT
07F1   30FF           02836         movlw 255
                      02837         f@call HRSOUT
07F4   30FF           02838         movlw 255
                      02839         f@call HRSOUT
07F7   30FF           02840         movlw 255
                      02841         f@call HRSOUT
07FA   30FF           02842         movlw 255
                      02843         f@call HRSOUT
07FD   3001           02844         movlw 1
                      02845         f@call HRSOUT
0800   3000           02846         movlw 0
                      02847         f@call HRSOUT
0803   3008           02848         movlw 8
                      02849         f@call HRSOUT
0806   301B           02850         movlw 27
                      02851         f@call HRSOUT
0809   3001           02852         movlw 1
                      02853         f@call HRSOUT
080C   3000           02854         movlw 0
                      02855         f@call HRSOUT
080F   3000           02856         movlw 0
                      02857         f@call HRSOUT
0812   3003           02858         movlw 3
                      02859         f@call HRSOUT
0815   30E9           02860         movlw 233
                      02861         f@call HRSOUT
0818   3001           02862         movlw 1
                      02863         f@call HRSOUT
081B   3011           02864         movlw 17
                      02865         f@call HRSOUT
  0000081E            02866 F1_000359 equ $ ; IN [ABRAR] HSERIN[RXD[0],RXD[1],RXD[2],RXD[3],RXD[4],RXD[5],RXD[6],RXD[7],RXD[8],RXD[9],RXD[10],RXD[11],RXD[12],RXD[13],RXD[14],RXD[15]]
                      02867         f@call HRSIN
0820   081A           02868         movf RCREG,W
0821   00BE           02869         movwf RXD#0
                      02870         f@call HRSIN
0824   081A           02871         movf RCREG,W
0825   00BF           02872         movwf RXD#1
                      02873         f@call HRSIN
0828   081A           02874         movf RCREG,W
0829   00C0           02875         movwf RXD#2
                      02876         f@call HRSIN
082C   081A           02877         movf RCREG,W
082D   00C1           02878         movwf RXD#3
                      02879         f@call HRSIN
0830   081A           02880         movf RCREG,W
0831   00C2           02881         movwf RXD#4
                      02882         f@call HRSIN
0834   081A           02883         movf RCREG,W
0835   00C3           02884         movwf RXD#5
                      02885         f@call HRSIN
0838   081A           02886         movf RCREG,W
0839   00C4           02887         movwf RXD#6
                      02888         f@call HRSIN
083C   081A           02889         movf RCREG,W
083D   00C5           02890         movwf RXD#7
                      02891         f@call HRSIN
0840   081A           02892         movf RCREG,W
0841   00C6           02893         movwf RXD#8
                      02894         f@call HRSIN
0844   081A           02895         movf RCREG,W
0845   00C7           02896         movwf RXD#9
                      02897         f@call HRSIN
0848   081A           02898         movf RCREG,W
0849   00C8           02899         movwf RXD#10
                      02900         f@call HRSIN
084C   081A           02901         movf RCREG,W
084D   00C9           02902         movwf RXD#11
                      02903         f@call HRSIN
0850   081A           02904         movf RCREG,W
0851   00CA           02905         movwf RXD#12
                      02906         f@call HRSIN
0854   081A           02907         movf RCREG,W
0855   00CB           02908         movwf RXD#13
                      02909         f@call HRSIN
0858   081A           02910         movf RCREG,W
0859   00CC           02911         movwf RXD#14
                      02912         f@call HRSIN
085C   081A           02913         movf RCREG,W
085D   00CD           02914         movwf RXD#15
  0000085E            02915 F1_000360 equ $ ; IN [ABRAR] if RXD[9] != 0 THEN FP_error = 1 : return
085E   0847           02916         movf RXD#9,W
085F   00A6           02917         movwf PBP#VAR0
0860   08A6           02918         movf PBP#VAR0,F
                      02919         set@page BC@LL118
0862   1903           02920         btfsc STATUS,2
0863   2866           02921         goto BC@LL118
0864   17B2           02922         bsf _B#VR1,7
0865   0008           02923         return
0866                  02924 BC@LL118
  00000866            02925 F1_000361 equ $ ; IN [ABRAR] get_ID = RXD[11]
0866   0849           02926         movf RXD#11,W
0867   00D3           02927         movwf get_ID
  00000868            02928 F1_000362 equ $ ; IN [ABRAR] return
0868   0008           02929         return
0869                  02930 FP_Delete_ID
  00000869            02931 F1_000365 equ $ ; IN [ABRAR] FP_error = 0
0869   13B2           02932         bcf _B#VR1,7
  0000086A            02933 F1_000366 equ $ ; IN [ABRAR] checksum = 21 + ID_no
086A   3015           02934         movlw 21
086B   0754           02935         addwf ID_no,W
086C   00D5           02936         movwf checksum
  0000086D            02937 F1_000367 equ $ ; IN [ABRAR] HSEROUT[$EF, $01, $FF, $FF, $FF, $FF, $01, $00, $07, $0C, $00, ID_no, $00, $01, $00, checksum]
086D   30EF           02938         movlw 239
                      02939         f@call HRSOUT
0870   3001           02940         movlw 1
                      02941         f@call HRSOUT
0873   30FF           02942         movlw 255
                      02943         f@call HRSOUT
0876   30FF           02944         movlw 255
                      02945         f@call HRSOUT
0879   30FF           02946         movlw 255
                      02947         f@call HRSOUT
087C   30FF           02948         movlw 255
                      02949         f@call HRSOUT
087F   3001           02950         movlw 1
                      02951         f@call HRSOUT
0882   3000           02952         movlw 0
                      02953         f@call HRSOUT
0885   3007           02954         movlw 7
                      02955         f@call HRSOUT
0888   300C           02956         movlw 12
                      02957         f@call HRSOUT
088B   3000           02958         movlw 0
                      02959         f@call HRSOUT
088E   0854           02960         movf ID_no,W
                      02961         f@call HRSOUT
0891   3000           02962         movlw 0
                      02963         f@call HRSOUT
0894   3001           02964         movlw 1
                      02965         f@call HRSOUT
0897   3000           02966         movlw 0
                      02967         f@call HRSOUT
089A   0855           02968         movf checksum,W
                      02969         f@call HRSOUT
  0000089D            02970 F1_000368 equ $ ; IN [ABRAR] HSERIN[RXD[0],RXD[1],RXD[2],RXD[3],RXD[4],RXD[5],RXD[6],RXD[7],RXD[8],RXD[9],RXD[10],RXD[11]]
                      02971         f@call HRSIN
089F   081A           02972         movf RCREG,W
08A0   00BE           02973         movwf RXD#0
                      02974         f@call HRSIN
08A3   081A           02975         movf RCREG,W
08A4   00BF           02976         movwf RXD#1
                      02977         f@call HRSIN
08A7   081A           02978         movf RCREG,W
08A8   00C0           02979         movwf RXD#2
                      02980         f@call HRSIN
08AB   081A           02981         movf RCREG,W
08AC   00C1           02982         movwf RXD#3
                      02983         f@call HRSIN
08AF   081A           02984         movf RCREG,W
08B0   00C2           02985         movwf RXD#4
                      02986         f@call HRSIN
08B3   081A           02987         movf RCREG,W
08B4   00C3           02988         movwf RXD#5
                      02989         f@call HRSIN
08B7   081A           02990         movf RCREG,W
08B8   00C4           02991         movwf RXD#6
                      02992         f@call HRSIN
08BB   081A           02993         movf RCREG,W
08BC   00C5           02994         movwf RXD#7
                      02995         f@call HRSIN
08BF   081A           02996         movf RCREG,W
08C0   00C6           02997         movwf RXD#8
                      02998         f@call HRSIN
08C3   081A           02999         movf RCREG,W
08C4   00C7           03000         movwf RXD#9
                      03001         f@call HRSIN
08C7   081A           03002         movf RCREG,W
08C8   00C8           03003         movwf RXD#10
                      03004         f@call HRSIN
08CB   081A           03005         movf RCREG,W
08CC   00C9           03006         movwf RXD#11
  000008CD            03007 F1_000369 equ $ ; IN [ABRAR] if RXD[9] != 0 THEN FP_error = 1 : return
08CD   0847           03008         movf RXD#9,W
08CE   00A6           03009         movwf PBP#VAR0
08CF   08A6           03010         movf PBP#VAR0,F
                      03011         set@page BC@LL120
08D1   1903           03012         btfsc STATUS,2
08D2   28D5           03013         goto BC@LL120
08D3   17B2           03014         bsf _B#VR1,7
08D4   0008           03015         return
08D5                  03016 BC@LL120
  000008D5            03017 F1_000370 equ $ ; IN [ABRAR] return
08D5   0008           03018         return
08D6                  03019 FP_Delete_ALL
  000008D6            03020 F1_000373 equ $ ; IN [ABRAR] FP_error = 0
08D6   13B2           03021         bcf _B#VR1,7
  000008D7            03022 F1_000374 equ $ ; IN [ABRAR] HSEROUT[$EF, $01, $FF, $FF, $FF, $FF, $01, $00, $03, $0D, $00, $11]
08D7   30EF           03023         movlw 239
                      03024         f@call HRSOUT
08DA   3001           03025         movlw 1
                      03026         f@call HRSOUT
08DD   30FF           03027         movlw 255
                      03028         f@call HRSOUT
08E0   30FF           03029         movlw 255
                      03030         f@call HRSOUT
08E3   30FF           03031         movlw 255
                      03032         f@call HRSOUT
08E6   30FF           03033         movlw 255
                      03034         f@call HRSOUT
08E9   3001           03035         movlw 1
                      03036         f@call HRSOUT
08EC   3000           03037         movlw 0
                      03038         f@call HRSOUT
08EF   3003           03039         movlw 3
                      03040         f@call HRSOUT
08F2   300D           03041         movlw 13
                      03042         f@call HRSOUT
08F5   3000           03043         movlw 0
                      03044         f@call HRSOUT
08F8   3011           03045         movlw 17
                      03046         f@call HRSOUT
  000008FB            03047 F1_000375 equ $ ; IN [ABRAR] HSERIN[RXD[0],RXD[1],RXD[2],RXD[3],RXD[4],RXD[5],RXD[6],RXD[7],RXD[8],RXD[9],RXD[10],RXD[11]]
                      03048         f@call HRSIN
08FD   081A           03049         movf RCREG,W
08FE   00BE           03050         movwf RXD#0
                      03051         f@call HRSIN
0901   081A           03052         movf RCREG,W
0902   00BF           03053         movwf RXD#1
                      03054         f@call HRSIN
0905   081A           03055         movf RCREG,W
0906   00C0           03056         movwf RXD#2
                      03057         f@call HRSIN
0909   081A           03058         movf RCREG,W
090A   00C1           03059         movwf RXD#3
                      03060         f@call HRSIN
090D   081A           03061         movf RCREG,W
090E   00C2           03062         movwf RXD#4
                      03063         f@call HRSIN
0911   081A           03064         movf RCREG,W
0912   00C3           03065         movwf RXD#5
                      03066         f@call HRSIN
0915   081A           03067         movf RCREG,W
0916   00C4           03068         movwf RXD#6
                      03069         f@call HRSIN
0919   081A           03070         movf RCREG,W
091A   00C5           03071         movwf RXD#7
                      03072         f@call HRSIN
091D   081A           03073         movf RCREG,W
091E   00C6           03074         movwf RXD#8
                      03075         f@call HRSIN
0921   081A           03076         movf RCREG,W
0922   00C7           03077         movwf RXD#9
                      03078         f@call HRSIN
0925   081A           03079         movf RCREG,W
0926   00C8           03080         movwf RXD#10
                      03081         f@call HRSIN
0929   081A           03082         movf RCREG,W
092A   00C9           03083         movwf RXD#11
  0000092B            03084 F1_000376 equ $ ; IN [ABRAR] if RXD[9] != 0 THEN FP_error = 1 : return
092B   0847           03085         movf RXD#9,W
092C   00A6           03086         movwf PBP#VAR0
092D   08A6           03087         movf PBP#VAR0,F
                      03088         set@page BC@LL122
092F   1903           03089         btfsc STATUS,2
0930   2933           03090         goto BC@LL122
0931   17B2           03091         bsf _B#VR1,7
0932   0008           03092         return
0933                  03093 BC@LL122
  00000933            03094 F1_000377 equ $ ; IN [ABRAR] return
0933   0008           03095         return
0934                  03096 FP_total_ID
  00000934            03097 F1_000380 equ $ ; IN [ABRAR] FP_error = 0
0934   13B2           03098         bcf _B#VR1,7
  00000935            03099 F1_000381 equ $ ; IN [ABRAR] HSEROUT[$EF, $01, $FF, $FF, $FF, $FF, $01, $00, $03, $1D, $00, $21]
0935   30EF           03100         movlw 239
                      03101         f@call HRSOUT
0938   3001           03102         movlw 1
                      03103         f@call HRSOUT
093B   30FF           03104         movlw 255
                      03105         f@call HRSOUT
093E   30FF           03106         movlw 255
                      03107         f@call HRSOUT
0941   30FF           03108         movlw 255
                      03109         f@call HRSOUT
0944   30FF           03110         movlw 255
                      03111         f@call HRSOUT
0947   3001           03112         movlw 1
                      03113         f@call HRSOUT
094A   3000           03114         movlw 0
                      03115         f@call HRSOUT
094D   3003           03116         movlw 3
                      03117         f@call HRSOUT
0950   301D           03118         movlw 29
                      03119         f@call HRSOUT
0953   3000           03120         movlw 0
                      03121         f@call HRSOUT
0956   3021           03122         movlw 33
                      03123         f@call HRSOUT
  00000959            03124 F1_000382 equ $ ; IN [ABRAR] HSERIN[RXD[0],RXD[1],RXD[2],RXD[3],RXD[4],RXD[5],RXD[6],RXD[7],RXD[8],RXD[9],RXD[10],RXD[11],RXD[12],RXD[13]]
                      03125         f@call HRSIN
095B   081A           03126         movf RCREG,W
095C   00BE           03127         movwf RXD#0
                      03128         f@call HRSIN
095F   081A           03129         movf RCREG,W
0960   00BF           03130         movwf RXD#1
                      03131         f@call HRSIN
0963   081A           03132         movf RCREG,W
0964   00C0           03133         movwf RXD#2
                      03134         f@call HRSIN
0967   081A           03135         movf RCREG,W
0968   00C1           03136         movwf RXD#3
                      03137         f@call HRSIN
096B   081A           03138         movf RCREG,W
096C   00C2           03139         movwf RXD#4
                      03140         f@call HRSIN
096F   081A           03141         movf RCREG,W
0970   00C3           03142         movwf RXD#5
                      03143         f@call HRSIN
0973   081A           03144         movf RCREG,W
0974   00C4           03145         movwf RXD#6
                      03146         f@call HRSIN
0977   081A           03147         movf RCREG,W
0978   00C5           03148         movwf RXD#7
                      03149         f@call HRSIN
097B   081A           03150         movf RCREG,W
097C   00C6           03151         movwf RXD#8
                      03152         f@call HRSIN
097F   081A           03153         movf RCREG,W
0980   00C7           03154         movwf RXD#9
                      03155         f@call HRSIN
0983   081A           03156         movf RCREG,W
0984   00C8           03157         movwf RXD#10
                      03158         f@call HRSIN
0987   081A           03159         movf RCREG,W
0988   00C9           03160         movwf RXD#11
                      03161         f@call HRSIN
098B   081A           03162         movf RCREG,W
098C   00CA           03163         movwf RXD#12
                      03164         f@call HRSIN
098F   081A           03165         movf RCREG,W
0990   00CB           03166         movwf RXD#13
  00000991            03167 F1_000383 equ $ ; IN [ABRAR] if RXD[9] != 0 THEN FP_error = 1 : return
0991   0847           03168         movf RXD#9,W
0992   00A6           03169         movwf PBP#VAR0
0993   08A6           03170         movf PBP#VAR0,F
                      03171         set@page BC@LL124
0995   1903           03172         btfsc STATUS,2
0996   2999           03173         goto BC@LL124
0997   17B2           03174         bsf _B#VR1,7
0998   0008           03175         return
0999                  03176 BC@LL124
  00000999            03177 F1_000384 equ $ ; IN [ABRAR] IDs = RXD[11]
0999   0849           03178         movf RXD#11,W
099A   00D6           03179         movwf IDs
  0000099B            03180 F1_000385 equ $ ; IN [ABRAR] return
099B   0008           03181         return
  0000099C            03182 F1_EOF equ $ ; ABRAR
099C                  03183 PB@LB126
                      03184         F@JUMP PB@LB126
099E                  03186 STR@LB1
099E   0020 0020 0050 03187         de 32,32,80,108,101,97,115,101,32,119,97,105,116,46,46,46,0
       006C 0065 0061 
       0073 0065 0020 
       0077 0061 0069 
       0074 002E 002E 
       002E 0000 
09AF                  03188 STR@LB2
09AF   0056 006F 0074 03189         de 86,111,116,105,110,103,32,99,117,114,114,101,110,116,108,121,32,79,70,70,0
       0069 006E 0067 
       0020 0063 0075 
       0072 0072 0065 
       006E 0074 006C 
       0079 0020 004F 
       0046 0046 0000 
09C4                  03190 STR@LB3
09C4   0020 0020 0052 03191         de 32,32,82,101,97,100,121,32,102,111,114,32,86,111,116,105,110,103,32,32,0
       0065 0061 0064 
       0079 0020 0066 
       006F 0072 0020 
       0056 006F 0074 
       0069 006E 0067 
       0020 0020 0000 
09D9                  03192 STR@LB4
09D9   0054 006F 0074 03193         de 84,111,116,97,108,32,73,68,115,58,32,0
       0061 006C 0020 
       0049 0044 0073 
       003A 0020 0000 
09E5                  03194 STR@LB5
09E5                  03195 STR@LB15
09E5                  03196 STR@LB25
09E5   0045 0072 0072 03197         de 69,114,114,111,114,46,0
       006F 0072 002E 
       0000 
09EC                  03198 STR@LB6
09EC   0056 006F 0074 03199         de 86,111,116,101,32,70,105,110,97,108,32,82,101,115,117,108,116,0
       0065 0020 0046 
       0069 006E 0061 
       006C 0020 0052 
       0065 0073 0075 
       006C 0074 0000 
09FE                  03200 STR@LB7
09FE   0043 0061 006E 03201         de 67,97,110,95,65,58,32,0
       005F 0041 003A 
       0020 0000 
0A06                  03202 STR@LB8
0A06   0020 0020 0020 03203         de 32,32,32,67,97,110,95,66,58,32,0
       0043 0061 006E 
       005F 0042 003A 
       0020 0000 
0A11                  03204 STR@LB9
0A11   0043 0061 006E 03205         de 67,97,110,95,67,58,32,0
       005F 0043 003A 
       0020 0000 
0A19                  03206 STR@LB10
0A19   0020 0020 0020 03207         de 32,32,32,67,97,110,95,68,58,32,0
       0043 0061 006E 
       005F 0044 003A 
       0020 0000 
0A24                  03208 STR@LB11
0A24   0043 0061 006E 03209         de 67,97,110,95,69,58,32,0
       005F 0045 003A 
       0020 0000 
0A2C                  03210 STR@LB12
0A2C   0056 006F 0074 03211         de 86,111,116,105,110,103,32,65,108,108,111,119,101,100,46,0
       0069 006E 0067 
       0020 0041 006C 
       006C 006F 0077 
       0065 0064 002E 
       0000 
0A3C                  03212 STR@LB13
0A3C   0050 0072 0065 03213         de 80,114,101,115,115,32,97,103,97,105,110,32,102,111,114,32,118,111,116,101,0
       0073 0073 0020 
       0061 0067 0061 
       0069 006E 0020 
       0066 006F 0072 
       0020 0076 006F 
       0074 0065 0000 
0A51                  03214 STR@LB14
0A51   0050 0075 0074 03215         de 80,117,116,32,89,111,117,114,32,70,105,110,103,101,114,32,45,32,49,0
       0020 0059 006F 
       0075 0072 0020 
       0046 0069 006E 
       0067 0065 0072 
       0020 002D 0020 
       0031 0000 
0A65                  03216 STR@LB16
0A65   0050 0072 0065 03217         de 80,114,101,115,115,32,121,111,117,114,32,67,97,110,100,105,100,97,116,101,0
       0073 0073 0020 
       0079 006F 0075 
       0072 0020 0043 
       0061 006E 0064 
       0069 0064 0061 
       0074 0065 0000 
0A7A                  03218 STR@LB17
0A7A   0059 006F 0075 03219         de 89,111,117,32,114,32,110,111,116,32,114,101,103,105,115,116,101,114,101,100,0
       0020 0072 0020 
       006E 006F 0074 
       0020 0072 0065 
       0067 0069 0073 
       0074 0065 0072 
       0065 0064 0000 
0A8F                  03220 STR@LB18
0A8F   0050 0075 0074 03221         de 80,117,116,32,89,111,117,114,32,70,105,110,103,101,114,32,45,32,50,0
       0020 0059 006F 
       0075 0072 0020 
       0046 0069 006E 
       0067 0065 0072 
       0020 002D 0020 
       0032 0000 
0AA3                  03222 STR@LB19
0AA3   0059 006F 0075 03223         de 89,111,117,32,97,108,114,101,97,100,121,32,118,111,116,101,100,46,0
       0020 0061 006C 
       0072 0065 0061 
       0064 0079 0020 
       0076 006F 0074 
       0065 0064 002E 
       0000 
0AB6                  03224 STR@LB20
0AB6   0056 006F 0074 03225         de 86,111,116,101,32,71,114,97,110,116,101,100,46,0
       0065 0020 0047 
       0072 0061 006E 
       0074 0065 0064 
       002E 0000 
0AC4                  03226 STR@LB21
0AC4   0031 002E 0020 03227         de 49,46,32,68,101,108,101,116,101,32,65,108,108,32,73,68,115,63,63,0
       0044 0065 006C 
       0065 0074 0065 
       0020 0041 006C 
       006C 0020 0049 
       0044 0073 003F 
       003F 0000 
0AD8                  03228 STR@LB22
0AD8   0032 002E 0020 03229         de 50,46,32,68,101,108,101,116,101,32,65,108,108,32,86,111,116,101,63,0
       0044 0065 006C 
       0065 0074 0065 
       0020 0041 006C 
       006C 0020 0056 
       006F 0074 0065 
       003F 0000 
0AEC                  03230 STR@LB23
0AEC   0041 006C 006C 03231         de 65,108,108,32,86,111,116,101,32,99,108,101,97,114,101,100,46,0
       0020 0056 006F 
       0074 0065 0020 
       0063 006C 0065 
       0061 0072 0065 
       0064 002E 0000 
0AFE                  03232 STR@LB24
0AFE   0041 006C 006C 03233         de 65,108,108,32,68,101,108,101,116,101,100,46,0
       0020 0044 0065 
       006C 0065 0074 
       0065 0064 002E 
       0000 
0B0B                  03234 STR@LB26
0B0B   0045 006E 0074 03235         de 69,110,116,101,114,32,73,68,32,35,58,0
       0065 0072 0020 
       0049 0044 0020 
       0023 003A 0000 
0B17                  03236 STR@LB27
0B17   0041 0064 0064 03237         de 65,100,100,105,110,103,32,73,68,32,35,32,0
       0069 006E 0067 
       0020 0049 0044 
       0020 0023 0020 
       0000 
0B24                  03238 STR@LB28
0B24   0050 0075 0074 03239         de 80,117,116,32,89,111,117,114,32,70,105,110,103,101,114,32,49,46,0
       0020 0059 006F 
       0075 0072 0020 
       0046 0069 006E 
       0067 0065 0072 
       0020 0031 002E 
       0000 
0B37                  03240 STR@LB29
0B37                  03241 STR@LB32
0B37   0049 0044 0020 03242         de 73,68,32,35,32,48,0
       0023 0020 0030 
       0000 
0B3E                  03243 STR@LB30
0B3E   0020 0041 0064 03244         de 32,65,100,100,101,100,46,32,70,45,49,0
       0064 0065 0064 
       002E 0020 0046 
       002D 0031 0000 
0B4A                  03245 STR@LB31
0B4A   0050 0075 0074 03246         de 80,117,116,32,89,111,117,114,32,70,105,110,103,101,114,32,50,46,0
       0020 0059 006F 
       0075 0072 0020 
       0046 0069 006E 
       0067 0065 0072 
       0020 0032 002E 
       0000 
0B5D                  03247 STR@LB33
0B5D   0020 0041 0064 03248         de 32,65,100,100,101,100,46,32,70,45,50,0
       0064 0065 0064 
       002E 0020 0046 
       002D 0032 0000 
0B69                  03249 STR@LB34
0B69   0053 006F 006D 03250         de 83,111,109,101,116,104,105,110,103,32,87,114,111,110,103,46,46,46,0
       0065 0074 0068 
       0069 006E 0067 
       0020 0057 0072 
       006F 006E 0067 
       002E 002E 002E 
       0000 
0B7C                  03251 STR@LB35
0B7C   0020 0046 0050 03252         de 32,70,80,46,32,86,111,116,105,110,103,32,77,97,99,104,105,110,101,32,0
       002E 0020 0056 
       006F 0074 0069 
       006E 0067 0020 
       004D 0061 0063 
       0068 0069 006E 
       0065 0020 0000 
0B91                  03253 STR@LB36
0B91   0054 006F 0074 03254         de 84,111,116,97,108,32,67,97,110,100,105,100,97,116,101,58,32,48,48,53,0
       0061 006C 0020 
       0043 0061 006E 
       0064 0069 0064 
       0061 0074 0065 
       003A 0020 0030 
       0030 0035 0000 
0BA6                  03255 STR@LB37
0BA6   0041 0044 0044 03256         de 65,68,68,32,32,32,32,73,68,115,32,32,32,32,86,111,116,105,110,103,0
       0020 0020 0020 
       0020 0049 0044 
       0073 0020 0020 
       0020 0020 0056 
       006F 0074 0069 
       006E 0067 0000 
0BBB                  03257 __EOF
2007   3FAA           03258 __config FOSC_HS&WDTE_OFF&PWRTE_OFF&CP_ON&BOREN_OFF
                      03259         end
MPASM  5.42                               A.S   9-22-2016  1:20:49         PAGE  2


SYMBOL TABLE
  LABEL                             VALUE 

ADCON0                            0000001F
ADCON1                            0000009F
ADCS0                             00000006
ADCS1                             00000007
ADD                               PORTA,0
ADD_ID                            000003FD
ADIE                              00000006
ADIF                              00000006
ADON                              00000000
ADRES                             0000001E
BANK0_END                         0X7F
BANK0_START                       0X20
BANK1_END                         0X00FF
BANK1_START                       0X00A0
BANK2_END                         0X0120
BANK2_START                       0X0110
BANK3_END                         0X01A0
BANK3_START                       0X0190
BC@LL100                          000004A9
BC@LL102                          00000550
BC@LL104                          000005AF
BC@LL106                          0000060B
BC@LL108                          0000066A
BC@LL11                           0000016E
BC@LL110                          000006C6
BC@LL112                          0000072E
BC@LL114                          0000078C
BC@LL116                          000007EB
BC@LL118                          00000866
BC@LL120                          000008D5
BC@LL122                          00000933
BC@LL124                          00000999
BC@LL13                           00000175
BC@LL15                           000001A8
BC@LL17                           00000198
BC@LL18                           000001A8
BC@LL19                           000001AC
BC@LL2                            00000140
BC@LL20                           000001F5
BC@LL22                           000001F3
BC@LL23                           00000201
BC@LL24                           000002F6
BC@LL26                           0000020B
BC@LL27                           00000215
BC@LL28                           000002F4
BC@LL30                           000002E2
BC@LL31                           000002E0
BC@LL32                           0000024E
BC@LL34                           0000024A
BC@LL35                           0000024C
BC@LL36                           00000272
BC@LL38                           0000026E
BC@LL39                           00000270
BC@LL4                            0000015D
BC@LL40                           00000296
BC@LL42                           00000292
BC@LL43                           00000294
BC@LL44                           000002BA
BC@LL46                           000002B6
BC@LL47                           000002B8
BC@LL48                           000002DE
BC@LL50                           000002DA
BC@LL51                           000002DC
BC@LL52                           000002E0
BC@LL53                           000002F2
BC@LL54                           00000332
BC@LL55                           00000360
BC@LL56                           0000035D
BC@LL57                           0000035D
BC@LL58                           0000033B
BC@LL59                           00000344
BC@LL6                            00000154
BC@LL60                           0000034D
BC@LL61                           00000356
BC@LL62                           0000035D
BC@LL64                           00000372
BC@LL66                           00000378
BC@LL68                           0000037E
BC@LL70                           00000384
BC@LL72                           0000038A
BC@LL73                           000003A4
BC@LL74                           000003FD
BC@LL76                           000003AB
BC@LL78                           000003CB
BC@LL8                            0000015B
BC@LL80                           000003FB
BC@LL82                           000003EB
BC@LL83                           000003FB
BC@LL84                           0000040B
BC@LL85                           0000044A
BC@LL86                           00000445
BC@LL87                           0000043E
BC@LL88                           00000415
BC@LL89                           0000041F
BC@LL9                            0000016E
BC@LL90                           0000042A
BC@LL91                           00000435
BC@LL92                           0000043E
BC@LL94                           00000445
BC@LL96                           0000046B
BC@LL97                           0000047F
BC@LL99                           00000493
BF                                00000000
BIT_BIT                           
BIT_BYTE                          
BIT_DWORD                         
BIT_WORD                          
BIT_WREG                          
BODEN_OFF                         00003FBF
BODEN_ON                          00003FFF
BOREN_OFF                         00003FBF
BOREN_ON                          00003FFF
BPF                               00000020
BPFH                              00000021
BRGH                              00000002
BYTE_BIT                          
BYTE_BYTE                         
BYTE_DWORD                        
BYTE_WORD                         
BYTE_WREG                         
C                                 00000000
C@READ                            000000B8
C@STROUT                          000000A5
C@STROUTLP                        000000A7
C@STROUTW                         000000A6
CAN_A                             PORTC,0
CAN_B                             PORTC,1
CAN_C                             PORTC,2
CAN_D                             PORTC,3
CAN_E                             PORTC,4
CAN_VOTE                          00000034
CAN_VOTE#0                        00000034
CAN_VOTE#1                        00000035
CAN_VOTE#2                        00000036
CAN_VOTE#3                        00000037
CAN_VOTE#4                        00000038
CCP1CON                           00000017
CCP1IE                            00000002
CCP1IF                            00000002
CCP1M0                            00000000
CCP1M1                            00000001
CCP1M2                            00000002
CCP1M3                            00000003
CCP1X                             00000005
CCP1Y                             00000004
CCP2CON                           0000001D
CCP2IE                            00000000
CCP2IF                            00000000
CCP2M0                            00000000
CCP2M1                            00000001
CCP2M2                            00000002
CCP2M3                            00000003
CCP2X                             00000005
CCP2Y                             00000004
CCPR1H                            00000016
CCPR1L                            00000015
CCPR1LH                           00000016
CCPR2H                            0000001C
CCPR2L                            0000001B
CCPR2LH                           0000001C
CH@SND                            000000A0
CHANGE                            PORTA,1
CHECKSUM                          00000055
CHS0                              00000003
CHS1                              00000004
CHS2                              00000005
CKE                               00000006
CKP                               00000004
CL@R                              000000C0
CLS                               00000003
CONFIG_REQ                        1
CP_ALL                            00003FEF
CP_OFF                            00003FFF
CP_ON                             00003FEF
CREN                              00000004
CSRC                              00000007
CSTR#CT                           00000022
CURRENT@PAGE                      00000000
CURS@                             0000000D
D@DIG                             0000002B
D@VD                              000000E3
D@VD2                             000000E5
DATA_ADDRESS                      00000005
DC                                00000001
DEFAULT_LCD                       000004C4
DELAY_200                         000004E9
DELAY_2000                        000004ED
DEST@PAGE                         00000000
DL@MS                             000000C6
DL@US                             000000D3
DLUS@W                            000000D4
DLY@P                             000000C8
DLY@W                             000000C7
DWORD_BIT                         
DWORD_BYTE                        
DWORD_DWORD                       
DWORD_WORD                        
DWORD_WREG                        
D_A                               00000005
EEADR                             0000010D
EEADRH                            0000010F
EECON1                            0000018C
EEDAT                             0000010C
EEDATA                            0000010C
EEDATH                            0000010E
EEDATL                            0000010C
EEDATLH                           0000010E
ERRORFP                           000004AA
EX@SEND@IT                        00000043
F1_000020                         0000010D
F1_000022                         00000110
F1_000023                         00000111
F1_000024                         00000112
F1_000064                         00000114
F1_000065                         00000117
F1_000066                         00000121
F1_000067                         00000126
F1_000070                         00000128
F1_000071                         00000132
F1_000072                         00000134
F1_000073                         00000136
F1_000074                         00000137
F1_000077                         00000139
F1_000078                         00000140
F1_000079                         00000143
F1_000080                         0000014D
F1_000081                         00000154
F1_000082                         0000015D
F1_000083                         0000015D
F1_000084                         00000167
F1_000085                         0000016E
F1_000086                         0000016E
F1_000087                         00000175
F1_000088                         00000178
F1_000089                         0000017A
F1_000090                         0000017C
F1_000091                         0000017F
F1_000092                         00000181
F1_000093                         00000192
F1_000094                         00000194
F1_000095                         00000198
F1_000096                         00000198
F1_000097                         0000019A
F1_000098                         000001A4
F1_000099                         000001A6
F1_000100                         000001A8
F1_000101                         000001A8
F1_000102                         000001A8
F1_000105                         000001AA
F1_000106                         000001AC
F1_000107                         000001AC
F1_000108                         000001B5
F1_000109                         000001CA
F1_000110                         000001DF
F1_000111                         000001EC
F1_000112                         000001F3
F1_000116                         000001F5
F1_000117                         000001F7
F1_000119                         00000201
F1_000120                         00000204
F1_000121                         0000020B
F1_000122                         00000215
F1_000123                         00000218
F1_000124                         0000021A
F1_000125                         00000224
F1_000126                         00000226
F1_000127                         00000229
F1_000128                         0000022B
F1_000129                         00000237
F1_000130                         00000239
F1_000131                         00000246
F1_000132                         0000024A
F1_000133                         0000024A
F1_000134                         0000024C
F1_000135                         0000024E
F1_000136                         0000025B
F1_000137                         0000025D
F1_000138                         0000026A
F1_000139                         0000026E
F1_000140                         0000026E
F1_000141                         00000270
F1_000142                         00000272
F1_000143                         0000027F
F1_000144                         00000281
F1_000145                         0000028E
F1_000146                         00000292
F1_000147                         00000292
F1_000148                         00000294
F1_000149                         00000296
F1_000150                         000002A3
F1_000151                         000002A5
F1_000152                         000002B2
F1_000153                         000002B6
F1_000154                         000002B6
F1_000155                         000002B8
F1_000156                         000002BA
F1_000157                         000002C7
F1_000158                         000002C9
F1_000159                         000002D6
F1_000160                         000002DA
F1_000161                         000002DA
F1_000162                         000002DC
F1_000163                         000002DE
F1_000164                         000002DE
F1_000165                         000002E0
F1_000166                         000002E2
F1_000167                         000002E2
F1_000168                         000002E4
F1_000169                         000002EE
F1_000170                         000002F0
F1_000171                         000002F2
F1_000172                         000002F2
F1_000173                         000002F4
F1_000176                         000002F6
F1_000177                         00000300
F1_000180                         00000302
F1_000181                         00000303
F1_000182                         0000030D
F1_000183                         0000030F
F1_000184                         00000310
F1_000187                         00000312
F1_000188                         0000031C
F1_000189                         0000031E
F1_000190                         00000320
F1_000193                         00000321
F1_000194                         00000322
F1_000195                         0000032C
F1_000196                         0000032E
F1_000197                         0000032F
F1_000200                         00000331
F1_000201                         00000332
F1_000202                         00000332
F1_000203                         00000335
F1_000204                         0000033B
F1_000205                         0000033E
F1_000206                         00000344
F1_000207                         00000347
F1_000208                         0000034D
F1_000209                         00000350
F1_000210                         00000356
F1_000211                         00000359
F1_000212                         0000035D
F1_000213                         0000035D
F1_000214                         00000360
F1_000215                         00000362
F1_000216                         0000036C
F1_000217                         00000372
F1_000218                         00000378
F1_000219                         0000037E
F1_000220                         00000384
F1_000221                         0000038A
F1_000222                         0000038C
F1_000225                         0000038E
F1_000226                         00000390
F1_000227                         0000039A
F1_000228                         000003A4
F1_000229                         000003A4
F1_000230                         000003AB
F1_000231                         000003AE
F1_000232                         000003B0
F1_000233                         000003BA
F1_000234                         000003BC
F1_000235                         000003BE
F1_000237                         000003BF
F1_000238                         000003C9
F1_000239                         000003CB
F1_000240                         000003CB
F1_000241                         000003CE
F1_000242                         000003CF
F1_000243                         000003D1
F1_000244                         000003D2
F1_000245                         000003D4
F1_000246                         000003D7
F1_000247                         000003D9
F1_000248                         000003E3
F1_000249                         000003E4
F1_000250                         000003E6
F1_000251                         000003E7
F1_000252                         000003EB
F1_000253                         000003EB
F1_000254                         000003ED
F1_000255                         000003F7
F1_000256                         000003F9
F1_000257                         000003FB
F1_000258                         000003FB
F1_000259                         000003FB
F1_000262                         000003FD
F1_000263                         000003FF
F1_000264                         00000409
F1_000265                         0000040B
F1_000266                         0000040B
F1_000267                         0000040E
F1_000268                         00000415
F1_000269                         00000418
F1_000270                         0000041F
F1_000271                         00000422
F1_000272                         0000042A
F1_000273                         0000042D
F1_000274                         00000435
F1_000275                         00000438
F1_000276                         0000043E
F1_000277                         0000043E
F1_000278                         00000445
F1_000279                         0000044A
F1_000280                         00000457
F1_000281                         00000461
F1_000282                         00000463
F1_000283                         00000466
F1_000284                         00000468
F1_000285                         0000046B
F1_000286                         0000046B
F1_000287                         0000047D
F1_000288                         0000047F
F1_000289                         0000047F
F1_000290                         00000489
F1_000291                         0000048A
F1_000292                         0000048C
F1_000293                         0000048F
F1_000294                         00000493
F1_000295                         00000493
F1_000296                         000004A5
F1_000297                         000004A7
F1_000298                         000004A9
F1_000299                         000004A9
F1_000302                         000004AA
F1_000303                         000004B4
F1_000304                         000004B5
F1_000305                         000004B7
F1_000306                         000004B8
F1_000312                         000004C4
F1_000313                         000004CA
F1_000314                         000004D3
F1_000315                         000004DD
F1_000316                         000004E7
F1_000319                         000004E9
F1_000320                         000004EC
F1_000323                         000004ED
F1_000324                         000004F2
F1_000327                         000004F3
F1_000328                         000004F4
F1_000329                         00000518
F1_000330                         00000548
F1_000331                         00000550
F1_000332                         00000577
F1_000333                         000005A7
F1_000335                         000005AF
F1_000336                         000005D3
F1_000337                         00000603
F1_000338                         0000060B
F1_000339                         00000632
F1_000340                         00000662
F1_000341                         0000066A
F1_000342                         0000068E
F1_000343                         000006BE
F1_000344                         000006C6
F1_000345                         000006C9
F1_000346                         000006F6
F1_000347                         00000726
F1_000348                         0000072E
F1_000351                         0000072F
F1_000352                         00000730
F1_000353                         00000754
F1_000354                         00000784
F1_000355                         0000078C
F1_000356                         000007B3
F1_000357                         000007E3
F1_000358                         000007EB
F1_000359                         0000081E
F1_000360                         0000085E
F1_000361                         00000866
F1_000362                         00000868
F1_000365                         00000869
F1_000366                         0000086A
F1_000367                         0000086D
F1_000368                         0000089D
F1_000369                         000008CD
F1_000370                         000008D5
F1_000373                         000008D6
F1_000374                         000008D7
F1_000375                         000008FB
F1_000376                         0000092B
F1_000377                         00000933
F1_000380                         00000934
F1_000381                         00000935
F1_000382                         00000959
F1_000383                         00000991
F1_000384                         00000999
F1_000385                         0000099B
F1_EOF                            0000099C
F1_SOF                            0000010D
F2_EOF                            0000010D
F2_SOF                            0000010D
F@CALL                            
F@JUMP                            
FERR                              00000002
FIND@PAGE                         
FOSC_HS                           00003FFE
FOSC_LP                           00003FFC
FOSC_RC                           00003FFF
FOSC_XT                           00003FFD
FP_DELETE_ALL                     000008D6
FP_DELETE_ID                      00000869
FP_ENROLL                         000004F3
FP_ERROR                          _B#VR1,7
FP_SEARCH                         0000072F
FP_TOTAL_ID                       00000934
FSR                               00000004
GEN                               00000023
GEN4                              00000024
GEN4H                             00000025
GET_ID                            00000053
GIE                               00000007
GO                                00000002
GO_DONE                           00000002
H@RSIN                            00000098
HRSIN                             00000093
HRSOUT                            0000009B
HSERIAL_BAUD                      0001C200
HSERIAL_RCSTA                     00000090
HSERIAL_SPBRG                     0000000A
HSERIAL_TXSTA                     00000024
HS_OSC                            00003FFE
I2C_DATA                          00000005
I2C_READ                          00000002
I2C_START                         00000003
I2C_STOP                          00000004
I@NT                              000000FF
I@NT2                             00000100
IDS                               00000056
ID_NO                             00000054
INDF                              00000000
INTCON                            0000000B
INTE                              00000004
INTEDG                            00000006
INTF                              00000001
IRP                               00000007
JUMP                              
LABEL_WORD                        
LCD#DTPIN                         4
LCD#DTPORT                        PORTB
LCD#ENPIN                         3
LCD#ENPORT                        PORTB
LCD#INTERFACE                     4
LCD#RSPIN                         2
LCD#RSPORT                        PORTB
LCD#TYPE                          0
LCD@CLS                           00000001
LCD@CRS                           0000000B
LED                               PORTA,5
LP_OSC                            00003FFC
MAIN                              00000128
MENU                              0000038E
NEW_ID                            00000033
NOT_A                             00000005
NOT_ADDRESS                       00000005
NOT_BO                            00000000
NOT_BOR                           00000000
NOT_DONE                          00000002
NOT_PD                            00000003
NOT_POR                           00000001
NOT_RBPU                          00000007
NOT_RC8                           00000006
NOT_T1SYNC                        00000002
NOT_TO                            00000004
NOT_TX8                           00000006
NOT_W                             00000002
NOT_WRITE                         00000002
NUM_BIT                           
NUM_BYTE                          
NUM_DWORD                         
NUM_FSR                           
NUM_WORD                          
NUM_WREG                          
OERR                              00000001
OPTION_REG                        00000081
OUT@DEC                           00000015
OUT@DECB                          00000012
OUT@DECC                          00000013
PB@LB126                          0000099C
PBP#VAR0                          00000026
PCFG0                             00000000
PCFG1                             00000001
PCFG2                             00000002
PCL                               00000002
PCLATH                            0000000A
PCON                              0000008E
PDESTINATION@PAGE                 00000000
PEIE                              00000006
PERMISSION                        PORTA,2
PIE1                              0000008C
PIE2                              0000008D
PIR1                              0000000C
PIR2                              0000000D
PMADR                             0000010D
PMADRH                            0000010F
PMCON1                            0000018C
PMDATA                            0000010C
PMDATH                            0000010E
PMDATL                            0000010C
PMDATLH                           0000010E
PORTA                             00000005
PORTB                             00000006
PORTC                             00000007
PP0                               00000027
PP0H                              00000028
PP1                               00000029
PP1H                              0000002A
PP2                               0000002B
PP2H                              0000002C
PP3                               0000002D
PP3H                              0000002E
PP4                               0000002F
PP5                               00000030
PP_BF                             00000000
PP_CREN                           00000004
PP_GO_DONE                        00000002
PP_OERR                           00000001
PP_RCIF                           00000005
PP_RD                             00000000
PP_R_W                            00000002
PP_T2CKPS0                        00000000
PP_T2CKPS1                        00000001
PP_TMR2ON                         00000002
PP_TXIF                           00000004
PR2                               00000092
PR@EX                             00000091
PR@LP                             00000082
PRINT                             00000044
PRIT@SKP                          0000007C
PROTON#CODE#START                 00000000
PROTON#MAIN#START                 00000103
PRT@1                             0000006E
PRT@C                             0000006D
PRT@S                             00000081
PS0                               00000000
PS1                               00000001
PS2                               00000002
PSA                               00000003
PWRTE_OFF                         00003FFF
PWRTE_ON                          00003FF7
R@B                               
RAM_BANK                          00000000
RAM_BANKS                         2
RBIE                              00000003
RBIF                              00000000
RC8_9                             00000006
RC9                               00000006
RCD8                              00000000
RCIE                              00000005
RCIF                              00000005
RCREG                             0000001A
RCSTA                             00000018
RC_OSC                            00003FFF
RD                                00000000
READ_WRITE                        00000002
RECHECK                           000005AF
RESULT                            PORTB,0
RP0                               00000005
RP1                               00000006
RX9                               00000006
RX9D                              00000000
RXD                               0000003E
RXD#0                             0000003E
RXD#1                             0000003F
RXD#10                            00000048
RXD#11                            00000049
RXD#12                            0000004A
RXD#13                            0000004B
RXD#14                            0000004C
RXD#15                            0000004D
RXD#16                            0000004E
RXD#17                            0000004F
RXD#18                            00000050
RXD#19                            00000051
RXD#2                             00000040
RXD#3                             00000041
RXD#4                             00000042
RXD#5                             00000043
RXD#6                             00000044
RXD#7                             00000045
RXD#8                             00000046
RXD#9                             00000047
R_W                               00000002
S@B                               
SELECT_VOTE                       00000331
SEND@IT                           00000032
SET@PAGE                          
SHOW_RESULT                       000001AA
SMP                               00000007
SP#P9                             00000031
SPBRG                             00000099
SPEN                              00000007
SREN                              00000005
SSPADD                            00000093
SSPBUF                            00000013
SSPCON                            00000014
SSPEN                             00000005
SSPIE                             00000003
SSPIF                             00000003
SSPM0                             00000000
SSPM1                             00000001
SSPM2                             00000002
SSPM3                             00000003
SSPOV                             00000006
SSPSTAT                           00000094
START                             00000139
STATUS                            00000003
STR@LB1                           0000099E
STR@LB10                          00000A19
STR@LB11                          00000A24
STR@LB12                          00000A2C
STR@LB13                          00000A3C
STR@LB14                          00000A51
STR@LB15                          000009E5
STR@LB16                          00000A65
STR@LB17                          00000A7A
STR@LB18                          00000A8F
STR@LB19                          00000AA3
STR@LB2                           000009AF
STR@LB20                          00000AB6
STR@LB21                          00000AC4
STR@LB22                          00000AD8
STR@LB23                          00000AEC
STR@LB24                          00000AFE
STR@LB25                          000009E5
STR@LB26                          00000B0B
STR@LB27                          00000B17
STR@LB28                          00000B24
STR@LB29                          00000B37
STR@LB3                           000009C4
STR@LB30                          00000B3E
STR@LB31                          00000B4A
STR@LB32                          00000B37
STR@LB33                          00000B5D
STR@LB34                          00000B69
STR@LB35                          00000B7C
STR@LB36                          00000B91
STR@LB37                          00000BA6
STR@LB4                           000009D9
STR@LB5                           000009E5
STR@LB6                           000009EC
STR@LB7                           000009FE
STR@LB8                           00000A06
STR@LB9                           00000A11
SUB1                              000002F6
SUB2                              00000302
SUB3                              00000312
SUB4                              00000321
SYNC                              00000004
T0CS                              00000005
T0IE                              00000005
T0IF                              00000002
T0SE                              00000004
T1CKPS0                           00000004
T1CKPS1                           00000005
T1CON                             00000010
T1INSYNC                          00000002
T1OSCEN                           00000003
T2CKPS0                           00000000
T2CKPS1                           00000001
T2CON                             00000012
TMR0                              00000001
TMR1CS                            00000001
TMR1H                             0000000F
TMR1IE                            00000000
TMR1IF                            00000000
TMR1L                             0000000E
TMR1LH                            0000000F
TMR1ON                            00000000
TMR2                              00000011
TMR2IE                            00000001
TMR2IF                            00000001
TMR2ON                            00000002
TOUTPS0                           00000003
TOUTPS1                           00000004
TOUTPS2                           00000005
TOUTPS3                           00000006
TRISA                             00000085
TRISB                             00000086
TRISC                             00000087
TRMT                              00000001
TX8_9                             00000006
TX9                               00000006
TX9D                              00000000
TXD8                              00000000
TXEN                              00000005
TXIE                              00000004
TXIF                              00000004
TXREG                             00000019
TXSTA                             00000098
UA                                00000001
VOTE                              PORTC,5
VOTED                             _B#VR1,1
VOTED_FLAG1                       _B#VR1,2
VOTED_FLAG2                       _B#VR1,3
VOTED_FLAG3                       _B#VR1,4
VOTED_FLAG4                       _B#VR1,5
VOTED_FLAG5                       _B#VR1,6
VOTE_A                            00000039
VOTE_B                            0000003A
VOTE_C                            0000003B
VOTE_D                            0000003C
VOTE_E                            0000003D
VOTE_FLAG                         _B#VR1,0
VOTING                            000001F5
WCOL                              00000007
WDTE_OFF                          00003FFB
WDTE_ON                           00003FFF
WDT_OFF                           00003FFB
WDT_ON                            00003FFF
WORD_BIT                          
WORD_BYTE                         
WORD_DWORD                        
WORD_WORD                         
WORD_WREG                         
WREG_BIT                          
WREG_BYTE                         
WREG_DWORD                        
WREG_WORD                         
XTAL                              20
XT_OSC                            00003FFD
Z                                 00000002
_ADC                              5
_ADC_RES                          8
_B#VR1                            00000032
_BANKS                            3
_CORE                             14
_CWRITE_BLOCK                     0
_EEPROM                           0
_FLASH                            2
_I2C_SCL_PIN                      00000003
_I2C_SCL_PORT                     00000087
_I2C_SDA_PIN                      00000004
_I2C_SDA_PORT                     00000087
_MAXMEM                           4096
_MAXRAM                           192
_PAGES                            2
_RAM_END                          0X00C0
_SYSTEM_VARIABLE_COUNT            18
_USART                            1
_USB                              0
_X                                00000052
__16F73                           1
__EOF                             00000BBB
__HSERIAL_BAUD                    49664
__HSERIAL_RCSTA                   144
__HSERIAL_TXSTA                   36
__LCD_DTPIN                       4
__LCD_DTPORT                      PORTB
__LCD_ENPIN                       3
__LCD_ENPORT                      PORTB
__LCD_INTERFACE                   4
__LCD_RSPIN                       2
__LCD_RSPORT                      PORTB
__XTAL                            20


MEMORY USAGE MAP ('X' = USED,  '-' = UNUSED)

0000 : XXXXXXXXXXXXXXXX XXXXXXXXXXXXXXXX XXXXXXXXXXXXXXXX XXXXXXXXXXXXXXXX
0040 : XXXXXXXXXXXXXXXX XXXXXXXXXXXXXXXX XXXXXXXXXXXXXXXX XXXXXXXXXXXXXXXX
0080 : XXXXXXXXXXXXXXXX XXXXXXXXXXXXXXXX XXXXXXXXXXXXXXXX XXXXXXXXXXXXXXXX
00C0 : XXXXXXXXXXXXXXXX XXXXXXXXXXXXXXXX XXXXXXXXXXXXXXXX XXXXXXXXXXXXXXXX
0100 : XXXXXXXXXXXXXXXX XXXXXXXXXXXXXXXX XXXXXXXXXXXXXXXX XXXXXXXXXXXXXXXX
0140 : XXXXXXXXXXXXXXXX XXXXXXXXXXXXXXXX XXXXXXXXXXXXXXXX XXXXXXXXXXXXXXXX
0180 : XXXXXXXXXXXXXXXX XXXXXXXXXXXXXXXX XXXXXXXXXXXXXXXX XXXXXXXXXXXXXXXX
01C0 : XXXXXXXXXXXXXXXX XXXXXXXXXXXXXXXX XXXXXXXXXXXXXXXX XXXXXXXXXXXXXXXX
0200 : XXXXXXXXXXXXXXXX XXXXXXXXXXXXXXXX XXXXXXXXXXXXXXXX XXXXXXXXXXXXXXXX
0240 : XXXXXXXXXXXXXXXX XXXXXXXXXXXXXXXX XXXXXXXXXXXXXXXX XXXXXXXXXXXXXXXX
0280 : XXXXXXXXXXXXXXXX XXXXXXXXXXXXXXXX XXXXXXXXXXXXXXXX XXXXXXXXXXXXXXXX
02C0 : XXXXXXXXXXXXXXXX XXXXXXXXXXXXXXXX XXXXXXXXXXXXXXXX XXXXXXXXXXXXXXXX
0300 : XXXXXXXXXXXXXXXX XXXXXXXXXXXXXXXX XXXXXXXXXXXXXXXX XXXXXXXXXXXXXXXX
0340 : XXXXXXXXXXXXXXXX XXXXXXXXXXXXXXXX XXXXXXXXXXXXXXXX XXXXXXXXXXXXXXXX
0380 : XXXXXXXXXXXXXXXX XXXXXXXXXXXXXXXX XXXXXXXXXXXXXXXX XXXXXXXXXXXXXXXX
03C0 : XXXXXXXXXXXXXXXX XXXXXXXXXXXXXXXX XXXXXXXXXXXXXXXX XXXXXXXXXXXXXXXX
0400 : XXXXXXXXXXXXXXXX XXXXXXXXXXXXXXXX XXXXXXXXXXXXXXXX XXXXXXXXXXXXXXXX
0440 : XXXXXXXXXXXXXXXX XXXXXXXXXXXXXXXX XXXXXXXXXXXXXXXX XXXXXXXXXXXXXXXX
0480 : XXXXXXXXXXXXXXXX XXXXXXXXXXXXXXXX XXXXXXXXXXXXXXXX XXXXXXXXXXXXXXXX
04C0 : XXXXXXXXXXXXXXXX XXXXXXXXXXXXXXXX XXXXXXXXXXXXXXXX XXXXXXXXXXXXXXXX
0500 : XXXXXXXXXXXXXXXX XXXXXXXXXXXXXXXX XXXXXXXXXXXXXXXX XXXXXXXXXXXXXXXX
0540 : XXXXXXXXXXXXXXXX XXXXXXXXXXXXXXXX XXXXXXXXXXXXXXXX XXXXXXXXXXXXXXXX
0580 : XXXXXXXXXXXXXXXX XXXXXXXXXXXXXXXX XXXXXXXXXXXXXXXX XXXXXXXXXXXXXXXX
05C0 : XXXXXXXXXXXXXXXX XXXXXXXXXXXXXXXX XXXXXXXXXXXXXXXX XXXXXXXXXXXXXXXX
0600 : XXXXXXXXXXXXXXXX XXXXXXXXXXXXXXXX XXXXXXXXXXXXXXXX XXXXXXXXXXXXXXXX
0640 : XXXXXXXXXXXXXXXX XXXXXXXXXXXXXXXX XXXXXXXXXXXXXXXX XXXXXXXXXXXXXXXX
0680 : XXXXXXXXXXXXXXXX XXXXXXXXXXXXXXXX XXXXXXXXXXXXXXXX XXXXXXXXXXXXXXXX
06C0 : XXXXXXXXXXXXXXXX XXXXXXXXXXXXXXXX XXXXXXXXXXXXXXXX XXXXXXXXXXXXXXXX
0700 : XXXXXXXXXXXXXXXX XXXXXXXXXXXXXXXX XXXXXXXXXXXXXXXX XXXXXXXXXXXXXXXX
0740 : XXXXXXXXXXXXXXXX XXXXXXXXXXXXXXXX XXXXXXXXXXXXXXXX XXXXXXXXXXXXXXXX
0780 : XXXXXXXXXXXXXXXX XXXXXXXXXXXXXXXX XXXXXXXXXXXXXXXX XXXXXXXXXXXXXXXX
07C0 : XXXXXXXXXXXXXXXX XXXXXXXXXXXXXXXX XXXXXXXXXXXXXXXX XXXXXXXXXXXXXXXX
0800 : XXXXXXXXXXXXXXXX XXXXXXXXXXXXXXXX XXXXXXXXXXXXXXXX XXXXXXXXXXXXXXXX
0840 : XXXXXXXXXXXXXXXX XXXXXXXXXXXXXXXX XXXXXXXXXXXXXXXX XXXXXXXXXXXXXXXX
0880 : XXXXXXXXXXXXXXXX XXXXXXXXXXXXXXXX XXXXXXXXXXXXXXXX XXXXXXXXXXXXXXXX
08C0 : XXXXXXXXXXXXXXXX XXXXXXXXXXXXXXXX XXXXXXXXXXXXXXXX XXXXXXXXXXXXXXXX
0900 : XXXXXXXXXXXXXXXX XXXXXXXXXXXXXXXX XXXXXXXXXXXXXXXX XXXXXXXXXXXXXXXX
0940 : XXXXXXXXXXXXXXXX XXXXXXXXXXXXXXXX XXXXXXXXXXXXXXXX XXXXXXXXXXXXXXXX
0980 : XXXXXXXXXXXXXXXX XXXXXXXXXXXXXXXX XXXXXXXXXXXXXXXX XXXXXXXXXXXXXXXX
09C0 : XXXXXXXXXXXXXXXX XXXXXXXXXXXXXXXX XXXXXXXXXXXXXXXX XXXXXXXXXXXXXXXX
0A00 : XXXXXXXXXXXXXXXX XXXXXXXXXXXXXXXX XXXXXXXXXXXXXXXX XXXXXXXXXXXXXXXX
0A40 : XXXXXXXXXXXXXXXX XXXXXXXXXXXXXXXX XXXXXXXXXXXXXXXX XXXXXXXXXXXXXXXX
0A80 : XXXXXXXXXXXXXXXX XXXXXXXXXXXXXXXX XXXXXXXXXXXXXXXX XXXXXXXXXXXXXXXX
0AC0 : XXXXXXXXXXXXXXXX XXXXXXXXXXXXXXXX XXXXXXXXXXXXXXXX XXXXXXXXXXXXXXXX
0B00 : XXXXXXXXXXXXXXXX XXXXXXXXXXXXXXXX XXXXXXXXXXXXXXXX XXXXXXXXXXXXXXXX
0B40 : XXXXXXXXXXXXXXXX XXXXXXXXXXXXXXXX XXXXXXXXXXXXXXXX XXXXXXXXXXXXXXXX
0B80 : XXXXXXXXXXXXXXXX XXXXXXXXXXXXXXXX XXXXXXXXXXXXXXXX XXXXXXXXXXX-----
2000 : -------X-------- ---------------- ---------------- ----------------

ALL OTHER MEMORY BLOCKS UNUSED.

PROGRAM MEMORY WORDS USED:  3003
PROGRAM MEMORY WORDS FREE:  1093


ERRORS   :     0
WARNINGS :     0 REPORTED,  3282 SUPPRESSED
MESSAGES :     1 REPORTED,   117 SUPPRESSED


