MPASM  5.42                               A.S   9-22-2016  5:52:59         PAGE  1


LOC  OBJECT CODE     LINE SOURCE TEXT
  VALUE


                      00002         list
                      00003 ;{
                      00004 ;FILE F1 = D:\1. ELECTRONICS\ABRAR'S CORNER\TANVIR BHAI\PROJECTS\7. STUDENT ATTENDENCE\FIRMWARE\STUDENT_
                            ATT.BAS
                      00005 ;FILE F2 = D:\1. ELECTRONICS\ABRAR'S CORNER\TANVIR BHAI\PROJECTS\7. STUDENT ATTENDENCE\FIRMWARE\STUDENT_
                            ATT.PRP
                      00006 ;FILE F3 = D:\1. ELECTRONICS\ABRAR'S CORNER\TANVIR BHAI\PROJECTS\7. STUDENT ATTENDENCE\FIRMWARE\FP_R305.
                            INC
                      00007 ;}
                      00008 ;[Variable Listing]
                      00009 ;ID,0038,DT_BYTE,1
                      00010 ;_B#VR2,003A,DT_BYTE,1
                      00011 ;prsnt,003B,DT_BYTE,10
                      00012 ;days,0045,DT_BYTE,1
                      00013 ;delay,0046,DT_BYTE,1
                      00014 ;RXD,0047,DT_BYTE,20
                      00015 ;X,005B,DT_BYTE,1
                      00016 ;get_ID,005C,DT_BYTE,1
                      00017 ;ID_no,005D,DT_BYTE,1
                      00018 ;checksum,005E,DT_BYTE,1
                      00019 ;IDs,005F,DT_BYTE,1
                      00020 ;ADD,0007.0,DT_BIT
                      00021 ;Change,0007.1,DT_BIT
                      00022 ;Check,0007.2,DT_BIT
                      00023 ;Day_over,0007.3,DT_BIT
                      00024 ;buzz,0007.4,DT_BIT
                      00025 ;ID_0,0039.0,DT_BIT
                      00026 ;ID_1,0039.1,DT_BIT
                      00027 ;ID_2,0039.2,DT_BIT
                      00028 ;ID_3,0039.3,DT_BIT
                      00029 ;ID_4,0039.4,DT_BIT
                      00030 ;ID_5,0039.5,DT_BIT
                      00031 ;ID_6,0039.6,DT_BIT
                      00032 ;ID_7,0039.7,DT_BIT
                      00033 ;ID_8,003A.0,DT_BIT
                      00034 ;ID_9,003A.1,DT_BIT
                      00035 ;FP_error,003A.2,DT_BIT
                      00036 ;[End Listing]
                      00037 ;[TOTAL VARS] 64

                      00039 #define CONFIG_REQ 1
MESSAGE[308]: WARNING LEVEL SUPERSEDED BY COMMAND LINE VALUE. (2)
                      00040  LIST  P = 16F73, F = INHX8M, W = 2, X = ON, R = DEC, MM = ON, N = 0, C = 255
  00000000            00041 INDF equ 0X0000
  00000001            00042 TMR0 equ 0X0001
  00000002            00043 PCL equ 0X0002
  00000003            00044 STATUS equ 0X0003
  00000004            00045 FSR equ 0X0004
  00000005            00046 PORTA equ 0X0005
  00000006            00047 PORTB equ 0X0006
  00000007            00048 PORTC equ 0X0007
  0000000A            00049 PCLATH equ 0X000A
  0000000B            00050 INTCON equ 0X000B
  0000000C            00051 PIR1 equ 0X000C
  0000000D            00052 PIR2 equ 0X000D
  0000000E            00053 TMR1L equ 0X000E
  0000000F            00054 TMR1LH equ 0X000F
  0000000F            00055 TMR1H equ 0X000F
  00000010            00056 T1CON equ 0X0010
  00000011            00057 TMR2 equ 0X0011
  00000012            00058 T2CON equ 0X0012
  00000013            00059 SSPBUF equ 0X0013
  00000014            00060 SSPCON equ 0X0014
  00000015            00061 CCPR1L equ 0X0015
  00000016            00062 CCPR1LH equ 0X0016
  00000016            00063 CCPR1H equ 0X0016
  00000017            00064 CCP1CON equ 0X0017
  00000018            00065 RCSTA equ 0X0018
  00000019            00066 TXREG equ 0X0019
  0000001A            00067 RCREG equ 0X001A
  0000001B            00068 CCPR2L equ 0X001B
  0000001C            00069 CCPR2LH equ 0X001C
  0000001C            00070 CCPR2H equ 0X001C
  0000001D            00071 CCP2CON equ 0X001D
  0000001E            00072 ADRES equ 0X001E
  0000001F            00073 ADCON0 equ 0X001F
  00000081            00074 OPTION_REG equ 0X0081
  00000085            00075 TRISA equ 0X0085
  00000086            00076 TRISB equ 0X0086
  00000087            00077 TRISC equ 0X0087
  0000008C            00078 PIE1 equ 0X008C
  0000008D            00079 PIE2 equ 0X008D
  0000008E            00080 PCON equ 0X008E
  00000092            00081 PR2 equ 0X0092
  00000093            00082 SSPADD equ 0X0093
  00000094            00083 SSPSTAT equ 0X0094
  00000098            00084 TXSTA equ 0X0098
  00000099            00085 SPBRG equ 0X0099
  0000009F            00086 ADCON1 equ 0X009F
  0000010C            00087 EEDATL equ 0X010C
  0000010C            00088 PMDATL equ 0X010C
  0000010C            00089 EEDATA equ 0X010C
  0000010C            00090 EEDAT equ 0X010C
  0000010C            00091 PMDATA equ 0X010C
  0000010D            00092 EEADR equ 0X010D
  0000010D            00093 PMADR equ 0X010D
  0000010E            00094 EEDATLH equ 0X010E
  0000010E            00095 PMDATLH equ 0X010E
  0000010E            00096 EEDATH equ 0X010E
  0000010E            00097 PMDATH equ 0X010E
  0000010F            00098 EEADRH equ 0X010F
  0000010F            00099 PMADRH equ 0X010F
  0000018C            00100 EECON1 equ 0X018C
  0000018C            00101 PMCON1 equ 0X018C
  00000087            00102 _I2C_SCL_PORT=TRISC
  00000003            00103 _I2C_SCL_PIN=3
  00000087            00104 _I2C_SDA_PORT=TRISC
  00000004            00105 _I2C_SDA_PIN=4
  00000007            00106 IRP=7
  00000006            00107 RP1=6
  00000005            00108 RP0=5
  00000004            00109 NOT_TO=4
  00000003            00110 NOT_PD=3
  00000002            00111 Z=2
  00000001            00112 DC=1
  00000000            00113 C=0
  00000007            00114 GIE=7
  00000006            00115 PEIE=6
  00000005            00116 T0IE=5
  00000004            00117 INTE=4
  00000003            00118 RBIE=3
  00000002            00119 T0IF=2
  00000001            00120 INTF=1
  00000000            00121 RBIF=0
  00000006            00122 ADIF=6
  00000005            00123 RCIF=5
  00000005            00124 PP_RCIF=5
  00000004            00125 TXIF=4
  00000004            00126 PP_TXIF=4
  00000003            00127 SSPIF=3
  00000002            00128 CCP1IF=2
  00000001            00129 TMR2IF=1
  00000000            00130 TMR1IF=0
  00000000            00131 CCP2IF=0
  00000005            00132 T1CKPS1=5
  00000004            00133 T1CKPS0=4
  00000003            00134 T1OSCEN=3
  00000002            00135 NOT_T1SYNC=2
  00000002            00136 T1INSYNC=2
  00000001            00137 TMR1CS=1
  00000000            00138 TMR1ON=0
  00000006            00139 TOUTPS3=6
  00000005            00140 TOUTPS2=5
  00000004            00141 TOUTPS1=4
  00000003            00142 TOUTPS0=3
  00000002            00143 TMR2ON=2
  00000002            00144 PP_TMR2ON=2
  00000001            00145 T2CKPS1=1
  00000001            00146 PP_T2CKPS1=1
  00000000            00147 T2CKPS0=0
  00000000            00148 PP_T2CKPS0=0
  00000007            00149 WCOL=7
  00000006            00150 SSPOV=6
  00000005            00151 SSPEN=5
  00000004            00152 CKP=4
  00000003            00153 SSPM3=3
  00000002            00154 SSPM2=2
  00000001            00155 SSPM1=1
  00000000            00156 SSPM0=0
  00000005            00157 CCP1X=5
  00000004            00158 CCP1Y=4
  00000003            00159 CCP1M3=3
  00000002            00160 CCP1M2=2
  00000001            00161 CCP1M1=1
  00000000            00162 CCP1M0=0
  00000007            00163 SPEN=7
  00000006            00164 RX9=6
  00000006            00165 RC9=6
  00000006            00166 NOT_RC8=6
  00000006            00167 RC8_9=6
  00000005            00168 SREN=5
  00000004            00169 CREN=4
  00000004            00170 PP_CREN=4
  00000002            00171 FERR=2
  00000001            00172 OERR=1
  00000001            00173 PP_OERR=1
  00000000            00174 RX9D=0
  00000000            00175 RCD8=0
  00000005            00176 CCP2X=5
  00000004            00177 CCP2Y=4
  00000003            00178 CCP2M3=3
  00000002            00179 CCP2M2=2
  00000001            00180 CCP2M1=1
  00000000            00181 CCP2M0=0
  00000007            00182 ADCS1=7
  00000006            00183 ADCS0=6
  00000005            00184 CHS2=5
  00000004            00185 CHS1=4
  00000003            00186 CHS0=3
  00000002            00187 GO=2
  00000002            00188 NOT_DONE=2
  00000002            00189 GO_DONE=2
  00000002            00190 PP_GO_DONE=2
  00000000            00191 ADON=0
  00000007            00192 NOT_RBPU=7
  00000006            00193 INTEDG=6
  00000005            00194 T0CS=5
  00000004            00195 T0SE=4
  00000003            00196 PSA=3
  00000002            00197 PS2=2
  00000001            00198 PS1=1
  00000000            00199 PS0=0
  00000006            00200 ADIE=6
  00000005            00201 RCIE=5
  00000004            00202 TXIE=4
  00000003            00203 SSPIE=3
  00000002            00204 CCP1IE=2
  00000001            00205 TMR2IE=1
  00000000            00206 TMR1IE=0
  00000000            00207 CCP2IE=0
  00000001            00208 NOT_POR=1
  00000000            00209 NOT_BO=0
  00000000            00210 NOT_BOR=0
  00000007            00211 SMP=7
  00000006            00212 CKE=6
  00000005            00213 I2C_DATA=5
  00000005            00214 NOT_A=5
  00000005            00215 NOT_ADDRESS=5
  00000005            00216 D_A=5
  00000005            00217 DATA_ADDRESS=5
  00000004            00218 I2C_STOP=4
  00000003            00219 I2C_START=3
  00000002            00220 I2C_READ=2
  00000002            00221 NOT_W=2
  00000002            00222 NOT_WRITE=2
  00000002            00223 R_W=2
  00000002            00224 PP_R_W=2
  00000002            00225 READ_WRITE=2
  00000001            00226 UA=1
  00000000            00227 BF=0
  00000000            00228 PP_BF=0
  00000007            00229 CSRC=7
  00000006            00230 TX9=6
  00000006            00231 NOT_TX8=6
  00000006            00232 TX8_9=6
  00000005            00233 TXEN=5
  00000004            00234 SYNC=4
  00000002            00235 BRGH=2
  00000001            00236 TRMT=1
  00000000            00237 TX9D=0
  00000000            00238 TXD8=0
  00000002            00239 PCFG2=2
  00000001            00240 PCFG1=1
  00000000            00241 PCFG0=0
  00000000            00242 RD=0
  00000000            00243 PP_RD=0
  000001FF            00244   __MAXRAM 0X1FF
                      00245   __BADRAM 0X08-0X09
                      00246   __BADRAM 0X88-0X89, 0X8F-0X91, 0X95-0X97, 0X9A-0X9E
                      00247   __BADRAM 0X105, 0X107-0X109, 0X110-0X11F
                      00248   __BADRAM 0X185, 0X187-0X189, 0X18D-0X19F
  00003FFF            00249 BODEN_ON equ 0X3FFF
  00003FBF            00250 BODEN_OFF equ 0X3FBF
  00003FEF            00251 CP_ALL equ 0X3FEF
  00003FFF            00252 CP_OFF equ 0X3FFF
  00003FFF            00253 PWRTE_OFF equ 0X3FFF
  00003FF7            00254 PWRTE_ON equ 0X3FF7
  00003FFF            00255 WDT_ON equ 0X3FFF
  00003FFB            00256 WDT_OFF equ 0X3FFB
  00003FFC            00257 LP_OSC equ 0X3FFC
  00003FFD            00258 XT_OSC equ 0X3FFD
  00003FFE            00259 HS_OSC equ 0X3FFE
  00003FFF            00260 RC_OSC equ 0X3FFF
  00003FBF            00261 BOREN_OFF equ 0X3FBF
  00003FFF            00262 BOREN_ON equ 0X3FFF
  00003FEF            00263 CP_ON equ 0X3FEF
  00003FFE            00264 FOSC_HS equ 0X3FFE
  00003FFC            00265 FOSC_LP equ 0X3FFC
  00003FFF            00266 FOSC_RC equ 0X3FFF
  00003FFD            00267 FOSC_XT equ 0X3FFD
  00003FFB            00268 WDTE_OFF equ 0X3FFB
  00003FFF            00269 WDTE_ON equ 0X3FFF

                      00273 #define __16F73 1
                      00274 #define XTAL 20
                      00275 #define _CORE 14
                      00276 #define _MAXRAM 192
                      00277 #define _RAM_END 0X00C0
                      00278 #define _MAXMEM 4096
                      00279 #define _ADC 5
                      00280 #define _ADC_RES 8
                      00281 #define _EEPROM 0
                      00282 #define _PAGES 2
                      00283 #define _BANKS 3
                      00284 #define RAM_BANKS 2
                      00285 #define _USART 1
                      00286 #define _USB 0
                      00287 #define _FLASH 2
                      00288 #define _CWRITE_BLOCK 0
                      00289 #define BANK0_START 0X20
                      00290 #define BANK0_END 0X7F
                      00291 #define BANK1_START 0X00A0
                      00292 #define BANK1_END 0X00FF
                      00293 #define BANK2_START 0X0110
                      00294 #define BANK2_END 0X0120
                      00295 #define BANK3_START 0X0190
                      00296 #define BANK3_END 0X01A0
                      00297 #define _SYSTEM_VARIABLE_COUNT 24
  00000000            00298 ram_bank = 0
  00000000            00299 CURRENT@PAGE = 0
  00000000            00300 DEST@PAGE = 0
                      00301 #define LCD#DTPORT PORTB
                      00302 #define LCD#DTPIN 4
                      00303 #define LCD#RSPORT PORTB
                      00304 #define LCD#RSPIN 2
                      00305 #define LCD#ENPORT PORTB
                      00306 #define LCD#ENPIN 3
                      00307 #define LCD#INTERFACE 4
                      00308 #define LCD#TYPE 0
                      00310 f@call macro PDEST
                      00311 if(PDEST < 1)
                      00312 if((PDEST & 2048) == 0)
                      00313         bcf 10,3
                      00314 else
                      00315         bsf 10,3
                      00316 endif
                      00317 else
                      00318 if(PDEST > $)
                      00319 if((PDEST & 2048) == 0)
                      00320         bcf 10,3
                      00321 else
                      00322         bsf 10,3
                      00323 endif
                      00324 else
                      00325 if((PDEST & 6144) == 0)
                      00326         clrf 10
                      00327 else
                      00328 if((PDEST & 2048) == 0)
                      00329         bcf 10,3
                      00330 else
                      00331         bsf 10,3
                      00332 endif
                      00333 endif
                      00334 endif
                      00335 endif
                      00336         call PDEST
                      00337         endm
                      00338 F@JUMP macro PDEST
                      00339 if(PDEST < 1)
                      00340 if((PDEST & 2048) == 0)
                      00341         bcf 10,3
                      00342 else
                      00343         bsf 10,3
                      00344 endif
                      00345 else
                      00346 if(PDEST > $)
                      00347 if((PDEST & 2048) == 0)
                      00348         bcf 10,3
                      00349 else
                      00350         bsf 10,3
                      00351 endif
                      00352 else
                      00353 if((PDEST & 6144) == 0)
                      00354         clrf 10
                      00355 else
                      00356 if((PDEST & 2048) == 0)
                      00357         bcf 10,3
                      00358 else
                      00359         bsf 10,3
                      00360 endif
                      00361 endif
                      00362 endif
                      00363 endif
                      00364         goto PDEST
                      00365         endm
                      00366 set@page macro PDEST
                      00367 if((PDEST & 2048) == 0)
                      00368         bcf 10,3
                      00369 else
                      00370         bsf 10,3
                      00371 endif
                      00372         endm
                      00373 s@b     macro pVarin
                      00374 if((pVarin & 384) == 0)
                      00375 if(ram_bank == 1)
                      00376         bcf 3,5
                      00377 endif
                      00378 if(ram_bank == 2)
                      00379         bcf 3,6
                      00380 endif
                      00381 if(ram_bank == 3)
                      00382         bcf 3,5
                      00383         bcf 3,6
                      00384 endif
                      00385 ram_bank = 0
                      00386 endif
                      00387 if((pVarin & 384) == 128)
                      00388 if(ram_bank == 0)
                      00389         bsf 3,5
                      00390 endif
                      00391 if(ram_bank == 2)
                      00392         bsf 3,5
                      00393         bcf 3,6
                      00394 endif
                      00395 if(ram_bank == 3)
                      00396         bcf 3,6
                      00397 endif
                      00398 ram_bank = 1
                      00399 endif
                      00400 if((pVarin & 384) == 256)
                      00401 if(ram_bank == 0)
                      00402         bsf 3,6
                      00403 endif
                      00404 if(ram_bank == 1)
                      00405         bcf 3,5
                      00406         bsf 3,6
                      00407 endif
                      00408 if(ram_bank == 3)
                      00409         bcf 3,5
                      00410 endif
                      00411 ram_bank = 2
                      00412 endif
                      00413 if((pVarin & 384) == 384)
                      00414 if(ram_bank == 0)
                      00415         bsf 3,5
                      00416         bsf 3,6
                      00417 endif
                      00418 if(ram_bank == 1)
                      00419         bsf 3,6
                      00420 endif
                      00421 if(ram_bank == 2)
                      00422         bsf 3,5
                      00423 endif
                      00424 ram_bank = 3
                      00425 endif
                      00426         endm
                      00427 r@b     macro
                      00428 if((ram_bank & 1) != 0)
                      00429         bcf 3,5
                      00430 endif
                      00431 if((ram_bank & 2) != 0)
                      00432         bcf 3,6
                      00433 endif
                      00434 ram_bank = 0
                      00435         endm
                      00436 jump macro PLABEL
                      00437     goto PLABEL
                      00438     endm
                      00439 wreg_byte macro pByteOut
                      00440     s@b pByteOut
                      00441     movwf pByteOut
                      00442     r@b
                      00443     endm
                      00444 wreg_bit macro pVarOut,pBitout
                      00445     s@b pVarOut
                      00446     andlw 1
                      00447     btfsc STATUS,2
                      00448     bcf pVarOut,pBitout
                      00449     btfss STATUS,2
                      00450     bsf pVarOut,pBitout
                      00451     r@b
                      00452     endm
                      00453 wreg_word macro pWordOut
                      00454     s@b pWordOut
                      00455     movwf pWordOut
                      00456     s@b pWordOut+1
                      00457     clrf pWordOut+1
                      00458     r@b
                      00459     endm
                      00460 wreg_dword macro pDwordOut
                      00461     s@b pDwordOut+3
                      00462     clrf pDwordOut+3
                      00463     s@b pDwordOut+2
                      00464     clrf pDwordOut+2
                      00465     s@b pDwordOut+1
                      00466     clrf pDwordOut+1
                      00467     s@b pDwordOut
                      00468     movwf pDwordOut
                      00469     r@b
                      00470     endm
                      00471 byte_wreg macro pByteIn
                      00472     s@b pByteIn
                      00473     movf pByteIn,W
                      00474     r@b
                      00475     endm
                      00476 num_wreg macro pNumIn
                      00477     movlw (pNumIn & 255)
                      00478     endm
                      00479 num_byte macro pNumIn,pByteOut
                      00480     s@b pByteOut
                      00481 if(pNumIn == 0)
                      00482     clrf pByteOut
                      00483 else
                      00484     movlw (pNumIn & 255)
                      00485     movwf pByteOut
                      00486 endif
                      00487     r@b
                      00488     endm
                      00489 num_bit macro pNumIn,pVarOut,pBitout
                      00490     s@b pVarOut
                      00491 if((pNumIn & 1) == 1)
                      00492     bsf pVarOut,pBitout
                      00493 else
                      00494     bcf pVarOut,pBitout
                      00495 endif
                      00496     r@b
                      00497     endm
                      00498 num_word macro pNumIn,pWordOut
                      00499 if((pNumIn & 255) == 0)
                      00500     s@b pWordOut
                      00501     clrf pWordOut
                      00502 else
                      00503     s@b pWordOut
                      00504     movlw low (pNumIn)
                      00505     movwf pWordOut
                      00506 endif
                      00507 if(((pNumIn >> 8) & 255) == 0)
                      00508     s@b pWordOut+1
                      00509     clrf pWordOut+1
                      00510 else
                      00511     s@b pWordOut+1
                      00512     movlw high (pNumIn)
                      00513     movwf pWordOut+1
                      00514 endif
                      00515     r@b
                      00516     endm
                      00517 num_dword macro pNumIn,pDwordOut
                      00518 if ((pNumIn >> 24 & 255) == 0)
                      00519     s@b pDwordOut+3
                      00520     clrf pDwordOut+3
                      00521 else
                      00522     s@b pDwordOut+3
                      00523     movlw ((pNumIn >> 24) & 255)
                      00524     movwf pDwordOut+3
                      00525 endif
                      00526 if( ((pNumIn >> 16) & 255) == 0)
                      00527     s@b pDwordOut+2
                      00528     clrf pDwordOut+2
                      00529 else
                      00530     s@b pDwordOut+2
                      00531     movlw ((pNumIn >> 16) & 255)
                      00532     movwf pDwordOut+2
                      00533 endif
                      00534 if( ((pNumIn >> 8) & 255) == 0)
                      00535     s@b pDwordOut+1
                      00536     clrf pDwordOut+1
                      00537 else
                      00538     s@b pDwordOut+1
                      00539     movlw high (pNumIn)
                      00540     movwf pDwordOut+1
                      00541 endif
                      00542 if((pNumIn & 255) == 0)
                      00543     s@b pDwordOut
                      00544     clrf pDwordOut
                      00545 else
                      00546     s@b pDwordOut
                      00547     movlw low (pNumIn)
                      00548     movwf pDwordOut
                      00549 endif
                      00550     r@b
                      00551     endm
                      00552 bit_wreg macro pVarin,pBitIn
                      00553     s@b pVarin
                      00554     clrw
                      00555     btfsc pVarin,pBitIn
                      00556     movlw 1
                      00557     r@b
                      00558     endm
                      00559 bit_byte macro pVarin,pBitIn,pByteOut
                      00560     s@b pVarin
                      00561     clrw
                      00562     btfsc pVarin,pBitIn
                      00563     movlw 1
                      00564     s@b pByteOut
                      00565     movwf pByteOut
                      00566     r@b
                      00567     endm
                      00568 bit_bit macro pVarin,pBitIn,pVarOut,pBitout
                      00569 if((pVarin & 65408) == (pVarOut & 65408))
                      00570     s@b pVarOut
                      00571     btfsc pVarin,pBitIn
                      00572     bsf pVarOut,pBitout
                      00573     btfss pVarin,pBitIn
                      00574     bcf pVarOut,pBitout
                      00575 else
                      00576     s@b pVarin
                      00577     clrdc
                      00578     btfsc pVarin,pBitIn
                      00579     setdc
                      00580     s@b pVarOut
                      00581     skpndc
                      00582     bsf pVarOut,pBitout
                      00583     skpdc
                      00584     bcf pVarOut,pBitout
                      00585 endif
                      00586     endm
                      00587 bit_word macro pVarin,pBitIn,pWordOut
                      00588     s@b pWordOut+1
                      00589     clrf pWordOut+1
                      00590     bit_byte pVarin,pBitIn,pWordOut
                      00591     endm
                      00592 bit_dword macro pVarin,pBitIn,pDwordOut
                      00593     s@b pDwordOut+3
                      00594     clrf pDwordOut+3
                      00595     s@b pDwordOut+2
                      00596     clrf pDwordOut+2
                      00597     s@b pDwordOut+1
                      00598     clrf pDwordOut+1
                      00599     bit_byte pVarin,pBitIn,pDwordOut
                      00600     endm
                      00601 word_wreg macro pWordIn
                      00602     byte_wreg pWordIn
                      00603     endm
                      00604 word_byte macro pWordIn,pByteOut
                      00605     byte_byte pWordIn,pByteOut
                      00606     endm
                      00607 word_bit macro pWordIn,pVarOut,pBitout
                      00608     byte_bit pWordIn, pVarOut, pBitout
                      00609     endm
                      00610 word_word macro pWordIn,pWordOut
                      00611     s@b pWordIn+1
                      00612     movf pWordIn+1,W
                      00613     s@b pWordOut+1
                      00614     movwf pWordOut+1
                      00615     byte_byte pWordIn,pWordOut
                      00616     endm
                      00617 word_dword macro pWordIn,pDwordOut
                      00618     s@b pDwordOut+3
                      00619     clrf pDwordOut+3
                      00620     s@b pDwordOut+2
                      00621     clrf pDwordOut+2
                      00622     byte_byte pWordIn+1,pDwordOut+1
                      00623     byte_byte pWordIn,pDwordOut
                      00624     endm
                      00625 byte_byte macro pByteIn,pByteOut
                      00626     s@b pByteIn
                      00627     movf pByteIn,W
                      00628     s@b pByteOut
                      00629     movwf pByteOut
                      00630     r@b
                      00631     endm
                      00632 byte_word macro pByteIn,pWordOut
                      00633     s@b pWordOut+1
                      00634     clrf pWordOut+1
                      00635     byte_byte pByteIn,pWordOut
                      00636     endm
                      00637 byte_dword macro pByteIn,pDwordOut
                      00638     s@b pDwordOut+3
                      00639     clrf pDwordOut+3
                      00640     s@b pDwordOut+2
                      00641     clrf pDwordOut+2
                      00642     s@b pDwordOut+1
                      00643     clrf pDwordOut+1
                      00644     byte_byte pByteIn,pDwordOut
                      00645     endm
                      00646     byte_bit macro pByteIn,pVarOut,pBitout
                      00647 if((pByteIn & 65408) == (pVarOut & 65408))
                      00648     s@b pByteIn
                      00649     btfsc pByteIn,0
                      00650     bsf pVarOut,pBitout
                      00651     btfss pByteIn,0
                      00652     bcf pVarOut,pBitout
                      00653 else
                      00654     s@b pByteIn
                      00655     rrf pByteIn,W
                      00656     s@b pVarOut
                      00657     skpnc
                      00658     bsf pVarOut,pBitout
                      00659     skpc
                      00660     bcf pVarOut,pBitout
                      00661 endif
                      00662     r@b
                      00663     endm
                      00664 dword_wreg macro pDwordIn
                      00665     byte_wreg pDwordIn
                      00666     endm
                      00667 dword_byte macro pDwordIn,pByteOut
                      00668     byte_byte pDwordIn,pByteOut
                      00669     endm
                      00670 dword_word macro pDwordIn,pWordOut
                      00671     s@b pDwordIn+1
                      00672     movf pDwordIn+1,W
                      00673     s@b pWordOut+1
                      00674     movwf pWordOut+1
                      00675     byte_byte pDwordIn,pWordOut
                      00676     endm
                      00677 dword_dword macro pDwordIn,pDwordOut
                      00678     byte_byte pDwordIn+3,pDwordOut+3
                      00679     byte_byte pDwordIn+2,pDwordOut+2
                      00680     byte_byte pDwordIn+1,pDwordOut+1
                      00681     byte_byte pDwordIn,pDwordOut
                      00682     endm
                      00683 dword_bit macro pDwordIn,pVarOut,pBitout
                      00684     byte_bit pDwordIn,pVarOut,pBitout
                      00685     endm
  0000                00686 variable CURRENT@PAGE = 0
  0000                00687 variable PDESTINATION@PAGE = 0
                      00688 FIND@PAGE macro pLabelIn
                      00689 local CURRENT_ADDR = $
                      00690 local DEST_ADDR = pLabelIn
                      00691 if((CURRENT_ADDR >= 0X1800) && (CURRENT_ADDR <= 0X2000))
                      00692     CURRENT@PAGE = 3
                      00693 endif
                      00694 if((CURRENT_ADDR >= 0X1000) && (CURRENT_ADDR <= 0X1800))
                      00695     CURRENT@PAGE = 2
                      00696 endif
                      00697 if((CURRENT_ADDR >= 0X0800) && (CURRENT_ADDR <= 0X1000))
                      00698     CURRENT@PAGE = 1
                      00699 endif
                      00700 if((CURRENT_ADDR >= 0) && (CURRENT_ADDR <= 0X0800))
                      00701     CURRENT@PAGE = 0
                      00702 endif
                      00703 if((DEST_ADDR >= 0X1800) && (DEST_ADDR <= 0X2000))
                      00704     PDESTINATION@PAGE = 3
                      00705 endif
                      00706 if((DEST_ADDR >= 0X1000) && (DEST_ADDR <= 0X1800))
                      00707     PDESTINATION@PAGE = 2
                      00708 endif
                      00709 if((DEST_ADDR >= 0X0800) && (DEST_ADDR <= 0X1000))
                      00710     PDESTINATION@PAGE = 1
                      00711 endif
                      00712 if((DEST_ADDR >= 0) && (DEST_ADDR <= 0X0800))
                      00713     PDESTINATION@PAGE = 0
                      00714 endif
                      00715     endm
                      00716 NUM_FSR macro pNumIn
                      00717     num_byte pNumIn, FSR
                      00718 if (((pNumIn >> 8) & 255) == 1)
                      00719     bsf STATUS,7
                      00720 else
                      00721     bcf STATUS,7
                      00722 endif
                      00723     endm
                      00724 label_word macro pLabelIn,pWordOut
                      00725     movlw low (pLabelIn)
                      00726     s@b pWordOut
                      00727     movwf pWordOut
                      00728     movlw high (pLabelIn)
                      00729     s@b pWordOut
                      00730     movwf pWordOut+1
                      00731     r@b
                      00732     endm
  00000020            00735 BPF = 32
  00000021            00736 BPFH = 33
  00000022            00737 CSTR#CT = 34
  00000023            00738 GEN = 35
  00000024            00739 GEN3H = 36
  00000025            00740 GEN4 = 37
  00000026            00741 GEN4H = 38
  00000027            00742 PBP#VAR0 = 39
  00000028            00743 PBP#VAR1 = 40
  00000029            00744 PP0 = 41
  0000002A            00745 PP0H = 42
  0000002B            00746 PP1 = 43
  0000002C            00747 PP1H = 44
  0000002D            00748 PP2 = 45
  0000002E            00749 PP2H = 46
  0000002F            00750 PP3 = 47
  00000030            00751 PP3H = 48
  00000031            00752 PP4 = 49
  00000032            00753 PP5 = 50
  00000033            00754 PP6 = 51
  00000034            00755 PP6H = 52
  00000035            00756 PP7 = 53
  00000036            00757 PP7H = 54
  00000037            00758 SP#P9 = 55
  00000038            00759 ID = 56
  00000039            00760 _B#VR1 = 57
  0000003A            00761 _B#VR2 = 58
  0000003B            00762 prsnt = 59
  003B                00763 variable prsnt#0=59,prsnt#1=60,prsnt#2=61,prsnt#3=62
  003F                00764 variable prsnt#4=63,prsnt#5=64,prsnt#6=65,prsnt#7=66
  0043                00765 variable prsnt#8=67,prsnt#9=68
  00000045            00766 days = 69
  00000046            00767 delay = 70
  00000047            00768 RXD = 71
  0047                00769 variable RXD#0=71,RXD#1=72,RXD#2=73,RXD#3=74
  004B                00770 variable RXD#4=75,RXD#5=76,RXD#6=77,RXD#7=78
  004F                00771 variable RXD#8=79,RXD#9=80,RXD#10=81,RXD#11=82
  0053                00772 variable RXD#12=83,RXD#13=84,RXD#14=85,RXD#15=86
  0057                00773 variable RXD#16=87,RXD#17=88,RXD#18=89,RXD#19=90
  0000005B            00774 _X = 91
  0000005C            00775 get_ID = 92
  0000005D            00776 ID_no = 93
  0000005E            00777 checksum = 94
  0000005F            00778 IDs = 95
                      00779 #define __LCD_RSPORT PORTB
                      00780 #define __LCD_ENPORT PORTB
                      00781 #define __LCD_DTPORT PORTB
                      00782 #define ADD PORTC,0
                      00783 #define Change PORTC,1
                      00784 #define Check PORTC,2
                      00785 #define Day_over PORTC,3
                      00786 #define buzz PORTC,4
                      00787 #define ID_0 _B#VR1,0
                      00788 #define ID_1 _B#VR1,1
                      00789 #define ID_2 _B#VR1,2
                      00790 #define ID_3 _B#VR1,3
                      00791 #define ID_4 _B#VR1,4
                      00792 #define ID_5 _B#VR1,5
                      00793 #define ID_6 _B#VR1,6
                      00794 #define ID_7 _B#VR1,7
                      00795 #define ID_8 _B#VR2,0
                      00796 #define ID_9 _B#VR2,1
                      00797 #define FP_error _B#VR2,2
                      00798 #define __XTAL 20
                      00799 #define __LCD_RSPIN 2
                      00800 #define __LCD_ENPIN 3
                      00801 #define __LCD_DTPIN 4
                      00802 #define __LCD_INTERFACE 4
                      00803 #define __HSERIAL_BAUD 57600
                      00804 #define __HSERIAL_RCSTA 144
                      00805 #define __HSERIAL_TXSTA 36
  00000015            00806 HSERIAL_SPBRG = 21
  00000024            00807 HSERIAL_TXSTA = 36
  00000090            00808 HSERIAL_RCSTA = 144
  0000E100            00809 HSERIAL_BAUD = 57600
0000                  00810 proton#code#start
0000                  00811         org 0
0000   2903           00812         goto proton#main#start
0001                  00813 LCD@CLS
0001   3080           00814         movlw 128
0002   00A1           00815         movwf 33
0003                  00816 CLS
0003   30FE           00817         movlw 254
0004   20A0           00818         call CH@SND
0005   3001           00819         movlw 1
0006   20A0           00820         call CH@SND
0007   3075           00821         movlw 117
0008   00AA           00822         movwf 42
0009   3030           00823         movlw 48
000A   28D4           00824         goto DLUS@W
000B                  00825 LCD@CRS
000B   01A1           00826         clrf 33
000C   17A1           00827         bsf 33,7
000D                  00828 CURS@
000D   00B2           00829         movwf 50
000E   30FE           00830         movlw 254
000F   20A0           00831         call CH@SND
0010   0832           00832         movf 50,W
0011   28A0           00833         goto CH@SND
0012                  00834 OUT@DECB
0012   01A6           00835         clrf 38
0013                  00836 OUT@DECC
0013   00AD           00837         movwf 45
0014   01AE           00838         clrf 46
0015                  00839 OUT@DEC
0015   11A0           00840         bcf 32,3
0016   0826           00841         movf 38,W
0017   1903           00842         skpnz
0018   15A0           00843         bsf 32,3
0019   3005           00844         movlw 5
001A   00A5           00845         movwf 37
001B   3027           00846         movlw 39
001C   00AC           00847         movwf 44
001D   3010           00848         movlw 16
001E   202B           00849         call D@DIG
001F   3003           00850         movlw 3
0020   00AC           00851         movwf 44
0021   30E8           00852         movlw 232
0022   202B           00853         call D@DIG
0023   01AC           00854         clrf 44
0024   3064           00855         movlw 100
0025   202B           00856         call D@DIG
0026   01AC           00857         clrf 44
0027   300A           00858         movlw 10
0028   202B           00859         call D@DIG
0029   082D           00860         movf 45,W
002A   2832           00861         goto SEND@IT
002B                  00862 D@DIG
002B   00AB           00863         movwf 43
002C   082E           00864         movf 46,W
002D   00AA           00865         movwf 42
002E   082D           00866         movf 45,W
002F   00A9           00867         movwf 41
0030   20E3           00868         call D@VD
0031   0829           00869         movf 41,W
0032                  00870 SEND@IT
0032   00A9           00871         movwf 41
0033   03A5           00872         decf 37,F
0034   1903           00873         skpnz
0035   11A0           00874         bcf 32,3
0036   0826           00875         movf 38,W
0037   1903           00876         skpnz
0038   283C           00877         goto $ + 4
0039   0225           00878         subwf 37,W
003A   1803           00879         skpnc
003B   2843           00880         goto EX@SEND@IT
003C   0829           00881         movf 41,W
003D   1D03           00882         skpz
003E   11A0           00883         bcf 32,3
003F   19A0           00884         btfsc 32,3
0040   2843           00885         goto EX@SEND@IT
0041   3E30           00886         addlw 48
0042   28A0           00887         goto CH@SND
0043                  00888 EX@SEND@IT
0043   0008           00889         return
0044                  00890 PRINT
0044   00B0           00891         movwf 48
0045   1186           00892         bcf PORTB,3
0046   1106           00893         bcf PORTB,2
0047   1683           00894         bsf 3,5
0048   1186           00895         bcf PORTB,3
0049   1106           00896         bcf PORTB,2
004A   300F           00897         movlw 15
004B   0586           00898         andwf PORTB,F
004C   1283           00899         bcf 3,5
004D   0830           00900         movf 48,W
004E   18A0           00901         btfsc 32,1
004F   286E           00902         goto PRT@1
0050   303E           00903         movlw 62
0051   00AA           00904         movwf 42
0052   3080           00905         movlw 128
0053   20D4           00906         call DLUS@W
0054   3033           00907         movlw 51
0055   00AF           00908         movwf 47
0056   2082           00909         call PR@LP
0057   3013           00910         movlw 19
0058   00AA           00911         movwf 42
0059   3088           00912         movlw 136
005A   20D4           00913         call DLUS@W
005B   2082           00914         call PR@LP
005C   3064           00915         movlw 100
005D   20D3           00916         call DL@US
005E   2082           00917         call PR@LP
005F   3064           00918         movlw 100
0060   20D3           00919         call DL@US
0061   3022           00920         movlw 34
0062   00AF           00921         movwf 47
0063   2082           00922         call PR@LP
0064   3028           00923         movlw 40
0065   206D           00924         call PRT@C
0066   300C           00925         movlw 12
0067   206D           00926         call PRT@C
0068   3006           00927         movlw 6
0069   206D           00928         call PRT@C
006A   14A0           00929         bsf 32,1
006B   0830           00930         movf 48,W
006C   286E           00931         goto PRT@1
006D                  00932 PRT@C
006D   1420           00933         bsf 32,0
006E                  00934 PRT@1
006E   00AF           00935         movwf 47
006F   1C20           00936         btfss 32,0
0070   287C           00937         goto PRIT@SKP
0071   1106           00938         bcf PORTB,2
0072   3C03           00939         sublw 3
0073   1C03           00940         skpc
0074   2881           00941         goto PRT@S
0075   2081           00942         call PRT@S
0076   3007           00943         movlw 7
0077   00AA           00944         movwf 42
0078   30D0           00945         movlw 208
0079   20D4           00946         call DLUS@W
007A   1403           00947         bsf 3,0
007B   0008           00948         return
007C                  00949 PRIT@SKP
007C   1420           00950         bsf 32,0
007D   3CFE           00951         sublw 254
007E   1903           00952         skpnz
007F   2891           00953         goto PR@EX
0080   1506           00954         bsf PORTB,2
0081                  00955 PRT@S
0081   1C20           00956         btfss 32,0
0082                  00957 PR@LP
0082   1020           00958         bcf 32,0
0083   1586           00959         bsf PORTB,3
0084   300F           00960         movlw 15
0085   0586           00961         andwf PORTB,F
0086   082F           00962         movf 47,W
0087   39F0           00963         andlw 240
0088   0486           00964         iorwf PORTB,F
0089   0000           00965         nop
008A   1186           00966         bcf PORTB,3
008B   0EAF           00967         swapf 47,F
008C   0000           00968         nop
008D   1820           00969         btfsc 32,0
008E   2882           00970         goto PR@LP
008F   3032           00971         movlw 50
0090   20D3           00972         call DL@US
0091                  00973 PR@EX
0091   0830           00974         movf 48,W
0092   28FF           00975         goto I@NT
0093                  00976 HRSIN
0093   1898           00977         btfsc 24,PP_OERR
0094   1218           00978         bcf 24,PP_CREN
0095   1618           00979         bsf 24,PP_CREN
0096   1E8C           00980         btfss 12,PP_RCIF
0097   2896           00981         goto $ - 1
0098                  00982 H@RSIN
0098   081A           00983         movf 26,W
0099   1403           00984         bsf 3,0
009A   28FF           00985         goto I@NT
009B                  00986 HRSOUT
009B   1E0C           00987         btfss 12,PP_TXIF
009C   289B           00988         goto $ - 1
009D   0099           00989         movwf 25
009E   1403           00990         bsf 3,0
009F   28FF           00991         goto I@NT
00A0                  00992 CH@SND
00A0   1BA1           00993         btfsc 33,7
00A1   2844           00994         goto PRINT
00A2   1921           00995         btfsc 33,2
00A3   289B           00996         goto HRSOUT
00A4   0008           00997         return
00A5                  00998 C@STROUT
00A5   00A5           00999         movwf 37
00A6                  01000 C@STROUTW
00A6   01A2           01001         clrf 34
00A7                  01002 C@STROUTLP
00A7   0825           01003         movf 37,W
00A8   1703           01004         bsf 3,6
00A9   008D           01005         movwf 269
00AA   1303           01006         bcf 3,6
00AB   0826           01007         movf 38,W
00AC   1703           01008         bsf 3,6
00AD   008F           01009         movwf 271
00AE   20B8           01010         call C@READ
00AF   1903           01011         skpnz
00B0   28FF           01012         goto I@NT
00B1   20A0           01013         call CH@SND
00B2   0AA5           01014         incf 37,F
00B3   1903           01015         skpnz
00B4   0AA6           01016         incf 38,F
00B5   0FA2           01017         incfsz 34,F
00B6   28A7           01018         goto C@STROUTLP
00B7   28FF           01019         goto I@NT
00B8                  01020 C@READ
00B8   1683           01021         bsf 3,5
00B9   1703           01022         bsf 3,6
00BA   140C           01023         bsf 396,PP_RD
00BB   0000           01024         nop
00BC   0000           01025         nop
00BD   1283           01026         bcf 3,5
00BE   080C           01027         movf 268,W
00BF   28FF           01028         goto I@NT
00C0                  01029 CL@R
00C0   0180           01030         clrf 0
00C1   0A84           01031         incf 4,F
00C2   3EFF           01032         addlw 255
00C3   1D03           01033         skpz
00C4   28C0           01034         goto $ - 4
00C5   28FF           01035         goto I@NT
00C6                  01036 DL@MS
00C6   01AC           01037         clrf 44
00C7                  01038 DLY@W
00C7   00AB           01039         movwf 43
00C8                  01040 DLY@P
00C8   30FF           01041         movlw 255
00C9   07AB           01042         addwf 43,F
00CA   1C03           01043         skpc
00CB   07AC           01044         addwf 44,F
00CC   1C03           01045         skpc
00CD   28FF           01046         goto I@NT
00CE   3003           01047         movlw 3
00CF   00AA           01048         movwf 42
00D0   30E6           01049         movlw 230
00D1   20D4           01050         call DLUS@W
00D2   28C8           01051         goto DLY@P
00D3                  01052 DL@US
00D3   01AA           01053         clrf 42
00D4                  01054 DLUS@W
00D4   3EFC           01055         addlw 252
00D5   00A9           01056         movwf 41
00D6   09AA           01057         comf 42,F
00D7   1C03           01058         skpc
00D8   28DF           01059         goto $ + 7
00D9   30FF           01060         movlw 255
00DA   0000           01061         nop
00DB   07A9           01062         addwf 41,F
00DC   1803           01063         skpnc
00DD   28DA           01064         goto $ - 3
00DE   07A9           01065         addwf 41,F
00DF   0000           01066         nop
00E0   0FAA           01067         incfsz 42,F
00E1   28D9           01068         goto $ - 8
00E2   0008           01069         return
00E3                  01070 D@VD
00E3   01AE           01071         clrf 46
00E4   01AD           01072         clrf 45
00E5                  01073 D@VD2
00E5   3010           01074         movlw 16
00E6   00AF           01075         movwf 47
00E7   0D2A           01076         rlf 42,W
00E8   0DAD           01077         rlf 45,F
00E9   0DAE           01078         rlf 46,F
00EA   082B           01079         movf 43,W
00EB   02AD           01080         subwf 45,F
00EC   082C           01081         movf 44,W
00ED   1C03           01082         skpc
00EE   0F2C           01083         incfsz 44,W
00EF   02AE           01084         subwf 46,F
00F0   1803           01085         skpnc
00F1   28F9           01086         goto $ + 8
00F2   082B           01087         movf 43,W
00F3   07AD           01088         addwf 45,F
00F4   082C           01089         movf 44,W
00F5   1803           01090         skpnc
00F6   0F2C           01091         incfsz 44,W
00F7   07AE           01092         addwf 46,F
00F8   1003           01093         bcf 3,0
00F9   0DA9           01094         rlf 41,F
00FA   0DAA           01095         rlf 42,F
00FB   0BAF           01096         decfsz 47,F
00FC   28E7           01097         goto $ - 21
00FD   0829           01098         movf 41,W
00FE   0008           01099         return
00FF                  01100 I@NT
00FF   1383           01101         bcf 3,7
0100                  01102 I@NT2
0100   1283           01103         bcf 3,5
0101   1303           01104         bcf 3,6
0102   0008           01105         return
0103                  01106 proton#main#start
0103   0183           01107         clrf 3
0104   1683           01108         bsf 3,5
0105   3015           01109         movlw 21
0106   0099           01110         movwf 153
0107   3024           01111         movlw 36
0108   0098           01112         movwf 152
0109   1283           01113         bcf 3,5
010A   3090           01114         movlw 144
010B   0098           01115         movwf 24
010C   01A0           01116         clrf 32

  0000010D            01119 F2_SOF equ $ ; ABRAR
  0000010D            01120 F2_EOF equ $ ; ABRAR
  0000010D            01121 F1_SOF equ $ ; ABRAR
  0000010D            01122 F1_000021 equ $ ; IN [ABRAR] ADCON1 = 7
010D   3007           01123         movlw 7
010E   1683           01124         bsf STATUS,5
  00000001            01125 ram_bank = 1
010F   009F           01126         movwf ADCON1
  00000110            01127 F1_000028 equ $ ; IN [ABRAR] OUTPUT buzz : OUTPUT PORTA
0110   1207           01128         bcf TRISC,4
0111   0185           01129         clrf TRISA
  00000112            01130 F1_000029 equ $ ; IN [ABRAR] INPUT ADD : INPUT Change
0112   1407           01131         bsf TRISC,0
0113   1487           01132         bsf TRISC,1
  00000114            01133 F1_000030 equ $ ; IN [ABRAR] INPUT Check : INPUT Day_over
0114   1507           01134         bsf TRISC,2
0115   1587           01135         bsf TRISC,3
  00000116            01136 F1_000047 equ $ ; IN [ABRAR] goto main
0116   1283           01137         bcf STATUS,5
  00000000            01138 ram_bank = 0
                      01139         F@JUMP main
  00000119            01140 F3_SOF equ $ ; ABRAR
0119                  01141 FP_init
  00000119            01142 F3_000010 equ $ ; IN [ABRAR] return
0119   0008           01143         return
011A                  01144 FP_Enroll
  0000011A            01145 F3_000013 equ $ ; IN [ABRAR] FP_error = 0
011A   113A           01146         bcf _B#VR2,2
  0000011B            01147 F3_000014 equ $ ; IN [ABRAR] HSEROUT[$EF , $01 , $FF , $FF , $FF , $FF , $01 , $00 , $03 , $01 , $00 , $05]
011B   30EF           01148         movlw 239
                      01149         f@call HRSOUT
011E   3001           01150         movlw 1
                      01151         f@call HRSOUT
0121   30FF           01152         movlw 255
                      01153         f@call HRSOUT
0124   30FF           01154         movlw 255
                      01155         f@call HRSOUT
0127   30FF           01156         movlw 255
                      01157         f@call HRSOUT
012A   30FF           01158         movlw 255
                      01159         f@call HRSOUT
012D   3001           01160         movlw 1
                      01161         f@call HRSOUT
0130   3000           01162         movlw 0
                      01163         f@call HRSOUT
0133   3003           01164         movlw 3
                      01165         f@call HRSOUT
0136   3001           01166         movlw 1
                      01167         f@call HRSOUT
0139   3000           01168         movlw 0
                      01169         f@call HRSOUT
013C   3005           01170         movlw 5
                      01171         f@call HRSOUT
  0000013F            01172 F3_000015 equ $ ; IN [ABRAR] HSERIN[RXD[0],RXD[1],RXD[2],RXD[3],RXD[4],RXD[5],RXD[6],RXD[7],RXD[8],RXD[9],RXD[10],RXD[11]]
                      01173         f@call HRSIN
0141   081A           01174         movf RCREG,W
0142   00C7           01175         movwf RXD#0
                      01176         f@call HRSIN
0145   081A           01177         movf RCREG,W
0146   00C8           01178         movwf RXD#1
                      01179         f@call HRSIN
0149   081A           01180         movf RCREG,W
014A   00C9           01181         movwf RXD#2
                      01182         f@call HRSIN
014D   081A           01183         movf RCREG,W
014E   00CA           01184         movwf RXD#3
                      01185         f@call HRSIN
0151   081A           01186         movf RCREG,W
0152   00CB           01187         movwf RXD#4
                      01188         f@call HRSIN
0155   081A           01189         movf RCREG,W
0156   00CC           01190         movwf RXD#5
                      01191         f@call HRSIN
0159   081A           01192         movf RCREG,W
015A   00CD           01193         movwf RXD#6
                      01194         f@call HRSIN
015D   081A           01195         movf RCREG,W
015E   00CE           01196         movwf RXD#7
                      01197         f@call HRSIN
0161   081A           01198         movf RCREG,W
0162   00CF           01199         movwf RXD#8
                      01200         f@call HRSIN
0165   081A           01201         movf RCREG,W
0166   00D0           01202         movwf RXD#9
                      01203         f@call HRSIN
0169   081A           01204         movf RCREG,W
016A   00D1           01205         movwf RXD#10
                      01206         f@call HRSIN
016D   081A           01207         movf RCREG,W
016E   00D2           01208         movwf RXD#11
  0000016F            01209 F3_000016 equ $ ; IN [ABRAR] if RXD[9] != 0 THEN FP_Enroll
016F   0850           01210         movf RXD#9,W
0170   00A7           01211         movwf PBP#VAR0
0171   08A7           01212         movf PBP#VAR0,F
                      01213         set@page BC@LL2
0173   1903           01214         btfsc STATUS,2
0174   2977           01215         goto BC@LL2
                      01216         F@JUMP FP_Enroll
0177                  01217 BC@LL2
  00000177            01218 F3_000017 equ $ ; IN [ABRAR] HSEROUT[$EF , $01 , $FF , $FF , $FF , $FF , $01 , $00 , $04 , $02 , $01 , $00 , $08]
0177   30EF           01219         movlw 239
                      01220         f@call HRSOUT
017A   3001           01221         movlw 1
                      01222         f@call HRSOUT
017D   30FF           01223         movlw 255
                      01224         f@call HRSOUT
0180   30FF           01225         movlw 255
                      01226         f@call HRSOUT
0183   30FF           01227         movlw 255
                      01228         f@call HRSOUT
0186   30FF           01229         movlw 255
                      01230         f@call HRSOUT
0189   3001           01231         movlw 1
                      01232         f@call HRSOUT
018C   3000           01233         movlw 0
                      01234         f@call HRSOUT
018F   3004           01235         movlw 4
                      01236         f@call HRSOUT
0192   3002           01237         movlw 2
                      01238         f@call HRSOUT
0195   3001           01239         movlw 1
                      01240         f@call HRSOUT
0198   3000           01241         movlw 0
                      01242         f@call HRSOUT
019B   3008           01243         movlw 8
                      01244         f@call HRSOUT
  0000019E            01245 F3_000018 equ $ ; IN [ABRAR] HSERIN[RXD[0],RXD[1],RXD[2],RXD[3],RXD[4],RXD[5],RXD[6],RXD[7],RXD[8],RXD[9],RXD[10],RXD[11]]
                      01246         f@call HRSIN
01A0   081A           01247         movf RCREG,W
01A1   00C7           01248         movwf RXD#0
                      01249         f@call HRSIN
01A4   081A           01250         movf RCREG,W
01A5   00C8           01251         movwf RXD#1
                      01252         f@call HRSIN
01A8   081A           01253         movf RCREG,W
01A9   00C9           01254         movwf RXD#2
                      01255         f@call HRSIN
01AC   081A           01256         movf RCREG,W
01AD   00CA           01257         movwf RXD#3
                      01258         f@call HRSIN
01B0   081A           01259         movf RCREG,W
01B1   00CB           01260         movwf RXD#4
                      01261         f@call HRSIN
01B4   081A           01262         movf RCREG,W
01B5   00CC           01263         movwf RXD#5
                      01264         f@call HRSIN
01B8   081A           01265         movf RCREG,W
01B9   00CD           01266         movwf RXD#6
                      01267         f@call HRSIN
01BC   081A           01268         movf RCREG,W
01BD   00CE           01269         movwf RXD#7
                      01270         f@call HRSIN
01C0   081A           01271         movf RCREG,W
01C1   00CF           01272         movwf RXD#8
                      01273         f@call HRSIN
01C4   081A           01274         movf RCREG,W
01C5   00D0           01275         movwf RXD#9
                      01276         f@call HRSIN
01C8   081A           01277         movf RCREG,W
01C9   00D1           01278         movwf RXD#10
                      01279         f@call HRSIN
01CC   081A           01280         movf RCREG,W
01CD   00D2           01281         movwf RXD#11
  000001CE            01282 F3_000019 equ $ ; IN [ABRAR] if RXD[9] != 0 THEN FP_error = 1 : return
01CE   0850           01283         movf RXD#9,W
01CF   00A7           01284         movwf PBP#VAR0
01D0   08A7           01285         movf PBP#VAR0,F
                      01286         set@page BC@LL4
01D2   1903           01287         btfsc STATUS,2
01D3   29D6           01288         goto BC@LL4
01D4   153A           01289         bsf _B#VR2,2
01D5   0008           01290         return
01D6                  01291 BC@LL4
01D6                  01292 Recheck
  000001D6            01293 F3_000021 equ $ ; IN [ABRAR] HSEROUT[$EF , $01 , $FF , $FF , $FF , $FF , $01 , $00 , $03 , $01 , $00 , $05]
01D6   30EF           01294         movlw 239
                      01295         f@call HRSOUT
01D9   3001           01296         movlw 1
                      01297         f@call HRSOUT
01DC   30FF           01298         movlw 255
                      01299         f@call HRSOUT
01DF   30FF           01300         movlw 255
                      01301         f@call HRSOUT
01E2   30FF           01302         movlw 255
                      01303         f@call HRSOUT
01E5   30FF           01304         movlw 255
                      01305         f@call HRSOUT
01E8   3001           01306         movlw 1
                      01307         f@call HRSOUT
01EB   3000           01308         movlw 0
                      01309         f@call HRSOUT
01EE   3003           01310         movlw 3
                      01311         f@call HRSOUT
01F1   3001           01312         movlw 1
                      01313         f@call HRSOUT
01F4   3000           01314         movlw 0
                      01315         f@call HRSOUT
01F7   3005           01316         movlw 5
                      01317         f@call HRSOUT
  000001FA            01318 F3_000022 equ $ ; IN [ABRAR] HSERIN[RXD[0],RXD[1],RXD[2],RXD[3],RXD[4],RXD[5],RXD[6],RXD[7],RXD[8],RXD[9],RXD[10],RXD[11]]
                      01319         f@call HRSIN
01FC   081A           01320         movf RCREG,W
01FD   00C7           01321         movwf RXD#0
                      01322         f@call HRSIN
0200   081A           01323         movf RCREG,W
0201   00C8           01324         movwf RXD#1
                      01325         f@call HRSIN
0204   081A           01326         movf RCREG,W
0205   00C9           01327         movwf RXD#2
                      01328         f@call HRSIN
0208   081A           01329         movf RCREG,W
0209   00CA           01330         movwf RXD#3
                      01331         f@call HRSIN
020C   081A           01332         movf RCREG,W
020D   00CB           01333         movwf RXD#4
                      01334         f@call HRSIN
0210   081A           01335         movf RCREG,W
0211   00CC           01336         movwf RXD#5
                      01337         f@call HRSIN
0214   081A           01338         movf RCREG,W
0215   00CD           01339         movwf RXD#6
                      01340         f@call HRSIN
0218   081A           01341         movf RCREG,W
0219   00CE           01342         movwf RXD#7
                      01343         f@call HRSIN
021C   081A           01344         movf RCREG,W
021D   00CF           01345         movwf RXD#8
                      01346         f@call HRSIN
0220   081A           01347         movf RCREG,W
0221   00D0           01348         movwf RXD#9
                      01349         f@call HRSIN
0224   081A           01350         movf RCREG,W
0225   00D1           01351         movwf RXD#10
                      01352         f@call HRSIN
0228   081A           01353         movf RCREG,W
0229   00D2           01354         movwf RXD#11
  0000022A            01355 F3_000023 equ $ ; IN [ABRAR] if RXD[9] != 0 THEN Recheck
022A   0850           01356         movf RXD#9,W
022B   00A7           01357         movwf PBP#VAR0
022C   08A7           01358         movf PBP#VAR0,F
                      01359         set@page BC@LL6
022E   1903           01360         btfsc STATUS,2
022F   2A32           01361         goto BC@LL6
                      01362         F@JUMP Recheck
0232                  01363 BC@LL6
  00000232            01364 F3_000024 equ $ ; IN [ABRAR] HSEROUT[$EF , $01 , $FF , $FF , $FF , $FF , $01 , $00 , $04 , $02 , $02 , $00 , $09]
0232   30EF           01365         movlw 239
                      01366         f@call HRSOUT
0235   3001           01367         movlw 1
                      01368         f@call HRSOUT
0238   30FF           01369         movlw 255
                      01370         f@call HRSOUT
023B   30FF           01371         movlw 255
                      01372         f@call HRSOUT
023E   30FF           01373         movlw 255
                      01374         f@call HRSOUT
0241   30FF           01375         movlw 255
                      01376         f@call HRSOUT
0244   3001           01377         movlw 1
                      01378         f@call HRSOUT
0247   3000           01379         movlw 0
                      01380         f@call HRSOUT
024A   3004           01381         movlw 4
                      01382         f@call HRSOUT
024D   3002           01383         movlw 2
                      01384         f@call HRSOUT
0250   3002           01385         movlw 2
                      01386         f@call HRSOUT
0253   3000           01387         movlw 0
                      01388         f@call HRSOUT
0256   3009           01389         movlw 9
                      01390         f@call HRSOUT
  00000259            01391 F3_000025 equ $ ; IN [ABRAR] HSERIN[RXD[0],RXD[1],RXD[2],RXD[3],RXD[4],RXD[5],RXD[6],RXD[7],RXD[8],RXD[9],RXD[10],RXD[11]]
                      01392         f@call HRSIN
025B   081A           01393         movf RCREG,W
025C   00C7           01394         movwf RXD#0
                      01395         f@call HRSIN
025F   081A           01396         movf RCREG,W
0260   00C8           01397         movwf RXD#1
                      01398         f@call HRSIN
0263   081A           01399         movf RCREG,W
0264   00C9           01400         movwf RXD#2
                      01401         f@call HRSIN
0267   081A           01402         movf RCREG,W
0268   00CA           01403         movwf RXD#3
                      01404         f@call HRSIN
026B   081A           01405         movf RCREG,W
026C   00CB           01406         movwf RXD#4
                      01407         f@call HRSIN
026F   081A           01408         movf RCREG,W
0270   00CC           01409         movwf RXD#5
                      01410         f@call HRSIN
0273   081A           01411         movf RCREG,W
0274   00CD           01412         movwf RXD#6
                      01413         f@call HRSIN
0277   081A           01414         movf RCREG,W
0278   00CE           01415         movwf RXD#7
                      01416         f@call HRSIN
027B   081A           01417         movf RCREG,W
027C   00CF           01418         movwf RXD#8
                      01419         f@call HRSIN
027F   081A           01420         movf RCREG,W
0280   00D0           01421         movwf RXD#9
                      01422         f@call HRSIN
0283   081A           01423         movf RCREG,W
0284   00D1           01424         movwf RXD#10
                      01425         f@call HRSIN
0287   081A           01426         movf RCREG,W
0288   00D2           01427         movwf RXD#11
  00000289            01428 F3_000026 equ $ ; IN [ABRAR] if RXD[9] != 0 THEN FP_error = 1 : return
0289   0850           01429         movf RXD#9,W
028A   00A7           01430         movwf PBP#VAR0
028B   08A7           01431         movf PBP#VAR0,F
                      01432         set@page BC@LL8
028D   1903           01433         btfsc STATUS,2
028E   2A91           01434         goto BC@LL8
028F   153A           01435         bsf _B#VR2,2
0290   0008           01436         return
0291                  01437 BC@LL8
  00000291            01438 F3_000027 equ $ ; IN [ABRAR] HSEROUT[$EF , $01 , $FF , $FF , $FF , $FF , $01 , $00 , $03 , $05 , $00 , $09]
0291   30EF           01439         movlw 239
                      01440         f@call HRSOUT
0294   3001           01441         movlw 1
                      01442         f@call HRSOUT
0297   30FF           01443         movlw 255
                      01444         f@call HRSOUT
029A   30FF           01445         movlw 255
                      01446         f@call HRSOUT
029D   30FF           01447         movlw 255
                      01448         f@call HRSOUT
02A0   30FF           01449         movlw 255
                      01450         f@call HRSOUT
02A3   3001           01451         movlw 1
                      01452         f@call HRSOUT
02A6   3000           01453         movlw 0
                      01454         f@call HRSOUT
02A9   3003           01455         movlw 3
                      01456         f@call HRSOUT
02AC   3005           01457         movlw 5
                      01458         f@call HRSOUT
02AF   3000           01459         movlw 0
                      01460         f@call HRSOUT
02B2   3009           01461         movlw 9
                      01462         f@call HRSOUT
  000002B5            01463 F3_000028 equ $ ; IN [ABRAR] HSERIN[RXD[0],RXD[1],RXD[2],RXD[3],RXD[4],RXD[5],RXD[6],RXD[7],RXD[8],RXD[9],RXD[10],RXD[11]]
                      01464         f@call HRSIN
02B7   081A           01465         movf RCREG,W
02B8   00C7           01466         movwf RXD#0
                      01467         f@call HRSIN
02BB   081A           01468         movf RCREG,W
02BC   00C8           01469         movwf RXD#1
                      01470         f@call HRSIN
02BF   081A           01471         movf RCREG,W
02C0   00C9           01472         movwf RXD#2
                      01473         f@call HRSIN
02C3   081A           01474         movf RCREG,W
02C4   00CA           01475         movwf RXD#3
                      01476         f@call HRSIN
02C7   081A           01477         movf RCREG,W
02C8   00CB           01478         movwf RXD#4
                      01479         f@call HRSIN
02CB   081A           01480         movf RCREG,W
02CC   00CC           01481         movwf RXD#5
                      01482         f@call HRSIN
02CF   081A           01483         movf RCREG,W
02D0   00CD           01484         movwf RXD#6
                      01485         f@call HRSIN
02D3   081A           01486         movf RCREG,W
02D4   00CE           01487         movwf RXD#7
                      01488         f@call HRSIN
02D7   081A           01489         movf RCREG,W
02D8   00CF           01490         movwf RXD#8
                      01491         f@call HRSIN
02DB   081A           01492         movf RCREG,W
02DC   00D0           01493         movwf RXD#9
                      01494         f@call HRSIN
02DF   081A           01495         movf RCREG,W
02E0   00D1           01496         movwf RXD#10
                      01497         f@call HRSIN
02E3   081A           01498         movf RCREG,W
02E4   00D2           01499         movwf RXD#11
  000002E5            01500 F3_000029 equ $ ; IN [ABRAR] if RXD[9] != 0 THEN FP_error = 1 : return
02E5   0850           01501         movf RXD#9,W
02E6   00A7           01502         movwf PBP#VAR0
02E7   08A7           01503         movf PBP#VAR0,F
                      01504         set@page BC@LL10
02E9   1903           01505         btfsc STATUS,2
02EA   2AED           01506         goto BC@LL10
02EB   153A           01507         bsf _B#VR2,2
02EC   0008           01508         return
02ED                  01509 BC@LL10
  000002ED            01510 F3_000030 equ $ ; IN [ABRAR] checksum = 15 + ID_no
02ED   300F           01511         movlw 15
02EE   075D           01512         addwf ID_no,W
02EF   00DE           01513         movwf checksum
  000002F0            01514 F3_000031 equ $ ; IN [ABRAR] HSEROUT[$EF , $01 , $FF , $FF , $FF , $FF , $01 , $00 , $06 , $06 , $02 , $00, ID_no, $00, checksum]
02F0   30EF           01515         movlw 239
                      01516         f@call HRSOUT
02F3   3001           01517         movlw 1
                      01518         f@call HRSOUT
02F6   30FF           01519         movlw 255
                      01520         f@call HRSOUT
02F9   30FF           01521         movlw 255
                      01522         f@call HRSOUT
02FC   30FF           01523         movlw 255
                      01524         f@call HRSOUT
02FF   30FF           01525         movlw 255
                      01526         f@call HRSOUT
0302   3001           01527         movlw 1
                      01528         f@call HRSOUT
0305   3000           01529         movlw 0
                      01530         f@call HRSOUT
0308   3006           01531         movlw 6
                      01532         f@call HRSOUT
030B   3006           01533         movlw 6
                      01534         f@call HRSOUT
030E   3002           01535         movlw 2
                      01536         f@call HRSOUT
0311   3000           01537         movlw 0
                      01538         f@call HRSOUT
0314   085D           01539         movf ID_no,W
                      01540         f@call HRSOUT
0317   3000           01541         movlw 0
                      01542         f@call HRSOUT
031A   085E           01543         movf checksum,W
                      01544         f@call HRSOUT
  0000031D            01545 F3_000032 equ $ ; IN [ABRAR] HSERIN[RXD[0],RXD[1],RXD[2],RXD[3],RXD[4],RXD[5],RXD[6],RXD[7],RXD[8],RXD[9],RXD[10],RXD[11]]
                      01546         f@call HRSIN
031F   081A           01547         movf RCREG,W
0320   00C7           01548         movwf RXD#0
                      01549         f@call HRSIN
0323   081A           01550         movf RCREG,W
0324   00C8           01551         movwf RXD#1
                      01552         f@call HRSIN
0327   081A           01553         movf RCREG,W
0328   00C9           01554         movwf RXD#2
                      01555         f@call HRSIN
032B   081A           01556         movf RCREG,W
032C   00CA           01557         movwf RXD#3
                      01558         f@call HRSIN
032F   081A           01559         movf RCREG,W
0330   00CB           01560         movwf RXD#4
                      01561         f@call HRSIN
0333   081A           01562         movf RCREG,W
0334   00CC           01563         movwf RXD#5
                      01564         f@call HRSIN
0337   081A           01565         movf RCREG,W
0338   00CD           01566         movwf RXD#6
                      01567         f@call HRSIN
033B   081A           01568         movf RCREG,W
033C   00CE           01569         movwf RXD#7
                      01570         f@call HRSIN
033F   081A           01571         movf RCREG,W
0340   00CF           01572         movwf RXD#8
                      01573         f@call HRSIN
0343   081A           01574         movf RCREG,W
0344   00D0           01575         movwf RXD#9
                      01576         f@call HRSIN
0347   081A           01577         movf RCREG,W
0348   00D1           01578         movwf RXD#10
                      01579         f@call HRSIN
034B   081A           01580         movf RCREG,W
034C   00D2           01581         movwf RXD#11
  0000034D            01582 F3_000033 equ $ ; IN [ABRAR] if RXD[9] != 0 THEN FP_error = 1 : return
034D   0850           01583         movf RXD#9,W
034E   00A7           01584         movwf PBP#VAR0
034F   08A7           01585         movf PBP#VAR0,F
                      01586         set@page BC@LL12
0351   1903           01587         btfsc STATUS,2
0352   2B55           01588         goto BC@LL12
0353   153A           01589         bsf _B#VR2,2
0354   0008           01590         return
0355                  01591 BC@LL12
  00000355            01592 F3_000034 equ $ ; IN [ABRAR] return
0355   0008           01593         return
0356                  01594 FP_Search
  00000356            01595 F3_000037 equ $ ; IN [ABRAR] FP_error = 0
0356   113A           01596         bcf _B#VR2,2
  00000357            01597 F3_000038 equ $ ; IN [ABRAR] HSEROUT[$EF , $01 , $FF , $FF , $FF , $FF , $01 , $00 , $03 , $01 , $00 , $05]
0357   30EF           01598         movlw 239
                      01599         f@call HRSOUT
035A   3001           01600         movlw 1
                      01601         f@call HRSOUT
035D   30FF           01602         movlw 255
                      01603         f@call HRSOUT
0360   30FF           01604         movlw 255
                      01605         f@call HRSOUT
0363   30FF           01606         movlw 255
                      01607         f@call HRSOUT
0366   30FF           01608         movlw 255
                      01609         f@call HRSOUT
0369   3001           01610         movlw 1
                      01611         f@call HRSOUT
036C   3000           01612         movlw 0
                      01613         f@call HRSOUT
036F   3003           01614         movlw 3
                      01615         f@call HRSOUT
0372   3001           01616         movlw 1
                      01617         f@call HRSOUT
0375   3000           01618         movlw 0
                      01619         f@call HRSOUT
0378   3005           01620         movlw 5
                      01621         f@call HRSOUT
  0000037B            01622 F3_000039 equ $ ; IN [ABRAR] HSERIN[RXD[0],RXD[1],RXD[2],RXD[3],RXD[4],RXD[5],RXD[6],RXD[7],RXD[8],RXD[9],RXD[10],RXD[11]]
                      01623         f@call HRSIN
037D   081A           01624         movf RCREG,W
037E   00C7           01625         movwf RXD#0
                      01626         f@call HRSIN
0381   081A           01627         movf RCREG,W
0382   00C8           01628         movwf RXD#1
                      01629         f@call HRSIN
0385   081A           01630         movf RCREG,W
0386   00C9           01631         movwf RXD#2
                      01632         f@call HRSIN
0389   081A           01633         movf RCREG,W
038A   00CA           01634         movwf RXD#3
                      01635         f@call HRSIN
038D   081A           01636         movf RCREG,W
038E   00CB           01637         movwf RXD#4
                      01638         f@call HRSIN
0391   081A           01639         movf RCREG,W
0392   00CC           01640         movwf RXD#5
                      01641         f@call HRSIN
0395   081A           01642         movf RCREG,W
0396   00CD           01643         movwf RXD#6
                      01644         f@call HRSIN
0399   081A           01645         movf RCREG,W
039A   00CE           01646         movwf RXD#7
                      01647         f@call HRSIN
039D   081A           01648         movf RCREG,W
039E   00CF           01649         movwf RXD#8
                      01650         f@call HRSIN
03A1   081A           01651         movf RCREG,W
03A2   00D0           01652         movwf RXD#9
                      01653         f@call HRSIN
03A5   081A           01654         movf RCREG,W
03A6   00D1           01655         movwf RXD#10
                      01656         f@call HRSIN
03A9   081A           01657         movf RCREG,W
03AA   00D2           01658         movwf RXD#11
  000003AB            01659 F3_000040 equ $ ; IN [ABRAR] if RXD[9] != 0 THEN FP_Search
03AB   0850           01660         movf RXD#9,W
03AC   00A7           01661         movwf PBP#VAR0
03AD   08A7           01662         movf PBP#VAR0,F
                      01663         set@page BC@LL14
03AF   1903           01664         btfsc STATUS,2
03B0   2BB3           01665         goto BC@LL14
                      01666         F@JUMP FP_Search
03B3                  01667 BC@LL14
  000003B3            01668 F3_000041 equ $ ; IN [ABRAR] HSEROUT[$EF , $01 , $FF , $FF , $FF , $FF , $01 , $00 , $04 , $02 , $01 , $00 , $08]
03B3   30EF           01669         movlw 239
                      01670         f@call HRSOUT
03B6   3001           01671         movlw 1
                      01672         f@call HRSOUT
03B9   30FF           01673         movlw 255
                      01674         f@call HRSOUT
03BC   30FF           01675         movlw 255
                      01676         f@call HRSOUT
03BF   30FF           01677         movlw 255
                      01678         f@call HRSOUT
03C2   30FF           01679         movlw 255
                      01680         f@call HRSOUT
03C5   3001           01681         movlw 1
                      01682         f@call HRSOUT
03C8   3000           01683         movlw 0
                      01684         f@call HRSOUT
03CB   3004           01685         movlw 4
                      01686         f@call HRSOUT
03CE   3002           01687         movlw 2
                      01688         f@call HRSOUT
03D1   3001           01689         movlw 1
                      01690         f@call HRSOUT
03D4   3000           01691         movlw 0
                      01692         f@call HRSOUT
03D7   3008           01693         movlw 8
                      01694         f@call HRSOUT
  000003DA            01695 F3_000042 equ $ ; IN [ABRAR] HSERIN[RXD[0],RXD[1],RXD[2],RXD[3],RXD[4],RXD[5],RXD[6],RXD[7],RXD[8],RXD[9],RXD[10],RXD[11]]
                      01696         f@call HRSIN
03DC   081A           01697         movf RCREG,W
03DD   00C7           01698         movwf RXD#0
                      01699         f@call HRSIN
03E0   081A           01700         movf RCREG,W
03E1   00C8           01701         movwf RXD#1
                      01702         f@call HRSIN
03E4   081A           01703         movf RCREG,W
03E5   00C9           01704         movwf RXD#2
                      01705         f@call HRSIN
03E8   081A           01706         movf RCREG,W
03E9   00CA           01707         movwf RXD#3
                      01708         f@call HRSIN
03EC   081A           01709         movf RCREG,W
03ED   00CB           01710         movwf RXD#4
                      01711         f@call HRSIN
03F0   081A           01712         movf RCREG,W
03F1   00CC           01713         movwf RXD#5
                      01714         f@call HRSIN
03F4   081A           01715         movf RCREG,W
03F5   00CD           01716         movwf RXD#6
                      01717         f@call HRSIN
03F8   081A           01718         movf RCREG,W
03F9   00CE           01719         movwf RXD#7
                      01720         f@call HRSIN
03FC   081A           01721         movf RCREG,W
03FD   00CF           01722         movwf RXD#8
                      01723         f@call HRSIN
0400   081A           01724         movf RCREG,W
0401   00D0           01725         movwf RXD#9
                      01726         f@call HRSIN
0404   081A           01727         movf RCREG,W
0405   00D1           01728         movwf RXD#10
                      01729         f@call HRSIN
0408   081A           01730         movf RCREG,W
0409   00D2           01731         movwf RXD#11
  0000040A            01732 F3_000043 equ $ ; IN [ABRAR] if RXD[9] != 0 THEN FP_error = 1 : return
040A   0850           01733         movf RXD#9,W
040B   00A7           01734         movwf PBP#VAR0
040C   08A7           01735         movf PBP#VAR0,F
                      01736         set@page BC@LL16
040E   1903           01737         btfsc STATUS,2
040F   2C12           01738         goto BC@LL16
0410   153A           01739         bsf _B#VR2,2
0411   0008           01740         return
0412                  01741 BC@LL16
  00000412            01742 F3_000044 equ $ ; IN [ABRAR] HSEROUT[$EF, $01, $FF, $FF, $FF, $FF, $01, $00, $08, $1B, $01, $00, $00, $03, $E9, $01, $11]
0412   30EF           01743         movlw 239
                      01744         f@call HRSOUT
0415   3001           01745         movlw 1
                      01746         f@call HRSOUT
0418   30FF           01747         movlw 255
                      01748         f@call HRSOUT
041B   30FF           01749         movlw 255
                      01750         f@call HRSOUT
041E   30FF           01751         movlw 255
                      01752         f@call HRSOUT
0421   30FF           01753         movlw 255
                      01754         f@call HRSOUT
0424   3001           01755         movlw 1
                      01756         f@call HRSOUT
0427   3000           01757         movlw 0
                      01758         f@call HRSOUT
042A   3008           01759         movlw 8
                      01760         f@call HRSOUT
042D   301B           01761         movlw 27
                      01762         f@call HRSOUT
0430   3001           01763         movlw 1
                      01764         f@call HRSOUT
0433   3000           01765         movlw 0
                      01766         f@call HRSOUT
0436   3000           01767         movlw 0
                      01768         f@call HRSOUT
0439   3003           01769         movlw 3
                      01770         f@call HRSOUT
043C   30E9           01771         movlw 233
                      01772         f@call HRSOUT
043F   3001           01773         movlw 1
                      01774         f@call HRSOUT
0442   3011           01775         movlw 17
                      01776         f@call HRSOUT
  00000445            01777 F3_000045 equ $ ; IN [ABRAR] HSERIN[RXD[0],RXD[1],RXD[2],RXD[3],RXD[4],RXD[5],RXD[6],RXD[7],RXD[8],RXD[9],RXD[10],RXD[11],RXD[12],RXD[13],RXD[14],RXD[15]]
                      01778         f@call HRSIN
0447   081A           01779         movf RCREG,W
0448   00C7           01780         movwf RXD#0
                      01781         f@call HRSIN
044B   081A           01782         movf RCREG,W
044C   00C8           01783         movwf RXD#1
                      01784         f@call HRSIN
044F   081A           01785         movf RCREG,W
0450   00C9           01786         movwf RXD#2
                      01787         f@call HRSIN
0453   081A           01788         movf RCREG,W
0454   00CA           01789         movwf RXD#3
                      01790         f@call HRSIN
0457   081A           01791         movf RCREG,W
0458   00CB           01792         movwf RXD#4
                      01793         f@call HRSIN
045B   081A           01794         movf RCREG,W
045C   00CC           01795         movwf RXD#5
                      01796         f@call HRSIN
045F   081A           01797         movf RCREG,W
0460   00CD           01798         movwf RXD#6
                      01799         f@call HRSIN
0463   081A           01800         movf RCREG,W
0464   00CE           01801         movwf RXD#7
                      01802         f@call HRSIN
0467   081A           01803         movf RCREG,W
0468   00CF           01804         movwf RXD#8
                      01805         f@call HRSIN
046B   081A           01806         movf RCREG,W
046C   00D0           01807         movwf RXD#9
                      01808         f@call HRSIN
046F   081A           01809         movf RCREG,W
0470   00D1           01810         movwf RXD#10
                      01811         f@call HRSIN
0473   081A           01812         movf RCREG,W
0474   00D2           01813         movwf RXD#11
                      01814         f@call HRSIN
0477   081A           01815         movf RCREG,W
0478   00D3           01816         movwf RXD#12
                      01817         f@call HRSIN
047B   081A           01818         movf RCREG,W
047C   00D4           01819         movwf RXD#13
                      01820         f@call HRSIN
047F   081A           01821         movf RCREG,W
0480   00D5           01822         movwf RXD#14
                      01823         f@call HRSIN
0483   081A           01824         movf RCREG,W
0484   00D6           01825         movwf RXD#15
  00000485            01826 F3_000046 equ $ ; IN [ABRAR] if RXD[9] != 0 THEN FP_error = 1 : return
0485   0850           01827         movf RXD#9,W
0486   00A7           01828         movwf PBP#VAR0
0487   08A7           01829         movf PBP#VAR0,F
                      01830         set@page BC@LL18
0489   1903           01831         btfsc STATUS,2
048A   2C8D           01832         goto BC@LL18
048B   153A           01833         bsf _B#VR2,2
048C   0008           01834         return
048D                  01835 BC@LL18
  0000048D            01836 F3_000047 equ $ ; IN [ABRAR] get_ID = RXD[11]
048D   0852           01837         movf RXD#11,W
048E   00DC           01838         movwf get_ID
  0000048F            01839 F3_000048 equ $ ; IN [ABRAR] return
048F   0008           01840         return
0490                  01841 FP_Delete_ID
  00000490            01842 F3_000051 equ $ ; IN [ABRAR] FP_error = 0
0490   113A           01843         bcf _B#VR2,2
  00000491            01844 F3_000052 equ $ ; IN [ABRAR] checksum = 21 + ID_no
0491   3015           01845         movlw 21
0492   075D           01846         addwf ID_no,W
0493   00DE           01847         movwf checksum
  00000494            01848 F3_000053 equ $ ; IN [ABRAR] HSEROUT[$EF, $01, $FF, $FF, $FF, $FF, $01, $00, $07, $0C, $00, ID_no, $00, $01, $00, checksum]
0494   30EF           01849         movlw 239
                      01850         f@call HRSOUT
0497   3001           01851         movlw 1
                      01852         f@call HRSOUT
049A   30FF           01853         movlw 255
                      01854         f@call HRSOUT
049D   30FF           01855         movlw 255
                      01856         f@call HRSOUT
04A0   30FF           01857         movlw 255
                      01858         f@call HRSOUT
04A3   30FF           01859         movlw 255
                      01860         f@call HRSOUT
04A6   3001           01861         movlw 1
                      01862         f@call HRSOUT
04A9   3000           01863         movlw 0
                      01864         f@call HRSOUT
04AC   3007           01865         movlw 7
                      01866         f@call HRSOUT
04AF   300C           01867         movlw 12
                      01868         f@call HRSOUT
04B2   3000           01869         movlw 0
                      01870         f@call HRSOUT
04B5   085D           01871         movf ID_no,W
                      01872         f@call HRSOUT
04B8   3000           01873         movlw 0
                      01874         f@call HRSOUT
04BB   3001           01875         movlw 1
                      01876         f@call HRSOUT
04BE   3000           01877         movlw 0
                      01878         f@call HRSOUT
04C1   085E           01879         movf checksum,W
                      01880         f@call HRSOUT
  000004C4            01881 F3_000054 equ $ ; IN [ABRAR] HSERIN[RXD[0],RXD[1],RXD[2],RXD[3],RXD[4],RXD[5],RXD[6],RXD[7],RXD[8],RXD[9],RXD[10],RXD[11]]
                      01882         f@call HRSIN
04C6   081A           01883         movf RCREG,W
04C7   00C7           01884         movwf RXD#0
                      01885         f@call HRSIN
04CA   081A           01886         movf RCREG,W
04CB   00C8           01887         movwf RXD#1
                      01888         f@call HRSIN
04CE   081A           01889         movf RCREG,W
04CF   00C9           01890         movwf RXD#2
                      01891         f@call HRSIN
04D2   081A           01892         movf RCREG,W
04D3   00CA           01893         movwf RXD#3
                      01894         f@call HRSIN
04D6   081A           01895         movf RCREG,W
04D7   00CB           01896         movwf RXD#4
                      01897         f@call HRSIN
04DA   081A           01898         movf RCREG,W
04DB   00CC           01899         movwf RXD#5
                      01900         f@call HRSIN
04DE   081A           01901         movf RCREG,W
04DF   00CD           01902         movwf RXD#6
                      01903         f@call HRSIN
04E2   081A           01904         movf RCREG,W
04E3   00CE           01905         movwf RXD#7
                      01906         f@call HRSIN
04E6   081A           01907         movf RCREG,W
04E7   00CF           01908         movwf RXD#8
                      01909         f@call HRSIN
04EA   081A           01910         movf RCREG,W
04EB   00D0           01911         movwf RXD#9
                      01912         f@call HRSIN
04EE   081A           01913         movf RCREG,W
04EF   00D1           01914         movwf RXD#10
                      01915         f@call HRSIN
04F2   081A           01916         movf RCREG,W
04F3   00D2           01917         movwf RXD#11
  000004F4            01918 F3_000055 equ $ ; IN [ABRAR] if RXD[9] != 0 THEN FP_error = 1 : return
04F4   0850           01919         movf RXD#9,W
04F5   00A7           01920         movwf PBP#VAR0
04F6   08A7           01921         movf PBP#VAR0,F
                      01922         set@page BC@LL20
04F8   1903           01923         btfsc STATUS,2
04F9   2CFC           01924         goto BC@LL20
04FA   153A           01925         bsf _B#VR2,2
04FB   0008           01926         return
04FC                  01927 BC@LL20
  000004FC            01928 F3_000056 equ $ ; IN [ABRAR] return
04FC   0008           01929         return
04FD                  01930 FP_Delete_ALL
  000004FD            01931 F3_000059 equ $ ; IN [ABRAR] FP_error = 0
04FD   113A           01932         bcf _B#VR2,2
  000004FE            01933 F3_000060 equ $ ; IN [ABRAR] HSEROUT[$EF, $01, $FF, $FF, $FF, $FF, $01, $00, $03, $0D, $00, $11]
04FE   30EF           01934         movlw 239
                      01935         f@call HRSOUT
0501   3001           01936         movlw 1
                      01937         f@call HRSOUT
0504   30FF           01938         movlw 255
                      01939         f@call HRSOUT
0507   30FF           01940         movlw 255
                      01941         f@call HRSOUT
050A   30FF           01942         movlw 255
                      01943         f@call HRSOUT
050D   30FF           01944         movlw 255
                      01945         f@call HRSOUT
0510   3001           01946         movlw 1
                      01947         f@call HRSOUT
0513   3000           01948         movlw 0
                      01949         f@call HRSOUT
0516   3003           01950         movlw 3
                      01951         f@call HRSOUT
0519   300D           01952         movlw 13
                      01953         f@call HRSOUT
051C   3000           01954         movlw 0
                      01955         f@call HRSOUT
051F   3011           01956         movlw 17
                      01957         f@call HRSOUT
  00000522            01958 F3_000061 equ $ ; IN [ABRAR] HSERIN[RXD[0],RXD[1],RXD[2],RXD[3],RXD[4],RXD[5],RXD[6],RXD[7],RXD[8],RXD[9],RXD[10],RXD[11]]
                      01959         f@call HRSIN
0524   081A           01960         movf RCREG,W
0525   00C7           01961         movwf RXD#0
                      01962         f@call HRSIN
0528   081A           01963         movf RCREG,W
0529   00C8           01964         movwf RXD#1
                      01965         f@call HRSIN
052C   081A           01966         movf RCREG,W
052D   00C9           01967         movwf RXD#2
                      01968         f@call HRSIN
0530   081A           01969         movf RCREG,W
0531   00CA           01970         movwf RXD#3
                      01971         f@call HRSIN
0534   081A           01972         movf RCREG,W
0535   00CB           01973         movwf RXD#4
                      01974         f@call HRSIN
0538   081A           01975         movf RCREG,W
0539   00CC           01976         movwf RXD#5
                      01977         f@call HRSIN
053C   081A           01978         movf RCREG,W
053D   00CD           01979         movwf RXD#6
                      01980         f@call HRSIN
0540   081A           01981         movf RCREG,W
0541   00CE           01982         movwf RXD#7
                      01983         f@call HRSIN
0544   081A           01984         movf RCREG,W
0545   00CF           01985         movwf RXD#8
                      01986         f@call HRSIN
0548   081A           01987         movf RCREG,W
0549   00D0           01988         movwf RXD#9
                      01989         f@call HRSIN
054C   081A           01990         movf RCREG,W
054D   00D1           01991         movwf RXD#10
                      01992         f@call HRSIN
0550   081A           01993         movf RCREG,W
0551   00D2           01994         movwf RXD#11
  00000552            01995 F3_000062 equ $ ; IN [ABRAR] if RXD[9] != 0 THEN FP_error = 1 : return
0552   0850           01996         movf RXD#9,W
0553   00A7           01997         movwf PBP#VAR0
0554   08A7           01998         movf PBP#VAR0,F
                      01999         set@page BC@LL22
0556   1903           02000         btfsc STATUS,2
0557   2D5A           02001         goto BC@LL22
0558   153A           02002         bsf _B#VR2,2
0559   0008           02003         return
055A                  02004 BC@LL22
  0000055A            02005 F3_000063 equ $ ; IN [ABRAR] return
055A   0008           02006         return
055B                  02007 FP_total_ID
  0000055B            02008 F3_000066 equ $ ; IN [ABRAR] FP_error = 0
055B   113A           02009         bcf _B#VR2,2
  0000055C            02010 F3_000067 equ $ ; IN [ABRAR] HSEROUT[$EF, $01, $FF, $FF, $FF, $FF, $01, $00, $03, $1D, $00, $21]
055C   30EF           02011         movlw 239
                      02012         f@call HRSOUT
055F   3001           02013         movlw 1
                      02014         f@call HRSOUT
0562   30FF           02015         movlw 255
                      02016         f@call HRSOUT
0565   30FF           02017         movlw 255
                      02018         f@call HRSOUT
0568   30FF           02019         movlw 255
                      02020         f@call HRSOUT
056B   30FF           02021         movlw 255
                      02022         f@call HRSOUT
056E   3001           02023         movlw 1
                      02024         f@call HRSOUT
0571   3000           02025         movlw 0
                      02026         f@call HRSOUT
0574   3003           02027         movlw 3
                      02028         f@call HRSOUT
0577   301D           02029         movlw 29
                      02030         f@call HRSOUT
057A   3000           02031         movlw 0
                      02032         f@call HRSOUT
057D   3021           02033         movlw 33
                      02034         f@call HRSOUT
  00000580            02035 F3_000068 equ $ ; IN [ABRAR] HSERIN[RXD[0],RXD[1],RXD[2],RXD[3],RXD[4],RXD[5],RXD[6],RXD[7],RXD[8],RXD[9],RXD[10],RXD[11],RXD[12],RXD[13]]
                      02036         f@call HRSIN
0582   081A           02037         movf RCREG,W
0583   00C7           02038         movwf RXD#0
                      02039         f@call HRSIN
0586   081A           02040         movf RCREG,W
0587   00C8           02041         movwf RXD#1
                      02042         f@call HRSIN
058A   081A           02043         movf RCREG,W
058B   00C9           02044         movwf RXD#2
                      02045         f@call HRSIN
058E   081A           02046         movf RCREG,W
058F   00CA           02047         movwf RXD#3
                      02048         f@call HRSIN
0592   081A           02049         movf RCREG,W
0593   00CB           02050         movwf RXD#4
                      02051         f@call HRSIN
0596   081A           02052         movf RCREG,W
0597   00CC           02053         movwf RXD#5
                      02054         f@call HRSIN
059A   081A           02055         movf RCREG,W
059B   00CD           02056         movwf RXD#6
                      02057         f@call HRSIN
059E   081A           02058         movf RCREG,W
059F   00CE           02059         movwf RXD#7
                      02060         f@call HRSIN
05A2   081A           02061         movf RCREG,W
05A3   00CF           02062         movwf RXD#8
                      02063         f@call HRSIN
05A6   081A           02064         movf RCREG,W
05A7   00D0           02065         movwf RXD#9
                      02066         f@call HRSIN
05AA   081A           02067         movf RCREG,W
05AB   00D1           02068         movwf RXD#10
                      02069         f@call HRSIN
05AE   081A           02070         movf RCREG,W
05AF   00D2           02071         movwf RXD#11
                      02072         f@call HRSIN
05B2   081A           02073         movf RCREG,W
05B3   00D3           02074         movwf RXD#12
                      02075         f@call HRSIN
05B6   081A           02076         movf RCREG,W
05B7   00D4           02077         movwf RXD#13
  000005B8            02078 F3_000069 equ $ ; IN [ABRAR] if RXD[9] != 0 THEN FP_error = 1 : return
05B8   0850           02079         movf RXD#9,W
05B9   00A7           02080         movwf PBP#VAR0
05BA   08A7           02081         movf PBP#VAR0,F
                      02082         set@page BC@LL24
05BC   1903           02083         btfsc STATUS,2
05BD   2DC0           02084         goto BC@LL24
05BE   153A           02085         bsf _B#VR2,2
05BF   0008           02086         return
05C0                  02087 BC@LL24
  000005C0            02088 F3_000070 equ $ ; IN [ABRAR] IDs = RXD[11]
05C0   0852           02089         movf RXD#11,W
05C1   00DF           02090         movwf IDs
  000005C2            02091 F3_000071 equ $ ; IN [ABRAR] return
05C2   0008           02092         return
  000005C3            02093 F3_EOF equ $ ; ABRAR
05C3                  02094 main
  000005C3            02095 F1_000052 equ $ ; IN [ABRAR] CLEAR
05C3   3020           02096         movlw 32
05C4   0084           02097         movwf FSR
05C5   3060           02098         movlw 96
                      02099         f@call CL@R
05C8   30A0           02100         movlw 160
05C9   0084           02101         movwf FSR
05CA   3060           02102         movlw 96
                      02103         f@call CL@R
  000005CD            02104 F1_000053 equ $ ; IN [ABRAR] buzz = 0
05CD   1207           02105         bcf PORTC,4
  000005CE            02106 F1_000054 equ $ ; IN [ABRAR] PORTA = 0
05CE   0185           02107         clrf PORTA
  000005CF            02108 F1_000055 equ $ ; IN [ABRAR] CLS
                      02109         f@call LCD@CLS
  000005D1            02110 F1_000056 equ $ ; IN [ABRAR] PRINT AT 2,1,"PLEASE WAIT.."
05D1   3080           02111         movlw 128
05D2   00A1           02112         movwf BPFH
05D3   30C0           02113         movlw 192
                      02114         f@call LCD@CRS
05D6   3008           02115         movlw high (STR@LB1)
05D7   00A6           02116         movwf GEN4H
05D8   305C           02117         movlw low (STR@LB1)
                      02118         f@call C@STROUT
  000005DB            02119 F1_000057 equ $ ; IN [ABRAR] GOSUB FP_init
                      02120         f@call FP_init
  000005DD            02121 F1_000058 equ $ ; IN [ABRAR] DELAYMS 8500
05DD   3021           02122         movlw 33
05DE   00AC           02123         movwf PP1H
05DF   3034           02124         movlw 52
                      02125         f@call DLY@W
  000005E2            02126 F1_000059 equ $ ; IN [ABRAR] days = 1
05E2   3001           02127         movlw 1
05E3   00C5           02128         movwf days
  000005E4            02129 F1_000060 equ $ ; IN [ABRAR] GOSUB default_LCD
                      02130         f@call default_LCD
05E6                  02131 start
  000005E6            02132 F1_000063 equ $ ; IN [ABRAR] if ADD = 1 THEN GOSUB delay_200 : goto add_ID
                      02133         set@page BC@LL26
05E7   1C07           02134         btfss PORTC,0
05E8   2DED           02135         goto BC@LL26
                      02136         f@call delay_200
                      02137         F@JUMP add_ID
05ED                  02138 BC@LL26
  000005ED            02139 F1_000064 equ $ ; IN [ABRAR] if Day_over = 1 THEN
                      02140         set@page BC@LL28
05EE   1D87           02141         btfss PORTC,3
05EF   2DFC           02142         goto BC@LL28
  000005F0            02143 F1_000065 equ $ ; IN [ABRAR] GOSUB delay_200
                      02144         f@call delay_200
  000005F2            02145 F1_000066 equ $ ; IN [ABRAR] INC days
05F2   0AC5           02146         incf days,F
  000005F3            02147 F1_000067 equ $ ; IN [ABRAR] GOSUB clear_id
                      02148         f@call clear_id
  000005F5            02149 F1_000068 equ $ ; IN [ABRAR] if days > 10 THEN GOSUB send_SMS
05F5   300B           02150         movlw 11
05F6   0245           02151         subwf days,W
                      02152         set@page BC@LL30
05F8   1C03           02153         btfss STATUS,0
05F9   2DFC           02154         goto BC@LL30
                      02155         f@call send_SMS
05FC                  02156 BC@LL30
  000005FC            02157 F1_000069 equ $ ; IN [ABRAR] endif
05FC                  02158 BC@LL28
  000005FC            02159 F1_000070 equ $ ; IN [ABRAR] PRINT AT 1,15, DEC days, " "
05FC   3080           02160         movlw 128
05FD   00A1           02161         movwf BPFH
05FE   308E           02162         movlw 142
                      02163         f@call LCD@CRS
0601   0845           02164         movf days,W
                      02165         f@call OUT@DECB
0604   3020           02166         movlw 32
                      02167         f@call PRINT
  00000607            02168 F1_000071 equ $ ; IN [ABRAR] if Change = 1 THEN GOSUB delay_200 : goto Present
                      02169         set@page BC@LL32
0608   1C87           02170         btfss PORTC,1
0609   2E0E           02171         goto BC@LL32
                      02172         f@call delay_200
                      02173         F@JUMP Present
060E                  02174 BC@LL32
  0000060E            02175 F1_000072 equ $ ; IN [ABRAR] if Check = 1 THEN GOSUB delay_200 : goto check_ID
                      02176         set@page BC@LL34
060F   1D07           02177         btfss PORTC,2
0610   2E15           02178         goto BC@LL34
                      02179         f@call delay_200
                      02180         F@JUMP check_ID
0615                  02181 BC@LL34
  00000615            02182 F1_000073 equ $ ; IN [ABRAR] goto start
                      02183         F@JUMP start
0617                  02184 send_SMS
  00000617            02185 F1_000076 equ $ ; IN [ABRAR] CLS
                      02186         f@call LCD@CLS
  00000619            02187 F1_000077 equ $ ; IN [ABRAR] days = 1
0619   3001           02188         movlw 1
061A   00C5           02189         movwf days
  0000061B            02190 F1_000078 equ $ ; IN [ABRAR] PRINT AT 1,1, "SENDING SMS.."
061B   3080           02191         movlw 128
061C   00A1           02192         movwf BPFH
                      02193         f@call LCD@CRS
061F   3008           02194         movlw high (STR@LB2)
0620   00A6           02195         movwf GEN4H
0621   306A           02196         movlw low (STR@LB2)
                      02197         f@call C@STROUT
  00000624            02198 F1_000079 equ $ ; IN [ABRAR] FOR ID = 0 TO 9
0624   01B8           02199         clrf ID
0625                  02200 FR@LB36
0625   300A           02201         movlw 10
0626   0238           02202         subwf ID,W
                      02203         set@page NX@LB37
0628   1803           02204         btfsc STATUS,0
0629   2E5C           02205         goto NX@LB37
  0000062A            02206 F1_000080 equ $ ; IN [ABRAR] if prsnt[ID] = 0 THEN
062A   0838           02207         movf ID,W
062B   3E3B           02208         addlw prsnt
062C   0084           02209         movwf FSR
062D   0800           02210         movf INDF,W
062E   00A7           02211         movwf PBP#VAR0
062F   08A7           02212         movf PBP#VAR0,F
                      02213         set@page BC@LL39
0631   1D03           02214         btfss STATUS,2
0632   2E57           02215         goto BC@LL39
  00000633            02216 F1_000081 equ $ ; IN [ABRAR] PRINT AT 2,1,"ID #:", DEC ID
0633   3080           02217         movlw 128
0634   00A1           02218         movwf BPFH
0635   30C0           02219         movlw 192
                      02220         f@call LCD@CRS
0638   3049           02221         movlw 73
                      02222         f@call PRINT
063B   3044           02223         movlw 68
                      02224         f@call PRINT
063E   3020           02225         movlw 32
                      02226         f@call PRINT
0641   3023           02227         movlw 35
                      02228         f@call PRINT
0644   303A           02229         movlw 58
                      02230         f@call PRINT
0647   0838           02231         movf ID,W
                      02232         f@call OUT@DECB
  0000064A            02233 F1_000082 equ $ ; IN [ABRAR] PORTA = $0F & (ID + 1)
064A   01B6           02234         clrf PP7H
064B   0A38           02235         incf ID,W
064C   00B5           02236         movwf PP7
064D   1903           02237         btfsc STATUS,2
064E   0AB6           02238         incf PP7H,F
064F   300F           02239         movlw 15
0650   0535           02240         andwf PP7,W
0651   0085           02241         movwf PORTA
  00000652            02242 F1_000083 equ $ ; IN [ABRAR] DELAYMS 5500
0652   3015           02243         movlw 21
0653   00AC           02244         movwf PP1H
0654   307C           02245         movlw 124
                      02246         f@call DLY@W
  00000657            02247 F1_000084 equ $ ; IN [ABRAR] endif
0657                  02248 BC@LL39
0657                  02249 CT@LB38
  00000657            02250 F1_000085 equ $ ; IN [ABRAR] NEXT
0657   3001           02251         movlw 1
0658   07B8           02252         addwf ID,F
                      02253         set@page FR@LB36
065A   1C03           02254         btfss STATUS,0
065B   2E25           02255         goto FR@LB36
065C                  02256 NX@LB37
  0000065C            02257 F1_000086 equ $ ; IN [ABRAR] PORTA = 0
065C   0185           02258         clrf PORTA
  0000065D            02259 F1_000087 equ $ ; IN [ABRAR] GOSUB default_LCD
                      02260         f@call default_LCD
065F                  02261 clear_id
  0000065F            02262 F1_000090 equ $ ; IN [ABRAR] ID_0 = 0 : ID_1 = 0
065F   1039           02263         bcf _B#VR1,0
0660   10B9           02264         bcf _B#VR1,1
  00000661            02265 F1_000091 equ $ ; IN [ABRAR] ID_2 = 0 : ID_3 = 0
0661   1139           02266         bcf _B#VR1,2
0662   11B9           02267         bcf _B#VR1,3
  00000663            02268 F1_000092 equ $ ; IN [ABRAR] ID_4 = 0 : ID_5 = 0
0663   1239           02269         bcf _B#VR1,4
0664   12B9           02270         bcf _B#VR1,5
  00000665            02271 F1_000093 equ $ ; IN [ABRAR] ID_6 = 0 : ID_7 = 0
0665   1339           02272         bcf _B#VR1,6
0666   13B9           02273         bcf _B#VR1,7
  00000667            02274 F1_000094 equ $ ; IN [ABRAR] ID_8 = 0 : ID_9 = 0
0667   103A           02275         bcf _B#VR2,0
0668   10BA           02276         bcf _B#VR2,1
  00000669            02277 F1_000095 equ $ ; IN [ABRAR] return
0669   0008           02278         return
066A                  02279 Present
  0000066A            02280 F1_000098 equ $ ; IN [ABRAR] CLS
                      02281         f@call LCD@CLS
  0000066C            02282 F1_000099 equ $ ; IN [ABRAR] PRINT AT 1,1,"PUT YOUR FINGER."
066C   3080           02283         movlw 128
066D   00A1           02284         movwf BPFH
                      02285         f@call LCD@CRS
0670   3008           02286         movlw high (STR@LB3)
0671   00A6           02287         movwf GEN4H
0672   3078           02288         movlw low (STR@LB3)
                      02289         f@call C@STROUT
  00000675            02290 F1_000100 equ $ ; IN [ABRAR] GOSUB FP_Search
                      02291         f@call FP_Search
  00000677            02292 F1_000101 equ $ ; IN [ABRAR] if FP_error = 0 THEN
                      02293         set@page BC@LL41
0678   193A           02294         btfsc _B#VR2,2
0679   2F68           02295         goto BC@LL41
  0000067A            02296 F1_000102 equ $ ; IN [ABRAR] if get_ID = 0 AND ID_0 = 0 THEN
067A   3001           02297         movlw 1
067B   08DC           02298         movf get_ID,F
067C   1D03           02299         btfss STATUS,2
067D   3000           02300         movlw 0
067E   00B7           02301         movwf SP#P9
067F   3001           02302         movlw 1
0680   1839           02303         btfsc _B#VR1,0
0681   3000           02304         movlw 0
0682   05B7           02305         andwf SP#P9,F
                      02306         set@page BC@LL43
0684   1903           02307         btfsc STATUS,2
0685   2E8F           02308         goto BC@LL43
  00000686            02309 F1_000103 equ $ ; IN [ABRAR] GOSUB Present_show
                      02310         f@call Present_show
  00000688            02311 F1_000104 equ $ ; IN [ABRAR] ID_0 = 1
0688   1439           02312         bsf _B#VR1,0
  00000689            02313 F1_000105 equ $ ; IN [ABRAR] GOSUB delay_2000
                      02314         f@call delay_2000
  0000068B            02315 F1_000106 equ $ ; IN [ABRAR] GOSUB default_LCD
                      02316         f@call default_LCD
                      02317         F@JUMP BC@LL42
  0000068F            02318 F1_000107 equ $ ; IN [ABRAR] ELSEIF get_ID = 1 AND ID_1 = 0 THEN
068F                  02319 BC@LL43
068F   3001           02320         movlw 1
0690   025C           02321         subwf get_ID,W
0691   3001           02322         movlw 1
0692   1D03           02323         btfss STATUS,2
0693   3000           02324         movlw 0
0694   00B7           02325         movwf SP#P9
0695   3001           02326         movlw 1
0696   18B9           02327         btfsc _B#VR1,1
0697   3000           02328         movlw 0
0698   05B7           02329         andwf SP#P9,F
                      02330         set@page BC@LL44
069A   1903           02331         btfsc STATUS,2
069B   2EA5           02332         goto BC@LL44
  0000069C            02333 F1_000108 equ $ ; IN [ABRAR] GOSUB Present_show
                      02334         f@call Present_show
  0000069E            02335 F1_000109 equ $ ; IN [ABRAR] ID_1 = 1
069E   14B9           02336         bsf _B#VR1,1
  0000069F            02337 F1_000110 equ $ ; IN [ABRAR] GOSUB delay_2000
                      02338         f@call delay_2000
  000006A1            02339 F1_000111 equ $ ; IN [ABRAR] GOSUB default_LCD
                      02340         f@call default_LCD
                      02341         F@JUMP BC@LL42
  000006A5            02342 F1_000112 equ $ ; IN [ABRAR] ELSEIF get_ID = 2 AND ID_2 = 0 THEN
06A5                  02343 BC@LL44
06A5   3002           02344         movlw 2
06A6   025C           02345         subwf get_ID,W
06A7   3001           02346         movlw 1
06A8   1D03           02347         btfss STATUS,2
06A9   3000           02348         movlw 0
06AA   00B7           02349         movwf SP#P9
06AB   3001           02350         movlw 1
06AC   1939           02351         btfsc _B#VR1,2
06AD   3000           02352         movlw 0
06AE   05B7           02353         andwf SP#P9,F
                      02354         set@page BC@LL45
06B0   1903           02355         btfsc STATUS,2
06B1   2EBB           02356         goto BC@LL45
  000006B2            02357 F1_000113 equ $ ; IN [ABRAR] GOSUB Present_show
                      02358         f@call Present_show
  000006B4            02359 F1_000114 equ $ ; IN [ABRAR] ID_2 = 1
06B4   1539           02360         bsf _B#VR1,2
  000006B5            02361 F1_000115 equ $ ; IN [ABRAR] GOSUB delay_2000
                      02362         f@call delay_2000
  000006B7            02363 F1_000116 equ $ ; IN [ABRAR] GOSUB default_LCD
                      02364         f@call default_LCD
                      02365         F@JUMP BC@LL42
  000006BB            02366 F1_000117 equ $ ; IN [ABRAR] ELSEIF get_ID = 3 AND ID_3 = 0 THEN
06BB                  02367 BC@LL45
06BB   3003           02368         movlw 3
06BC   025C           02369         subwf get_ID,W
06BD   3001           02370         movlw 1
06BE   1D03           02371         btfss STATUS,2
06BF   3000           02372         movlw 0
06C0   00B7           02373         movwf SP#P9
06C1   3001           02374         movlw 1
06C2   19B9           02375         btfsc _B#VR1,3
06C3   3000           02376         movlw 0
06C4   05B7           02377         andwf SP#P9,F
                      02378         set@page BC@LL46
06C6   1903           02379         btfsc STATUS,2
06C7   2ED1           02380         goto BC@LL46
  000006C8            02381 F1_000118 equ $ ; IN [ABRAR] GOSUB Present_show
                      02382         f@call Present_show
  000006CA            02383 F1_000119 equ $ ; IN [ABRAR] ID_3 = 1
06CA   15B9           02384         bsf _B#VR1,3
  000006CB            02385 F1_000120 equ $ ; IN [ABRAR] GOSUB delay_2000
                      02386         f@call delay_2000
  000006CD            02387 F1_000121 equ $ ; IN [ABRAR] GOSUB default_LCD
                      02388         f@call default_LCD
                      02389         F@JUMP BC@LL42
  000006D1            02390 F1_000122 equ $ ; IN [ABRAR] ELSEIF get_ID = 4 AND ID_4 = 0 THEN
06D1                  02391 BC@LL46
06D1   3004           02392         movlw 4
06D2   025C           02393         subwf get_ID,W
06D3   3001           02394         movlw 1
06D4   1D03           02395         btfss STATUS,2
06D5   3000           02396         movlw 0
06D6   00B7           02397         movwf SP#P9
06D7   3001           02398         movlw 1
06D8   1A39           02399         btfsc _B#VR1,4
06D9   3000           02400         movlw 0
06DA   05B7           02401         andwf SP#P9,F
                      02402         set@page BC@LL47
06DC   1903           02403         btfsc STATUS,2
06DD   2EE7           02404         goto BC@LL47
  000006DE            02405 F1_000123 equ $ ; IN [ABRAR] GOSUB Present_show
                      02406         f@call Present_show
  000006E0            02407 F1_000124 equ $ ; IN [ABRAR] ID_4 = 1
06E0   1639           02408         bsf _B#VR1,4
  000006E1            02409 F1_000125 equ $ ; IN [ABRAR] GOSUB delay_2000
                      02410         f@call delay_2000
  000006E3            02411 F1_000126 equ $ ; IN [ABRAR] GOSUB default_LCD
                      02412         f@call default_LCD
                      02413         F@JUMP BC@LL42
  000006E7            02414 F1_000127 equ $ ; IN [ABRAR] ELSEIF get_ID = 5 AND ID_5 = 0 THEN
06E7                  02415 BC@LL47
06E7   3005           02416         movlw 5
06E8   025C           02417         subwf get_ID,W
06E9   3001           02418         movlw 1
06EA   1D03           02419         btfss STATUS,2
06EB   3000           02420         movlw 0
06EC   00B7           02421         movwf SP#P9
06ED   3001           02422         movlw 1
06EE   1AB9           02423         btfsc _B#VR1,5
06EF   3000           02424         movlw 0
06F0   05B7           02425         andwf SP#P9,F
                      02426         set@page BC@LL48
06F2   1903           02427         btfsc STATUS,2
06F3   2EFD           02428         goto BC@LL48
  000006F4            02429 F1_000128 equ $ ; IN [ABRAR] GOSUB Present_show
                      02430         f@call Present_show
  000006F6            02431 F1_000129 equ $ ; IN [ABRAR] ID_5 = 1
06F6   16B9           02432         bsf _B#VR1,5
  000006F7            02433 F1_000130 equ $ ; IN [ABRAR] GOSUB delay_2000
                      02434         f@call delay_2000
  000006F9            02435 F1_000131 equ $ ; IN [ABRAR] GOSUB default_LCD
                      02436         f@call default_LCD
                      02437         F@JUMP BC@LL42
  000006FD            02438 F1_000132 equ $ ; IN [ABRAR] ELSEIF get_ID = 6 AND ID_6 = 0 THEN
06FD                  02439 BC@LL48
06FD   3006           02440         movlw 6
06FE   025C           02441         subwf get_ID,W
06FF   3001           02442         movlw 1
0700   1D03           02443         btfss STATUS,2
0701   3000           02444         movlw 0
0702   00B7           02445         movwf SP#P9
0703   3001           02446         movlw 1
0704   1B39           02447         btfsc _B#VR1,6
0705   3000           02448         movlw 0
0706   05B7           02449         andwf SP#P9,F
                      02450         set@page BC@LL49
0708   1903           02451         btfsc STATUS,2
0709   2F13           02452         goto BC@LL49
  0000070A            02453 F1_000133 equ $ ; IN [ABRAR] GOSUB Present_show
                      02454         f@call Present_show
  0000070C            02455 F1_000134 equ $ ; IN [ABRAR] ID_6 = 1
070C   1739           02456         bsf _B#VR1,6
  0000070D            02457 F1_000135 equ $ ; IN [ABRAR] GOSUB delay_2000
                      02458         f@call delay_2000
  0000070F            02459 F1_000136 equ $ ; IN [ABRAR] GOSUB default_LCD
                      02460         f@call default_LCD
                      02461         F@JUMP BC@LL42
  00000713            02462 F1_000137 equ $ ; IN [ABRAR] ELSEIF get_ID = 7 AND ID_7 = 0 THEN
0713                  02463 BC@LL49
0713   3007           02464         movlw 7
0714   025C           02465         subwf get_ID,W
0715   3001           02466         movlw 1
0716   1D03           02467         btfss STATUS,2
0717   3000           02468         movlw 0
0718   00B7           02469         movwf SP#P9
0719   3001           02470         movlw 1
071A   1BB9           02471         btfsc _B#VR1,7
071B   3000           02472         movlw 0
071C   05B7           02473         andwf SP#P9,F
                      02474         set@page BC@LL50
071E   1903           02475         btfsc STATUS,2
071F   2F29           02476         goto BC@LL50
  00000720            02477 F1_000138 equ $ ; IN [ABRAR] GOSUB Present_show
                      02478         f@call Present_show
  00000722            02479 F1_000139 equ $ ; IN [ABRAR] ID_7 = 1
0722   17B9           02480         bsf _B#VR1,7
  00000723            02481 F1_000140 equ $ ; IN [ABRAR] GOSUB delay_2000
                      02482         f@call delay_2000
  00000725            02483 F1_000141 equ $ ; IN [ABRAR] GOSUB default_LCD
                      02484         f@call default_LCD
                      02485         F@JUMP BC@LL42
  00000729            02486 F1_000142 equ $ ; IN [ABRAR] ELSEIF get_ID = 8 AND ID_8 = 0 THEN
0729                  02487 BC@LL50
0729   3008           02488         movlw 8
072A   025C           02489         subwf get_ID,W
072B   3001           02490         movlw 1
072C   1D03           02491         btfss STATUS,2
072D   3000           02492         movlw 0
072E   00B7           02493         movwf SP#P9
072F   3001           02494         movlw 1
0730   183A           02495         btfsc _B#VR2,0
0731   3000           02496         movlw 0
0732   05B7           02497         andwf SP#P9,F
                      02498         set@page BC@LL51
0734   1903           02499         btfsc STATUS,2
0735   2F3F           02500         goto BC@LL51
  00000736            02501 F1_000143 equ $ ; IN [ABRAR] GOSUB Present_show
                      02502         f@call Present_show
  00000738            02503 F1_000144 equ $ ; IN [ABRAR] ID_8 = 1
0738   143A           02504         bsf _B#VR2,0
  00000739            02505 F1_000145 equ $ ; IN [ABRAR] GOSUB delay_2000
                      02506         f@call delay_2000
  0000073B            02507 F1_000146 equ $ ; IN [ABRAR] GOSUB default_LCD
                      02508         f@call default_LCD
                      02509         F@JUMP BC@LL42
  0000073F            02510 F1_000147 equ $ ; IN [ABRAR] ELSEIF get_ID = 9 AND ID_9 = 0 THEN
073F                  02511 BC@LL51
073F   3009           02512         movlw 9
0740   025C           02513         subwf get_ID,W
0741   3001           02514         movlw 1
0742   1D03           02515         btfss STATUS,2
0743   3000           02516         movlw 0
0744   00B7           02517         movwf SP#P9
0745   3001           02518         movlw 1
0746   18BA           02519         btfsc _B#VR2,1
0747   3000           02520         movlw 0
0748   05B7           02521         andwf SP#P9,F
                      02522         set@page BC@LL52
074A   1903           02523         btfsc STATUS,2
074B   2F55           02524         goto BC@LL52
  0000074C            02525 F1_000148 equ $ ; IN [ABRAR] GOSUB Present_show
                      02526         f@call Present_show
  0000074E            02527 F1_000149 equ $ ; IN [ABRAR] ID_9 = 1
074E   14BA           02528         bsf _B#VR2,1
  0000074F            02529 F1_000150 equ $ ; IN [ABRAR] GOSUB delay_2000
                      02530         f@call delay_2000
  00000751            02531 F1_000151 equ $ ; IN [ABRAR] GOSUB default_LCD
                      02532         f@call default_LCD
                      02533         F@JUMP BC@LL53
0755                  02534 BC@LL52
  00000755            02535 F1_000152 equ $ ; IN [ABRAR] else
  00000755            02536 F1_000153 equ $ ; IN [ABRAR] CLS
                      02537         f@call LCD@CLS
  00000757            02538 F1_000154 equ $ ; IN [ABRAR] buzz = 1
0757   1607           02539         bsf PORTC,4
  00000758            02540 F1_000155 equ $ ; IN [ABRAR] PRINT AT 1,1, "ALREADY Present."
0758   3080           02541         movlw 128
0759   00A1           02542         movwf BPFH
                      02543         f@call LCD@CRS
075C   3008           02544         movlw high (STR@LB4)
075D   00A6           02545         movwf GEN4H
075E   3089           02546         movlw low (STR@LB4)
                      02547         f@call C@STROUT
  00000761            02548 F1_000156 equ $ ; IN [ABRAR] GOSUB delay_2000
                      02549         f@call delay_2000
  00000763            02550 F1_000157 equ $ ; IN [ABRAR] buzz = 0
0763   1207           02551         bcf PORTC,4
  00000764            02552 F1_000158 equ $ ; IN [ABRAR] GOSUB default_LCD
                      02553         f@call default_LCD
  00000766            02554 F1_000159 equ $ ; IN [ABRAR] endif
0766                  02555 BC@LL53
0766                  02556 BC@LL42
                      02557         F@JUMP BC@LL54
0768                  02558 BC@LL41
  00000768            02559 F1_000160 equ $ ; IN [ABRAR] else
  00000768            02560 F1_000161 equ $ ; IN [ABRAR] GOSUB Error_FP
                      02561         f@call Error_FP
  0000076A            02562 F1_000162 equ $ ; IN [ABRAR] endif
076A                  02563 BC@LL54
076A                  02564 Present_show
  0000076A            02565 F1_000165 equ $ ; IN [ABRAR] CLS
                      02566         f@call LCD@CLS
  0000076C            02567 F1_000166 equ $ ; IN [ABRAR] PRINT AT 1,1,"ID #: ", DEC get_ID
076C   3080           02568         movlw 128
076D   00A1           02569         movwf BPFH
                      02570         f@call LCD@CRS
0770   3008           02571         movlw high (STR@LB5)
0771   00A6           02572         movwf GEN4H
0772   309A           02573         movlw low (STR@LB5)
                      02574         f@call C@STROUT
0775   085C           02575         movf get_ID,W
                      02576         f@call OUT@DECB
  00000778            02577 F1_000167 equ $ ; IN [ABRAR] prsnt[get_ID] = prsnt[get_ID] + 1
0778   085C           02578         movf get_ID,W
0779   3E3B           02579         addlw prsnt
077A   0084           02580         movwf FSR
077B   0800           02581         movf INDF,W
077C   00A8           02582         movwf PBP#VAR1
077D   0A28           02583         incf PBP#VAR1,W
077E   00A7           02584         movwf PBP#VAR0
077F   085C           02585         movf get_ID,W
0780   3E3B           02586         addlw prsnt
0781   0084           02587         movwf FSR
0782   0827           02588         movf PBP#VAR0,W
0783   0080           02589         movwf INDF
  00000784            02590 F1_000168 equ $ ; IN [ABRAR] return
0784   0008           02591         return
0785                  02592 check_ID
  00000785            02593 F1_000171 equ $ ; IN [ABRAR] CLS
                      02594         f@call LCD@CLS
  00000787            02595 F1_000172 equ $ ; IN [ABRAR] ID = 0
0787   01B8           02596         clrf ID
0788                  02597 checking
  00000788            02598 F1_000174 equ $ ; IN [ABRAR] PRINT AT 1,1,"ID #: ", DEC ID, " "
0788   3080           02599         movlw 128
0789   00A1           02600         movwf BPFH
                      02601         f@call LCD@CRS
078C   3008           02602         movlw high (STR@LB6)
078D   00A6           02603         movwf GEN4H
078E   309A           02604         movlw low (STR@LB6)
                      02605         f@call C@STROUT
0791   0838           02606         movf ID,W
                      02607         f@call OUT@DECB
0794   3020           02608         movlw 32
                      02609         f@call PRINT
  00000797            02610 F1_000175 equ $ ; IN [ABRAR] PRINT AT 2,1,"Present #: ", DEC prsnt[ID], " "
0797   3080           02611         movlw 128
0798   00A1           02612         movwf BPFH
0799   30C0           02613         movlw 192
                      02614         f@call LCD@CRS
079C   3008           02615         movlw high (STR@LB7)
079D   00A6           02616         movwf GEN4H
079E   30A1           02617         movlw low (STR@LB7)
                      02618         f@call C@STROUT
07A1   0838           02619         movf ID,W
07A2   3E3B           02620         addlw prsnt
07A3   0084           02621         movwf FSR
07A4   0800           02622         movf INDF,W
                      02623         f@call OUT@DECB
07A7   3020           02624         movlw 32
                      02625         f@call PRINT
  000007AA            02626 F1_000176 equ $ ; IN [ABRAR] if Check = 1 THEN
                      02627         set@page BC@LL56
07AB   1D07           02628         btfss PORTC,2
07AC   2FB9           02629         goto BC@LL56
  000007AD            02630 F1_000177 equ $ ; IN [ABRAR] GOSUB delay_200
                      02631         f@call delay_200
  000007AF            02632 F1_000178 equ $ ; IN [ABRAR] INC ID
07AF   0AB8           02633         incf ID,F
  000007B0            02634 F1_000179 equ $ ; IN [ABRAR] if ID > 9 THEN GOSUB default_LCD
07B0   300A           02635         movlw 10
07B1   0238           02636         subwf ID,W
                      02637         set@page BC@LL58
07B3   1C03           02638         btfss STATUS,0
07B4   2FB7           02639         goto BC@LL58
                      02640         f@call default_LCD
07B7                  02641 BC@LL58
  000007B7            02642 F1_000180 equ $ ; IN [ABRAR] goto checking
                      02643         F@JUMP checking
  000007B9            02644 F1_000181 equ $ ; IN [ABRAR] endif
07B9                  02645 BC@LL56
  000007B9            02646 F1_000182 equ $ ; IN [ABRAR] if Change = 1 THEN GOSUB delay_200 : GOSUB default_LCD
                      02647         set@page BC@LL60
07BA   1C87           02648         btfss PORTC,1
07BB   2FC0           02649         goto BC@LL60
                      02650         f@call delay_200
                      02651         f@call default_LCD
07C0                  02652 BC@LL60
  000007C0            02653 F1_000183 equ $ ; IN [ABRAR] goto checking
                      02654         F@JUMP checking
07C2                  02655 add_ID
  000007C2            02656 F1_000186 equ $ ; IN [ABRAR] CLS
                      02657         f@call LCD@CLS
07C4                  02658 confirm
  000007C4            02659 F1_000188 equ $ ; IN [ABRAR] PRINT AT 1,1,"ADD ID #: ", DEC ID
07C4   3080           02660         movlw 128
07C5   00A1           02661         movwf BPFH
                      02662         f@call LCD@CRS
07C8   3008           02663         movlw high (STR@LB8)
07C9   00A6           02664         movwf GEN4H
07CA   30AD           02665         movlw low (STR@LB8)
                      02666         f@call C@STROUT
07CD   0838           02667         movf ID,W
                      02668         f@call OUT@DECB
  000007D0            02669 F1_000189 equ $ ; IN [ABRAR] PRINT AT 2,1,"confirm..?"
07D0   3080           02670         movlw 128
07D1   00A1           02671         movwf BPFH
07D2   30C0           02672         movlw 192
                      02673         f@call LCD@CRS
07D5   3008           02674         movlw high (STR@LB9)
07D6   00A6           02675         movwf GEN4H
07D7   30B8           02676         movlw low (STR@LB9)
                      02677         f@call C@STROUT
  000007DA            02678 F1_000190 equ $ ; IN [ABRAR] if Change = 1 THEN
                      02679         set@page BC@LL62
07DB   1C87           02680         btfss PORTC,1
07DC   2FE8           02681         goto BC@LL62
  000007DD            02682 F1_000191 equ $ ; IN [ABRAR] GOSUB delay_200
                      02683         f@call delay_200
  000007DF            02684 F1_000192 equ $ ; IN [ABRAR] INC ID
07DF   0AB8           02685         incf ID,F
  000007E0            02686 F1_000193 equ $ ; IN [ABRAR] if ID > 9 THEN ID = 0
07E0   300A           02687         movlw 10
07E1   0238           02688         subwf ID,W
                      02689         set@page BC@LL64
07E3   1C03           02690         btfss STATUS,0
07E4   2FE6           02691         goto BC@LL64
07E5   01B8           02692         clrf ID
07E6                  02693 BC@LL64
  000007E6            02694 F1_000194 equ $ ; IN [ABRAR] goto confirm
                      02695         F@JUMP confirm
  000007E8            02696 F1_000195 equ $ ; IN [ABRAR] endif
07E8                  02697 BC@LL62
  000007E8            02698 F1_000196 equ $ ; IN [ABRAR] if ADD = 1 THEN GOSUB delay_200 : GOSUB default_LCD
                      02699         set@page BC@LL66
07E9   1C07           02700         btfss PORTC,0
07EA   2FEF           02701         goto BC@LL66
                      02702         f@call delay_200
                      02703         f@call default_LCD
07EF                  02704 BC@LL66
  000007EF            02705 F1_000197 equ $ ; IN [ABRAR] if Check = 1 THEN GOSUB delay_200 : goto Adding
                      02706         set@page BC@LL68
07F0   1D07           02707         btfss PORTC,2
07F1   2FF6           02708         goto BC@LL68
                      02709         f@call delay_200
                      02710         F@JUMP Adding
07F6                  02711 BC@LL68
  000007F6            02712 F1_000198 equ $ ; IN [ABRAR] goto confirm
                      02713         F@JUMP confirm
07F8                  02714 Adding
  000007F8            02715 F1_000200 equ $ ; IN [ABRAR] PRINT AT 2,1,"PUT YOUR FINGER."
07F8   3080           02716         movlw 128
07F9   00A1           02717         movwf BPFH
07FA   30C0           02718         movlw 192
                      02719         f@call LCD@CRS
07FD   3008           02720         movlw high (STR@LB10)
07FE   00A6           02721         movwf GEN4H
07FF   3078           02722         movlw low (STR@LB10)
                      02723         f@call C@STROUT
  00000802            02724 F1_000201 equ $ ; IN [ABRAR] ID_no = ID
0802   0838           02725         movf ID,W
0803   00DD           02726         movwf ID_no
  00000804            02727 F1_000202 equ $ ; IN [ABRAR] GOSUB FP_Enroll
                      02728         f@call FP_Enroll
  00000806            02729 F1_000203 equ $ ; IN [ABRAR] if FP_error = 0 THEN
                      02730         set@page BC@LL70
0807   193A           02731         btfsc _B#VR2,2
0808   2823           02732         goto BC@LL70
  00000809            02733 F1_000204 equ $ ; IN [ABRAR] CLS
                      02734         f@call LCD@CLS
  0000080B            02735 F1_000205 equ $ ; IN [ABRAR] PRINT AT 1,1,"ADD ID #: ", DEC ID
080B   3080           02736         movlw 128
080C   00A1           02737         movwf BPFH
                      02738         f@call LCD@CRS
080F   3008           02739         movlw high (STR@LB11)
0810   00A6           02740         movwf GEN4H
0811   30AD           02741         movlw low (STR@LB11)
                      02742         f@call C@STROUT
0814   0838           02743         movf ID,W
                      02744         f@call OUT@DECB
  00000817            02745 F1_000206 equ $ ; IN [ABRAR] PRINT AT 2,1,"SUCCESSFULL."
0817   3080           02746         movlw 128
0818   00A1           02747         movwf BPFH
0819   30C0           02748         movlw 192
                      02749         f@call LCD@CRS
081C   3008           02750         movlw high (STR@LB12)
081D   00A6           02751         movwf GEN4H
081E   30C3           02752         movlw low (STR@LB12)
                      02753         f@call C@STROUT
                      02754         F@JUMP BC@LL71
0823                  02755 BC@LL70
  00000823            02756 F1_000207 equ $ ; IN [ABRAR] else
  00000823            02757 F1_000208 equ $ ; IN [ABRAR] GOSUB Error_FP
                      02758         f@call Error_FP
  00000825            02759 F1_000209 equ $ ; IN [ABRAR] endif
0825                  02760 BC@LL71
  00000825            02761 F1_000210 equ $ ; IN [ABRAR] GOSUB delay_2000
                      02762         f@call delay_2000
  00000827            02763 F1_000211 equ $ ; IN [ABRAR] GOSUB default_LCD
                      02764         f@call default_LCD
0829                  02765 Error_FP
  00000829            02766 F1_000216 equ $ ; IN [ABRAR] CLS
                      02767         f@call LCD@CLS
  0000082B            02768 F1_000217 equ $ ; IN [ABRAR] PRINT AT 2,1,"SOMETHING WRONG."
082B   3080           02769         movlw 128
082C   00A1           02770         movwf BPFH
082D   30C0           02771         movlw 192
                      02772         f@call LCD@CRS
0830   3008           02773         movlw high (STR@LB13)
0831   00A6           02774         movwf GEN4H
0832   30D0           02775         movlw low (STR@LB13)
                      02776         f@call C@STROUT
  00000835            02777 F1_000218 equ $ ; IN [ABRAR] GOSUB delay_2000
                      02778         f@call delay_2000
  00000837            02779 F1_000219 equ $ ; IN [ABRAR] GOSUB default_LCD
                      02780         f@call default_LCD
0839                  02781 delay_200
  00000839            02782 F1_000222 equ $ ; IN [ABRAR] DELAYMS 200
0839   30C8           02783         movlw 200
                      02784         f@call DL@MS
  0000083C            02785 F1_000223 equ $ ; IN [ABRAR] return
083C   0008           02786         return
083D                  02787 delay_2000
  0000083D            02788 F1_000226 equ $ ; IN [ABRAR] DELAYMS 2000
083D   3007           02789         movlw 7
083E   00AC           02790         movwf PP1H
083F   30D0           02791         movlw 208
                      02792         f@call DLY@W
  00000842            02793 F1_000227 equ $ ; IN [ABRAR] return
0842   0008           02794         return
0843                  02795 default_LCD
  00000843            02796 F1_000230 equ $ ; IN [ABRAR] CLS
                      02797         f@call LCD@CLS
  00000845            02798 F1_000232 equ $ ; IN [ABRAR] PRINT AT 1,1,"S.A SYSTEM D: "
0845   3080           02799         movlw 128
0846   00A1           02800         movwf BPFH
                      02801         f@call LCD@CRS
0849   3008           02802         movlw high (STR@LB14)
084A   00A6           02803         movwf GEN4H
084B   30E1           02804         movlw low (STR@LB14)
                      02805         f@call C@STROUT
  0000084E            02806 F1_000233 equ $ ; IN [ABRAR] PRINT AT 2,1,"ADD  PSNT  Check"
084E   3080           02807         movlw 128
084F   00A1           02808         movwf BPFH
0850   30C0           02809         movlw 192
                      02810         f@call LCD@CRS
0853   3008           02811         movlw high (STR@LB15)
0854   00A6           02812         movwf GEN4H
0855   30F0           02813         movlw low (STR@LB15)
                      02814         f@call C@STROUT
  00000858            02815 F1_000234 equ $ ; IN [ABRAR] goto start
                      02816         F@JUMP start
  0000085A            02817 F1_EOF equ $ ; ABRAR
085A                  02818 PB@LB73
                      02819         F@JUMP PB@LB73
085C                  02821 STR@LB1
085C   0050 006C 0065 02822         de 80,108,101,97,115,101,32,119,97,105,116,46,46,0
       0061 0073 0065 
       0020 0077 0061 
       0069 0074 002E 
       002E 0000 
086A                  02823 STR@LB2
086A   0053 0065 006E 02824         de 83,101,110,100,105,110,103,32,83,77,83,46,46,0
       0064 0069 006E 
       0067 0020 0053 
       004D 0053 002E 
       002E 0000 
0878                  02825 STR@LB3
0878                  02826 STR@LB10
0878   0050 0075 0074 02827         de 80,117,116,32,121,111,117,114,32,70,105,110,103,101,114,46,0
       0020 0079 006F 
       0075 0072 0020 
       0046 0069 006E 
       0067 0065 0072 
       002E 0000 
0889                  02828 STR@LB4
0889   0041 006C 0072 02829         de 65,108,114,101,97,100,121,32,112,114,101,115,101,110,116,46,0
       0065 0061 0064 
       0079 0020 0070 
       0072 0065 0073 
       0065 006E 0074 
       002E 0000 
089A                  02830 STR@LB5
089A                  02831 STR@LB6
089A   0049 0044 0020 02832         de 73,68,32,35,58,32,0
       0023 003A 0020 
       0000 
08A1                  02833 STR@LB7
08A1   0050 0072 0065 02834         de 80,114,101,115,101,110,116,32,35,58,32,0
       0073 0065 006E 
       0074 0020 0023 
       003A 0020 0000 
08AD                  02835 STR@LB8
08AD                  02836 STR@LB11
08AD   0041 0044 0044 02837         de 65,68,68,32,73,68,32,35,58,32,0
       0020 0049 0044 
       0020 0023 003A 
       0020 0000 
08B8                  02838 STR@LB9
08B8   0043 006F 006E 02839         de 67,111,110,102,105,114,109,46,46,63,0
       0066 0069 0072 
       006D 002E 002E 
       003F 0000 
08C3                  02840 STR@LB12
08C3   0053 0075 0063 02841         de 83,117,99,99,101,115,115,102,117,108,108,46,0
       0063 0065 0073 
       0073 0066 0075 
       006C 006C 002E 
       0000 
08D0                  02842 STR@LB13
08D0   0053 006F 006D 02843         de 83,111,109,101,116,104,105,110,103,32,87,114,111,110,103,46,0
       0065 0074 0068 
       0069 006E 0067 
       0020 0057 0072 
       006F 006E 0067 
       002E 0000 
08E1                  02844 STR@LB14
08E1   0053 002E 0041 02845         de 83,46,65,32,83,121,115,116,101,109,32,68,58,32,0
       0020 0053 0079 
       0073 0074 0065 
       006D 0020 0044 
       003A 0020 0000 
08F0                  02846 STR@LB15
08F0   0041 0044 0044 02847         de 65,68,68,32,32,80,115,110,116,32,32,67,104,101,99,107,0
       0020 0020 0050 
       0073 006E 0074 
       0020 0020 0043 
       0068 0065 0063 
       006B 0000 
0901                  02848 __EOF
2007   3FAA           02849 __config FOSC_HS&WDTE_OFF&PWRTE_OFF&CP_ON&BOREN_OFF
                      02850         end
MPASM  5.42                               A.S   9-22-2016  5:52:59         PAGE  2


SYMBOL TABLE
  LABEL                             VALUE 

ADCON0                            0000001F
ADCON1                            0000009F
ADCS0                             00000006
ADCS1                             00000007
ADD                               PORTC,0
ADDING                            000007F8
ADD_ID                            000007C2
ADIE                              00000006
ADIF                              00000006
ADON                              00000000
ADRES                             0000001E
BANK0_END                         0X7F
BANK0_START                       0X20
BANK1_END                         0X00FF
BANK1_START                       0X00A0
BANK2_END                         0X0120
BANK2_START                       0X0110
BANK3_END                         0X01A0
BANK3_START                       0X0190
BC@LL10                           000002ED
BC@LL12                           00000355
BC@LL14                           000003B3
BC@LL16                           00000412
BC@LL18                           0000048D
BC@LL2                            00000177
BC@LL20                           000004FC
BC@LL22                           0000055A
BC@LL24                           000005C0
BC@LL26                           000005ED
BC@LL28                           000005FC
BC@LL30                           000005FC
BC@LL32                           0000060E
BC@LL34                           00000615
BC@LL39                           00000657
BC@LL4                            000001D6
BC@LL41                           00000768
BC@LL42                           00000766
BC@LL43                           0000068F
BC@LL44                           000006A5
BC@LL45                           000006BB
BC@LL46                           000006D1
BC@LL47                           000006E7
BC@LL48                           000006FD
BC@LL49                           00000713
BC@LL50                           00000729
BC@LL51                           0000073F
BC@LL52                           00000755
BC@LL53                           00000766
BC@LL54                           0000076A
BC@LL56                           000007B9
BC@LL58                           000007B7
BC@LL6                            00000232
BC@LL60                           000007C0
BC@LL62                           000007E8
BC@LL64                           000007E6
BC@LL66                           000007EF
BC@LL68                           000007F6
BC@LL70                           00000823
BC@LL71                           00000825
BC@LL8                            00000291
BF                                00000000
BIT_BIT                           
BIT_BYTE                          
BIT_DWORD                         
BIT_WORD                          
BIT_WREG                          
BODEN_OFF                         00003FBF
BODEN_ON                          00003FFF
BOREN_OFF                         00003FBF
BOREN_ON                          00003FFF
BPF                               00000020
BPFH                              00000021
BRGH                              00000002
BUZZ                              PORTC,4
BYTE_BIT                          
BYTE_BYTE                         
BYTE_DWORD                        
BYTE_WORD                         
BYTE_WREG                         
C                                 00000000
C@READ                            000000B8
C@STROUT                          000000A5
C@STROUTLP                        000000A7
C@STROUTW                         000000A6
CCP1CON                           00000017
CCP1IE                            00000002
CCP1IF                            00000002
CCP1M0                            00000000
CCP1M1                            00000001
CCP1M2                            00000002
CCP1M3                            00000003
CCP1X                             00000005
CCP1Y                             00000004
CCP2CON                           0000001D
CCP2IE                            00000000
CCP2IF                            00000000
CCP2M0                            00000000
CCP2M1                            00000001
CCP2M2                            00000002
CCP2M3                            00000003
CCP2X                             00000005
CCP2Y                             00000004
CCPR1H                            00000016
CCPR1L                            00000015
CCPR1LH                           00000016
CCPR2H                            0000001C
CCPR2L                            0000001B
CCPR2LH                           0000001C
CH@SND                            000000A0
CHANGE                            PORTC,1
CHECK                             PORTC,2
CHECKING                          00000788
CHECKSUM                          0000005E
CHECK_ID                          00000785
CHS0                              00000003
CHS1                              00000004
CHS2                              00000005
CKE                               00000006
CKP                               00000004
CL@R                              000000C0
CLEAR_ID                          0000065F
CLS                               00000003
CONFIG_REQ                        1
CONFIRM                           000007C4
CP_ALL                            00003FEF
CP_OFF                            00003FFF
CP_ON                             00003FEF
CREN                              00000004
CSRC                              00000007
CSTR#CT                           00000022
CT@LB38                           00000657
CURRENT@PAGE                      00000000
CURS@                             0000000D
D@DIG                             0000002B
D@VD                              000000E3
D@VD2                             000000E5
DATA_ADDRESS                      00000005
DAYS                              00000045
DAY_OVER                          PORTC,3
DC                                00000001
DEFAULT_LCD                       00000843
DELAY                             00000046
DELAY_200                         00000839
DELAY_2000                        0000083D
DEST@PAGE                         00000000
DL@MS                             000000C6
DL@US                             000000D3
DLUS@W                            000000D4
DLY@P                             000000C8
DLY@W                             000000C7
DWORD_BIT                         
DWORD_BYTE                        
DWORD_DWORD                       
DWORD_WORD                        
DWORD_WREG                        
D_A                               00000005
EEADR                             0000010D
EEADRH                            0000010F
EECON1                            0000018C
EEDAT                             0000010C
EEDATA                            0000010C
EEDATH                            0000010E
EEDATL                            0000010C
EEDATLH                           0000010E
ERROR_FP                          00000829
EX@SEND@IT                        00000043
F1_000021                         0000010D
F1_000028                         00000110
F1_000029                         00000112
F1_000030                         00000114
F1_000047                         00000116
F1_000052                         000005C3
F1_000053                         000005CD
F1_000054                         000005CE
F1_000055                         000005CF
F1_000056                         000005D1
F1_000057                         000005DB
F1_000058                         000005DD
F1_000059                         000005E2
F1_000060                         000005E4
F1_000063                         000005E6
F1_000064                         000005ED
F1_000065                         000005F0
F1_000066                         000005F2
F1_000067                         000005F3
F1_000068                         000005F5
F1_000069                         000005FC
F1_000070                         000005FC
F1_000071                         00000607
F1_000072                         0000060E
F1_000073                         00000615
F1_000076                         00000617
F1_000077                         00000619
F1_000078                         0000061B
F1_000079                         00000624
F1_000080                         0000062A
F1_000081                         00000633
F1_000082                         0000064A
F1_000083                         00000652
F1_000084                         00000657
F1_000085                         00000657
F1_000086                         0000065C
F1_000087                         0000065D
F1_000090                         0000065F
F1_000091                         00000661
F1_000092                         00000663
F1_000093                         00000665
F1_000094                         00000667
F1_000095                         00000669
F1_000098                         0000066A
F1_000099                         0000066C
F1_000100                         00000675
F1_000101                         00000677
F1_000102                         0000067A
F1_000103                         00000686
F1_000104                         00000688
F1_000105                         00000689
F1_000106                         0000068B
F1_000107                         0000068F
F1_000108                         0000069C
F1_000109                         0000069E
F1_000110                         0000069F
F1_000111                         000006A1
F1_000112                         000006A5
F1_000113                         000006B2
F1_000114                         000006B4
F1_000115                         000006B5
F1_000116                         000006B7
F1_000117                         000006BB
F1_000118                         000006C8
F1_000119                         000006CA
F1_000120                         000006CB
F1_000121                         000006CD
F1_000122                         000006D1
F1_000123                         000006DE
F1_000124                         000006E0
F1_000125                         000006E1
F1_000126                         000006E3
F1_000127                         000006E7
F1_000128                         000006F4
F1_000129                         000006F6
F1_000130                         000006F7
F1_000131                         000006F9
F1_000132                         000006FD
F1_000133                         0000070A
F1_000134                         0000070C
F1_000135                         0000070D
F1_000136                         0000070F
F1_000137                         00000713
F1_000138                         00000720
F1_000139                         00000722
F1_000140                         00000723
F1_000141                         00000725
F1_000142                         00000729
F1_000143                         00000736
F1_000144                         00000738
F1_000145                         00000739
F1_000146                         0000073B
F1_000147                         0000073F
F1_000148                         0000074C
F1_000149                         0000074E
F1_000150                         0000074F
F1_000151                         00000751
F1_000152                         00000755
F1_000153                         00000755
F1_000154                         00000757
F1_000155                         00000758
F1_000156                         00000761
F1_000157                         00000763
F1_000158                         00000764
F1_000159                         00000766
F1_000160                         00000768
F1_000161                         00000768
F1_000162                         0000076A
F1_000165                         0000076A
F1_000166                         0000076C
F1_000167                         00000778
F1_000168                         00000784
F1_000171                         00000785
F1_000172                         00000787
F1_000174                         00000788
F1_000175                         00000797
F1_000176                         000007AA
F1_000177                         000007AD
F1_000178                         000007AF
F1_000179                         000007B0
F1_000180                         000007B7
F1_000181                         000007B9
F1_000182                         000007B9
F1_000183                         000007C0
F1_000186                         000007C2
F1_000188                         000007C4
F1_000189                         000007D0
F1_000190                         000007DA
F1_000191                         000007DD
F1_000192                         000007DF
F1_000193                         000007E0
F1_000194                         000007E6
F1_000195                         000007E8
F1_000196                         000007E8
F1_000197                         000007EF
F1_000198                         000007F6
F1_000200                         000007F8
F1_000201                         00000802
F1_000202                         00000804
F1_000203                         00000806
F1_000204                         00000809
F1_000205                         0000080B
F1_000206                         00000817
F1_000207                         00000823
F1_000208                         00000823
F1_000209                         00000825
F1_000210                         00000825
F1_000211                         00000827
F1_000216                         00000829
F1_000217                         0000082B
F1_000218                         00000835
F1_000219                         00000837
F1_000222                         00000839
F1_000223                         0000083C
F1_000226                         0000083D
F1_000227                         00000842
F1_000230                         00000843
F1_000232                         00000845
F1_000233                         0000084E
F1_000234                         00000858
F1_EOF                            0000085A
F1_SOF                            0000010D
F2_EOF                            0000010D
F2_SOF                            0000010D
F3_000010                         00000119
F3_000013                         0000011A
F3_000014                         0000011B
F3_000015                         0000013F
F3_000016                         0000016F
F3_000017                         00000177
F3_000018                         0000019E
F3_000019                         000001CE
F3_000021                         000001D6
F3_000022                         000001FA
F3_000023                         0000022A
F3_000024                         00000232
F3_000025                         00000259
F3_000026                         00000289
F3_000027                         00000291
F3_000028                         000002B5
F3_000029                         000002E5
F3_000030                         000002ED
F3_000031                         000002F0
F3_000032                         0000031D
F3_000033                         0000034D
F3_000034                         00000355
F3_000037                         00000356
F3_000038                         00000357
F3_000039                         0000037B
F3_000040                         000003AB
F3_000041                         000003B3
F3_000042                         000003DA
F3_000043                         0000040A
F3_000044                         00000412
F3_000045                         00000445
F3_000046                         00000485
F3_000047                         0000048D
F3_000048                         0000048F
F3_000051                         00000490
F3_000052                         00000491
F3_000053                         00000494
F3_000054                         000004C4
F3_000055                         000004F4
F3_000056                         000004FC
F3_000059                         000004FD
F3_000060                         000004FE
F3_000061                         00000522
F3_000062                         00000552
F3_000063                         0000055A
F3_000066                         0000055B
F3_000067                         0000055C
F3_000068                         00000580
F3_000069                         000005B8
F3_000070                         000005C0
F3_000071                         000005C2
F3_EOF                            000005C3
F3_SOF                            00000119
F@CALL                            
F@JUMP                            
FERR                              00000002
FIND@PAGE                         
FOSC_HS                           00003FFE
FOSC_LP                           00003FFC
FOSC_RC                           00003FFF
FOSC_XT                           00003FFD
FP_DELETE_ALL                     000004FD
FP_DELETE_ID                      00000490
FP_ENROLL                         0000011A
FP_ERROR                          _B#VR2,2
FP_INIT                           00000119
FP_SEARCH                         00000356
FP_TOTAL_ID                       0000055B
FR@LB36                           00000625
FSR                               00000004
GEN                               00000023
GEN3H                             00000024
GEN4                              00000025
GEN4H                             00000026
GET_ID                            0000005C
GIE                               00000007
GO                                00000002
GO_DONE                           00000002
H@RSIN                            00000098
HRSIN                             00000093
HRSOUT                            0000009B
HSERIAL_BAUD                      0000E100
HSERIAL_RCSTA                     00000090
HSERIAL_SPBRG                     00000015
HSERIAL_TXSTA                     00000024
HS_OSC                            00003FFE
I2C_DATA                          00000005
I2C_READ                          00000002
I2C_START                         00000003
I2C_STOP                          00000004
I@NT                              000000FF
I@NT2                             00000100
ID                                00000038
IDS                               0000005F
ID_0                              _B#VR1,0
ID_1                              _B#VR1,1
ID_2                              _B#VR1,2
ID_3                              _B#VR1,3
ID_4                              _B#VR1,4
ID_5                              _B#VR1,5
ID_6                              _B#VR1,6
ID_7                              _B#VR1,7
ID_8                              _B#VR2,0
ID_9                              _B#VR2,1
ID_NO                             0000005D
INDF                              00000000
INTCON                            0000000B
INTE                              00000004
INTEDG                            00000006
INTF                              00000001
IRP                               00000007
JUMP                              
LABEL_WORD                        
LCD#DTPIN                         4
LCD#DTPORT                        PORTB
LCD#ENPIN                         3
LCD#ENPORT                        PORTB
LCD#INTERFACE                     4
LCD#RSPIN                         2
LCD#RSPORT                        PORTB
LCD#TYPE                          0
LCD@CLS                           00000001
LCD@CRS                           0000000B
LP_OSC                            00003FFC
MAIN                              000005C3
NOT_A                             00000005
NOT_ADDRESS                       00000005
NOT_BO                            00000000
NOT_BOR                           00000000
NOT_DONE                          00000002
NOT_PD                            00000003
NOT_POR                           00000001
NOT_RBPU                          00000007
NOT_RC8                           00000006
NOT_T1SYNC                        00000002
NOT_TO                            00000004
NOT_TX8                           00000006
NOT_W                             00000002
NOT_WRITE                         00000002
NUM_BIT                           
NUM_BYTE                          
NUM_DWORD                         
NUM_FSR                           
NUM_WORD                          
NUM_WREG                          
NX@LB37                           0000065C
OERR                              00000001
OPTION_REG                        00000081
OUT@DEC                           00000015
OUT@DECB                          00000012
OUT@DECC                          00000013
PB@LB73                           0000085A
PBP#VAR0                          00000027
PBP#VAR1                          00000028
PCFG0                             00000000
PCFG1                             00000001
PCFG2                             00000002
PCL                               00000002
PCLATH                            0000000A
PCON                              0000008E
PDESTINATION@PAGE                 00000000
PEIE                              00000006
PIE1                              0000008C
PIE2                              0000008D
PIR1                              0000000C
PIR2                              0000000D
PMADR                             0000010D
PMADRH                            0000010F
PMCON1                            0000018C
PMDATA                            0000010C
PMDATH                            0000010E
PMDATL                            0000010C
PMDATLH                           0000010E
PORTA                             00000005
PORTB                             00000006
PORTC                             00000007
PP0                               00000029
PP0H                              0000002A
PP1                               0000002B
PP1H                              0000002C
PP2                               0000002D
PP2H                              0000002E
PP3                               0000002F
PP3H                              00000030
PP4                               00000031
PP5                               00000032
PP6                               00000033
PP6H                              00000034
PP7                               00000035
PP7H                              00000036
PP_BF                             00000000
PP_CREN                           00000004
PP_GO_DONE                        00000002
PP_OERR                           00000001
PP_RCIF                           00000005
PP_RD                             00000000
PP_R_W                            00000002
PP_T2CKPS0                        00000000
PP_T2CKPS1                        00000001
PP_TMR2ON                         00000002
PP_TXIF                           00000004
PR2                               00000092
PR@EX                             00000091
PR@LP                             00000082
PRESENT                           0000066A
PRESENT_SHOW                      0000076A
PRINT                             00000044
PRIT@SKP                          0000007C
PROTON#CODE#START                 00000000
PROTON#MAIN#START                 00000103
PRSNT                             0000003B
PRSNT#0                           0000003B
PRSNT#1                           0000003C
PRSNT#2                           0000003D
PRSNT#3                           0000003E
PRSNT#4                           0000003F
PRSNT#5                           00000040
PRSNT#6                           00000041
PRSNT#7                           00000042
PRSNT#8                           00000043
PRSNT#9                           00000044
PRT@1                             0000006E
PRT@C                             0000006D
PRT@S                             00000081
PS0                               00000000
PS1                               00000001
PS2                               00000002
PSA                               00000003
PWRTE_OFF                         00003FFF
PWRTE_ON                          00003FF7
R@B                               
RAM_BANK                          00000000
RAM_BANKS                         2
RBIE                              00000003
RBIF                              00000000
RC8_9                             00000006
RC9                               00000006
RCD8                              00000000
RCIE                              00000005
RCIF                              00000005
RCREG                             0000001A
RCSTA                             00000018
RC_OSC                            00003FFF
RD                                00000000
READ_WRITE                        00000002
RECHECK                           000001D6
RP0                               00000005
RP1                               00000006
RX9                               00000006
RX9D                              00000000
RXD                               00000047
RXD#0                             00000047
RXD#1                             00000048
RXD#10                            00000051
RXD#11                            00000052
RXD#12                            00000053
RXD#13                            00000054
RXD#14                            00000055
RXD#15                            00000056
RXD#16                            00000057
RXD#17                            00000058
RXD#18                            00000059
RXD#19                            0000005A
RXD#2                             00000049
RXD#3                             0000004A
RXD#4                             0000004B
RXD#5                             0000004C
RXD#6                             0000004D
RXD#7                             0000004E
RXD#8                             0000004F
RXD#9                             00000050
R_W                               00000002
S@B                               
SEND@IT                           00000032
SEND_SMS                          00000617
SET@PAGE                          
SMP                               00000007
SP#P9                             00000037
SPBRG                             00000099
SPEN                              00000007
SREN                              00000005
SSPADD                            00000093
SSPBUF                            00000013
SSPCON                            00000014
SSPEN                             00000005
SSPIE                             00000003
SSPIF                             00000003
SSPM0                             00000000
SSPM1                             00000001
SSPM2                             00000002
SSPM3                             00000003
SSPOV                             00000006
SSPSTAT                           00000094
START                             000005E6
STATUS                            00000003
STR@LB1                           0000085C
STR@LB10                          00000878
STR@LB11                          000008AD
STR@LB12                          000008C3
STR@LB13                          000008D0
STR@LB14                          000008E1
STR@LB15                          000008F0
STR@LB2                           0000086A
STR@LB3                           00000878
STR@LB4                           00000889
STR@LB5                           0000089A
STR@LB6                           0000089A
STR@LB7                           000008A1
STR@LB8                           000008AD
STR@LB9                           000008B8
SYNC                              00000004
T0CS                              00000005
T0IE                              00000005
T0IF                              00000002
T0SE                              00000004
T1CKPS0                           00000004
T1CKPS1                           00000005
T1CON                             00000010
T1INSYNC                          00000002
T1OSCEN                           00000003
T2CKPS0                           00000000
T2CKPS1                           00000001
T2CON                             00000012
TMR0                              00000001
TMR1CS                            00000001
TMR1H                             0000000F
TMR1IE                            00000000
TMR1IF                            00000000
TMR1L                             0000000E
TMR1LH                            0000000F
TMR1ON                            00000000
TMR2                              00000011
TMR2IE                            00000001
TMR2IF                            00000001
TMR2ON                            00000002
TOUTPS0                           00000003
TOUTPS1                           00000004
TOUTPS2                           00000005
TOUTPS3                           00000006
TRISA                             00000085
TRISB                             00000086
TRISC                             00000087
TRMT                              00000001
TX8_9                             00000006
TX9                               00000006
TX9D                              00000000
TXD8                              00000000
TXEN                              00000005
TXIE                              00000004
TXIF                              00000004
TXREG                             00000019
TXSTA                             00000098
UA                                00000001
WCOL                              00000007
WDTE_OFF                          00003FFB
WDTE_ON                           00003FFF
WDT_OFF                           00003FFB
WDT_ON                            00003FFF
WORD_BIT                          
WORD_BYTE                         
WORD_DWORD                        
WORD_WORD                         
WORD_WREG                         
WREG_BIT                          
WREG_BYTE                         
WREG_DWORD                        
WREG_WORD                         
XTAL                              20
XT_OSC                            00003FFD
Z                                 00000002
_ADC                              5
_ADC_RES                          8
_B#VR1                            00000039
_B#VR2                            0000003A
_BANKS                            3
_CORE                             14
_CWRITE_BLOCK                     0
_EEPROM                           0
_FLASH                            2
_I2C_SCL_PIN                      00000003
_I2C_SCL_PORT                     00000087
_I2C_SDA_PIN                      00000004
_I2C_SDA_PORT                     00000087
_MAXMEM                           4096
_MAXRAM                           192
_PAGES                            2
_RAM_END                          0X00C0
_SYSTEM_VARIABLE_COUNT            24
_USART                            1
_USB                              0
_X                                0000005B
__16F73                           1
__EOF                             00000901
__HSERIAL_BAUD                    57600
__HSERIAL_RCSTA                   144
__HSERIAL_TXSTA                   36
__LCD_DTPIN                       4
__LCD_DTPORT                      PORTB
__LCD_ENPIN                       3
__LCD_ENPORT                      PORTB
__LCD_INTERFACE                   4
__LCD_RSPIN                       2
__LCD_RSPORT                      PORTB
__XTAL                            20


MEMORY USAGE MAP ('X' = USED,  '-' = UNUSED)

0000 : XXXXXXXXXXXXXXXX XXXXXXXXXXXXXXXX XXXXXXXXXXXXXXXX XXXXXXXXXXXXXXXX
0040 : XXXXXXXXXXXXXXXX XXXXXXXXXXXXXXXX XXXXXXXXXXXXXXXX XXXXXXXXXXXXXXXX
0080 : XXXXXXXXXXXXXXXX XXXXXXXXXXXXXXXX XXXXXXXXXXXXXXXX XXXXXXXXXXXXXXXX
00C0 : XXXXXXXXXXXXXXXX XXXXXXXXXXXXXXXX XXXXXXXXXXXXXXXX XXXXXXXXXXXXXXXX
0100 : XXXXXXXXXXXXXXXX XXXXXXXXXXXXXXXX XXXXXXXXXXXXXXXX XXXXXXXXXXXXXXXX
0140 : XXXXXXXXXXXXXXXX XXXXXXXXXXXXXXXX XXXXXXXXXXXXXXXX XXXXXXXXXXXXXXXX
0180 : XXXXXXXXXXXXXXXX XXXXXXXXXXXXXXXX XXXXXXXXXXXXXXXX XXXXXXXXXXXXXXXX
01C0 : XXXXXXXXXXXXXXXX XXXXXXXXXXXXXXXX XXXXXXXXXXXXXXXX XXXXXXXXXXXXXXXX
0200 : XXXXXXXXXXXXXXXX XXXXXXXXXXXXXXXX XXXXXXXXXXXXXXXX XXXXXXXXXXXXXXXX
0240 : XXXXXXXXXXXXXXXX XXXXXXXXXXXXXXXX XXXXXXXXXXXXXXXX XXXXXXXXXXXXXXXX
0280 : XXXXXXXXXXXXXXXX XXXXXXXXXXXXXXXX XXXXXXXXXXXXXXXX XXXXXXXXXXXXXXXX
02C0 : XXXXXXXXXXXXXXXX XXXXXXXXXXXXXXXX XXXXXXXXXXXXXXXX XXXXXXXXXXXXXXXX
0300 : XXXXXXXXXXXXXXXX XXXXXXXXXXXXXXXX XXXXXXXXXXXXXXXX XXXXXXXXXXXXXXXX
0340 : XXXXXXXXXXXXXXXX XXXXXXXXXXXXXXXX XXXXXXXXXXXXXXXX XXXXXXXXXXXXXXXX
0380 : XXXXXXXXXXXXXXXX XXXXXXXXXXXXXXXX XXXXXXXXXXXXXXXX XXXXXXXXXXXXXXXX
03C0 : XXXXXXXXXXXXXXXX XXXXXXXXXXXXXXXX XXXXXXXXXXXXXXXX XXXXXXXXXXXXXXXX
0400 : XXXXXXXXXXXXXXXX XXXXXXXXXXXXXXXX XXXXXXXXXXXXXXXX XXXXXXXXXXXXXXXX
0440 : XXXXXXXXXXXXXXXX XXXXXXXXXXXXXXXX XXXXXXXXXXXXXXXX XXXXXXXXXXXXXXXX
0480 : XXXXXXXXXXXXXXXX XXXXXXXXXXXXXXXX XXXXXXXXXXXXXXXX XXXXXXXXXXXXXXXX
04C0 : XXXXXXXXXXXXXXXX XXXXXXXXXXXXXXXX XXXXXXXXXXXXXXXX XXXXXXXXXXXXXXXX
0500 : XXXXXXXXXXXXXXXX XXXXXXXXXXXXXXXX XXXXXXXXXXXXXXXX XXXXXXXXXXXXXXXX
0540 : XXXXXXXXXXXXXXXX XXXXXXXXXXXXXXXX XXXXXXXXXXXXXXXX XXXXXXXXXXXXXXXX
0580 : XXXXXXXXXXXXXXXX XXXXXXXXXXXXXXXX XXXXXXXXXXXXXXXX XXXXXXXXXXXXXXXX
05C0 : XXXXXXXXXXXXXXXX XXXXXXXXXXXXXXXX XXXXXXXXXXXXXXXX XXXXXXXXXXXXXXXX
0600 : XXXXXXXXXXXXXXXX XXXXXXXXXXXXXXXX XXXXXXXXXXXXXXXX XXXXXXXXXXXXXXXX
0640 : XXXXXXXXXXXXXXXX XXXXXXXXXXXXXXXX XXXXXXXXXXXXXXXX XXXXXXXXXXXXXXXX
0680 : XXXXXXXXXXXXXXXX XXXXXXXXXXXXXXXX XXXXXXXXXXXXXXXX XXXXXXXXXXXXXXXX
06C0 : XXXXXXXXXXXXXXXX XXXXXXXXXXXXXXXX XXXXXXXXXXXXXXXX XXXXXXXXXXXXXXXX
0700 : XXXXXXXXXXXXXXXX XXXXXXXXXXXXXXXX XXXXXXXXXXXXXXXX XXXXXXXXXXXXXXXX
0740 : XXXXXXXXXXXXXXXX XXXXXXXXXXXXXXXX XXXXXXXXXXXXXXXX XXXXXXXXXXXXXXXX
0780 : XXXXXXXXXXXXXXXX XXXXXXXXXXXXXXXX XXXXXXXXXXXXXXXX XXXXXXXXXXXXXXXX
07C0 : XXXXXXXXXXXXXXXX XXXXXXXXXXXXXXXX XXXXXXXXXXXXXXXX XXXXXXXXXXXXXXXX
0800 : XXXXXXXXXXXXXXXX XXXXXXXXXXXXXXXX XXXXXXXXXXXXXXXX XXXXXXXXXXXXXXXX
0840 : XXXXXXXXXXXXXXXX XXXXXXXXXXXXXXXX XXXXXXXXXXXXXXXX XXXXXXXXXXXXXXXX
0880 : XXXXXXXXXXXXXXXX XXXXXXXXXXXXXXXX XXXXXXXXXXXXXXXX XXXXXXXXXXXXXXXX
08C0 : XXXXXXXXXXXXXXXX XXXXXXXXXXXXXXXX XXXXXXXXXXXXXXXX XXXXXXXXXXXXXXXX
0900 : X--------------- ---------------- ---------------- ----------------
2000 : -------X-------- ---------------- ---------------- ----------------

ALL OTHER MEMORY BLOCKS UNUSED.

PROGRAM MEMORY WORDS USED:  2305
PROGRAM MEMORY WORDS FREE:  1791


ERRORS   :     0
WARNINGS :     0 REPORTED,  2835 SUPPRESSED
MESSAGES :     1 REPORTED,    70 SUPPRESSED


