MPASM  5.42                               A.S   6-11-2017  22:21:12         PAGE  1


LOC  OBJECT CODE     LINE SOURCE TEXT
  VALUE


                      00002         list
                      00003 ;{
                      00004 ;FILE F1 = C:\USERS\ANTOR\GOOGLE~1\EMBEDD~1\TANVIR~1\PROJECTS\11931F~1.HOM\HS_SYS.BAS
                      00005 ;FILE F2 = C:\USERS\ANTOR\GOOGLE~1\EMBEDD~1\TANVIR~1\PROJECTS\11931F~1.HOM\HS_SYS.PRP
                      00006 ;FILE F3 = C:\USERS\ANTOR\GOOGLE DRIVE\EMBEDDED PROJECTS\TANVIR BHAI\PROJECTS\11. Home SECURITY SYSTEM A
                            DVANCED\FP_R305.INC
                      00007 ;FILE F4 = C:\USERS\ANTOR\GOOGLE DRIVE\EMBEDDED PROJECTS\TANVIR BHAI\PROJECTS\11. Home SECURITY SYSTEM A
                            DVANCED\KEYPAD4X4.INC
                      00008 ;}
                      00009 ;[Variable Listing]
                      00010 ;pos,0036,DT_BYTE,1
                      00011 ;vib_count,0037,DT_BYTE,1
                      00012 ;td,0038,DT_BYTE,1
                      00013 ;rd,0039,DT_BYTE,1
                      00014 ;password,003A,DT_BYTE,8
                      00015 ;RXD,0042,DT_BYTE,20
                      00016 ;get_ID,0056,DT_BYTE,1
                      00017 ;ID_no,0057,DT_BYTE,1
                      00018 ;checksum,0058,DT_BYTE,1
                      00019 ;IDs,0059,DT_BYTE,1
                      00020 ;key,005A,DT_BYTE,1
                      00021 ;key_value,005B,DT_BYTE,1
                      00022 ;A1,0008.1,DT_BIT
                      00023 ;A2,0008.2,DT_BIT
                      00024 ;B1,0007.5,DT_BIT
                      00025 ;motor,0009.2,DT_BIT
                      00026 ;buzz,0008.3,DT_BIT
                      00027 ;LDR,0007.3,DT_BIT
                      00028 ;PIR,0007.0,DT_BIT
                      00029 ;Smoke,0007.1,DT_BIT
                      00030 ;passMode,0008.0,DT_BIT
                      00031 ;vibrator,0008.7,DT_BIT
                      00032 ;check_point,0035.0,DT_BIT
                      00033 ;BT_mode,0039.0,DT_BIT
                      00034 ;BT_ok,0039.1,DT_BIT
                      00035 ;FP_error,0035.1,DT_BIT
                      00036 ;col_1,0005.3,DT_BIT
                      00037 ;col_2,0005.2,DT_BIT
                      00038 ;col_3,0005.1,DT_BIT
                      00039 ;col_4,0005.0,DT_BIT
                      00040 ;row_1,0009.1,DT_BIT
                      00041 ;row_2,0009.0,DT_BIT
                      00042 ;row_3,0005.5,DT_BIT
                      00043 ;row_4,0005.4,DT_BIT
                      00044 ;[End Listing]
                      00045 ;[TOTAL VARS] 60

                      00047 #define CONFIG_REQ 1
MESSAGE[308]: WARNING LEVEL SUPERSEDED BY COMMAND LINE VALUE. (2)
                      00048  LIST  P = 16F877A, F = INHX8M, W = 2, X = ON, R = DEC, MM = ON, N = 0, C = 255
  00000000            00049 INDF equ 0X0000
  00000001            00050 TMR0 equ 0X0001
  00000002            00051 PCL equ 0X0002
  00000003            00052 STATUS equ 0X0003
  00000004            00053 FSR equ 0X0004
  00000005            00054 PORTA equ 0X0005
  00000006            00055 PORTB equ 0X0006
  00000007            00056 PORTC equ 0X0007
  00000008            00057 PORTD equ 0X0008
  00000009            00058 PORTE equ 0X0009
  0000000A            00059 PCLATH equ 0X000A
  0000000B            00060 INTCON equ 0X000B
  0000000C            00061 PIR1 equ 0X000C
  0000000D            00062 PIR2 equ 0X000D
  0000000E            00063 TMR1L equ 0X000E
  0000000F            00064 TMR1LH equ 0X000F
  0000000F            00065 TMR1H equ 0X000F
  00000010            00066 T1CON equ 0X0010
  00000011            00067 TMR2 equ 0X0011
  00000012            00068 T2CON equ 0X0012
  00000013            00069 SSPBUF equ 0X0013
  00000014            00070 SSPCON equ 0X0014
  00000015            00071 CCPR1L equ 0X0015
  00000016            00072 CCPR1LH equ 0X0016
  00000016            00073 CCPR1H equ 0X0016
  00000017            00074 CCP1CON equ 0X0017
  00000018            00075 RCSTA equ 0X0018
  00000019            00076 TXREG equ 0X0019
  0000001A            00077 RCREG equ 0X001A
  0000001B            00078 CCPR2L equ 0X001B
  0000001C            00079 CCPR2LH equ 0X001C
  0000001C            00080 CCPR2H equ 0X001C
  0000001D            00081 CCP2CON equ 0X001D
  0000001E            00082 ADRESLH equ 0X001E
  0000001E            00083 ADRESH equ 0X001E
  0000001F            00084 ADCON0 equ 0X001F
  00000081            00085 OPTION_REG equ 0X0081
  00000085            00086 TRISA equ 0X0085
  00000086            00087 TRISB equ 0X0086
  00000087            00088 TRISC equ 0X0087
  00000088            00089 TRISD equ 0X0088
  00000089            00090 TRISE equ 0X0089
  0000008C            00091 PIE1 equ 0X008C
  0000008D            00092 PIE2 equ 0X008D
  0000008E            00093 PCON equ 0X008E
  00000091            00094 SSPCON2 equ 0X0091
  00000092            00095 PR2 equ 0X0092
  00000093            00096 SSPADD equ 0X0093
  00000094            00097 SSPSTAT equ 0X0094
  00000098            00098 TXSTA equ 0X0098
  00000099            00099 SPBRG equ 0X0099
  0000009C            00100 CMCON equ 0X009C
  0000009D            00101 CVRCON equ 0X009D
  0000009E            00102 ADRESL equ 0X009E
  0000009F            00103 ADCON1 equ 0X009F
  0000010C            00104 EEDATL equ 0X010C
  0000010C            00105 EEDATA equ 0X010C
  0000010C            00106 EEDAT equ 0X010C
  0000010D            00107 EEADR equ 0X010D
  0000010E            00108 EEDATLH equ 0X010E
  0000010E            00109 EEDATH equ 0X010E
  0000010F            00110 EEADRH equ 0X010F
  0000018C            00111 EECON1 equ 0X018C
  0000018D            00112 EECON2 equ 0X018D
  00000087            00113 _I2C_SCL_PORT=TRISC
  00000003            00114 _I2C_SCL_PIN=3
  00000087            00115 _I2C_SDA_PORT=TRISC
  00000004            00116 _I2C_SDA_PIN=4
  00000007            00117 IRP=7
  00000006            00118 RP1=6
  00000005            00119 RP0=5
  00000004            00120 NOT_TO=4
  00000003            00121 NOT_PD=3
  00000002            00122 Z=2
  00000001            00123 DC=1
  00000000            00124 C=0
  00000007            00125 GIE=7
  00000006            00126 PEIE=6
  00000005            00127 T0IE=5
  00000005            00128 TMR0IE=5
  00000004            00129 INTE=4
  00000003            00130 RBIE=3
  00000002            00131 T0IF=2
  00000002            00132 TMR0IF=2
  00000001            00133 INTF=1
  00000000            00134 RBIF=0
  00000007            00135 PSPIF=7
  00000006            00136 ADIF=6
  00000005            00137 RCIF=5
  00000005            00138 PP_RCIF=5
  00000004            00139 TXIF=4
  00000004            00140 PP_TXIF=4
  00000003            00141 SSPIF=3
  00000002            00142 CCP1IF=2
  00000001            00143 TMR2IF=1
  00000000            00144 TMR1IF=0
  00000006            00145 CMIF=6
  00000004            00146 EEIF=4
  00000003            00147 BCLIF=3
  00000000            00148 CCP2IF=0
  00000005            00149 T1CKPS1=5
  00000004            00150 T1CKPS0=4
  00000003            00151 T1OSCEN=3
  00000002            00152 NOT_T1SYNC=2
  00000002            00153 T1INSYNC=2
  00000002            00154 T1SYNC=2
  00000001            00155 TMR1CS=1
  00000000            00156 TMR1ON=0
  00000006            00157 TOUTPS3=6
  00000005            00158 TOUTPS2=5
  00000004            00159 TOUTPS1=4
  00000003            00160 TOUTPS0=3
  00000002            00161 TMR2ON=2
  00000002            00162 PP_TMR2ON=2
  00000001            00163 T2CKPS1=1
  00000001            00164 PP_T2CKPS1=1
  00000000            00165 T2CKPS0=0
  00000000            00166 PP_T2CKPS0=0
  00000007            00167 WCOL=7
  00000006            00168 SSPOV=6
  00000005            00169 SSPEN=5
  00000004            00170 CKP=4
  00000003            00171 SSPM3=3
  00000002            00172 SSPM2=2
  00000001            00173 SSPM1=1
  00000000            00174 SSPM0=0
  00000005            00175 CCP1X=5
  00000004            00176 CCP1Y=4
  00000003            00177 CCP1M3=3
  00000002            00178 CCP1M2=2
  00000001            00179 CCP1M1=1
  00000000            00180 CCP1M0=0
  00000007            00181 SPEN=7
  00000006            00182 RX9=6
  00000006            00183 RC9=6
  00000006            00184 NOT_RC8=6
  00000006            00185 RC8_9=6
  00000005            00186 SREN=5
  00000004            00187 CREN=4
  00000004            00188 PP_CREN=4
  00000003            00189 ADDEN=3
  00000002            00190 FERR=2
  00000001            00191 OERR=1
  00000001            00192 PP_OERR=1
  00000000            00193 RX9D=0
  00000000            00194 RCD8=0
  00000005            00195 CCP2X=5
  00000004            00196 CCP2Y=4
  00000003            00197 CCP2M3=3
  00000002            00198 CCP2M2=2
  00000001            00199 CCP2M1=1
  00000000            00200 CCP2M0=0
  00000007            00201 ADCS1=7
  00000006            00202 ADCS0=6
  00000005            00203 CHS2=5
  00000004            00204 CHS1=4
  00000003            00205 CHS0=3
  00000002            00206 GO=2
  00000002            00207 NOT_DONE=2
  00000002            00208 GO_DONE=2
  00000002            00209 PP_GO_DONE=2
  00000000            00210 ADON=0
  00000007            00211 NOT_RBPU=7
  00000006            00212 INTEDG=6
  00000005            00213 T0CS=5
  00000004            00214 T0SE=4
  00000003            00215 PSA=3
  00000002            00216 PS2=2
  00000001            00217 PS1=1
  00000000            00218 PS0=0
  00000007            00219 IBF=7
  00000006            00220 OBF=6
  00000005            00221 IBOV=5
  00000004            00222 PSPMODE=4
  00000002            00223 TRISE2=2
  00000001            00224 TRISE1=1
  00000000            00225 TRISE0=0
  00000007            00226 PSPIE=7
  00000006            00227 ADIE=6
  00000005            00228 RCIE=5
  00000004            00229 TXIE=4
  00000003            00230 SSPIE=3
  00000002            00231 CCP1IE=2
  00000001            00232 TMR2IE=1
  00000000            00233 TMR1IE=0
  00000006            00234 CMIE=6
  00000004            00235 EEIE=4
  00000003            00236 BCLIE=3
  00000000            00237 CCP2IE=0
  00000001            00238 NOT_POR=1
  00000000            00239 NOT_BO=0
  00000000            00240 NOT_BOR=0
  00000007            00241 GCEN=7
  00000006            00242 ACKSTAT=6
  00000006            00243 PP_ACKSTAT=6
  00000005            00244 ACKDT=5
  00000005            00245 PP_ACKDT=5
  00000004            00246 ACKEN=4
  00000004            00247 PP_ACKEN=4
  00000003            00248 RCEN=3
  00000003            00249 PP_RCEN=3
  00000002            00250 PEN=2
  00000002            00251 PP_PEN=2
  00000001            00252 RSEN=1
  00000001            00253 PP_RSEN=1
  00000000            00254 SEN=0
  00000000            00255 PP_SEN=0
  00000007            00256 SMP=7
  00000006            00257 CKE=6
  00000005            00258 I2C_DATA=5
  00000005            00259 NOT_A=5
  00000005            00260 NOT_ADDRESS=5
  00000005            00261 D_A=5
  00000005            00262 DATA_ADDRESS=5
  00000004            00263 I2C_STOP=4
  00000003            00264 I2C_START=3
  00000002            00265 I2C_READ=2
  00000002            00266 NOT_W=2
  00000002            00267 NOT_WRITE=2
  00000002            00268 R_W=2
  00000002            00269 PP_R_W=2
  00000002            00270 READ_WRITE=2
  00000001            00271 UA=1
  00000000            00272 BF=0
  00000000            00273 PP_BF=0
  00000007            00274 CSRC=7
  00000006            00275 TX9=6
  00000006            00276 NOT_TX8=6
  00000006            00277 TX8_9=6
  00000005            00278 TXEN=5
  00000004            00279 SYNC=4
  00000002            00280 BRGH=2
  00000001            00281 TRMT=1
  00000000            00282 TX9D=0
  00000000            00283 TXD8=0
  00000007            00284 C2OUT=7
  00000006            00285 C1OUT=6
  00000005            00286 C2INV=5
  00000004            00287 C1INV=4
  00000003            00288 CIS=3
  00000002            00289 CM2=2
  00000001            00290 CM1=1
  00000000            00291 CM0=0
  00000007            00292 CVREN=7
  00000006            00293 CVROE=6
  00000005            00294 CVRR=5
  00000003            00295 CVR3=3
  00000002            00296 CVR2=2
  00000001            00297 CVR1=1
  00000000            00298 CVR0=0
  00000007            00299 ADFM=7
  00000006            00300 ADCS2=6
  00000003            00301 PCFG3=3
  00000002            00302 PCFG2=2
  00000001            00303 PCFG1=1
  00000000            00304 PCFG0=0
  00000007            00305 EEPGD=7
  00000007            00306 PP_EEPGD=7
  00000003            00307 WRERR=3
  00000003            00308 PP_WRERR=3
  00000002            00309 WREN=2
  00000002            00310 PP_WREN=2
  00000001            00311 WR=1
  00000001            00312 PP_WR=1
  00000000            00313 rd=0
  00000000            00314 PP_RD=0
  000001FF            00315   __MAXRAM 0X1FF
                      00316   __BADRAM 0X8F-0X90, 0X95-0X97, 0X9A-0X9B
                      00317   __BADRAM 0X105, 0X107-0X109
                      00318   __BADRAM 0X185, 0X187-0X189, 0X18E-0X18F
  00001FFF            00319 CP_ALL equ 0X1FFF
  00003FFF            00320 CP_OFF equ 0X3FFF
  00003FFF            00321 DEBUG_OFF equ 0X3FFF
  000037FF            00322 DEBUG_ON equ 0X37FF
  00003BFF            00323 WRT_1FOURTH equ 0X3BFF
  00003FFF            00324 CPD_OFF equ 0X3FFF
  00003EFF            00325 CPD_ON equ 0X3EFF
  00003FFF            00326 LVP_ON equ 0X3FFF
  00003F7F            00327 LVP_OFF equ 0X3F7F
  00003FFF            00328 BODEN_ON equ 0X3FFF
  00003FBF            00329 BODEN_OFF equ 0X3FBF
  00003FFF            00330 PWRTE_OFF equ 0X3FFF
  00003FF7            00331 PWRTE_ON equ 0X3FF7
  00003FFF            00332 WDT_ON equ 0X3FFF
  00003FFB            00333 WDT_OFF equ 0X3FFB
  00003FFF            00334 RC_OSC equ 0X3FFF
  00003FFE            00335 HS_OSC equ 0X3FFE
  00003FFD            00336 XT_OSC equ 0X3FFD
  00003FFC            00337 LP_OSC equ 0X3FFC
  00003FBF            00338 BOREN_OFF equ 0X3FBF
  00003FFF            00339 BOREN_ON equ 0X3FFF
  00001FFF            00340 CP_ON equ 0X1FFF
  00003FFF            00341 FOSC_EXTRC equ 0X3FFF
  00003FFE            00342 FOSC_HS equ 0X3FFE
  00003FFC            00343 FOSC_LP equ 0X3FFC
  00003FFD            00344 FOSC_XT equ 0X3FFD
  00003FFB            00345 WDTE_OFF equ 0X3FFB
  00003FFF            00346 WDTE_ON equ 0X3FFF
  00003BFF            00347 WRT_1FOURTH equ 0X3BFF
  00003DFF            00348 WRT_256 equ 0X3DFF
  000039FF            00349 WRT_HALF equ 0X39FF
  00003FFF            00350 WRT_OFF equ 0X3FFF

                      00354 #define __16F877A 1
                      00355 #define XTAL 20
                      00356 #define _CORE 14
                      00357 #define _MAXRAM 368
                      00358 #define _RAM_END 0X0170
                      00359 #define _MAXMEM 8192
                      00360 #define _ADC 8
                      00361 #define _ADC_RES 10
                      00362 #define _EEPROM 256
                      00363 #define _PAGES 4
                      00364 #define _BANKS 3
                      00365 #define RAM_BANKS 4
                      00366 #define _USART 1
                      00367 #define _USB 0
                      00368 #define _FLASH 1
                      00369 #define _CWRITE_BLOCK 8
                      00370 #define BANK0_START 0X20
                      00371 #define BANK0_END 0X7F
                      00372 #define BANK1_START 0X00A0
                      00373 #define BANK1_END 0X00EF
                      00374 #define BANK2_START 0X0110
                      00375 #define BANK2_END 0X016F
                      00376 #define BANK3_START 0X0190
                      00377 #define BANK3_END 0X01EF
                      00378 #define _SYSTEM_VARIABLE_COUNT 21
  00000000            00379 ram_bank = 0
  00000000            00380 CURRENT@PAGE = 0
  00000000            00381 DEST@PAGE = 0
                      00382 #define LCD#DTPORT PORTB
                      00383 #define LCD#DTPIN 4
                      00384 #define LCD#RSPORT PORTB
                      00385 #define LCD#RSPIN 2
                      00386 #define LCD#ENPORT PORTB
                      00387 #define LCD#ENPIN 3
                      00388 #define LCD#INTERFACE 4
                      00389 #define LCD#TYPE 0
                      00391 f@call macro PDEST
                      00392 if(PDEST < 1)
                      00393 if((PDEST & 2048) == 0)
                      00394         bcf 10,3
                      00395 else
                      00396         bsf 10,3
                      00397 endif
                      00398 if((PDEST & 4096) == 0)
                      00399         bcf 10,4
                      00400 else
                      00401         bsf 10,4
                      00402 endif
                      00403 else
                      00404 if(PDEST > $)
                      00405 if((PDEST & 2048) == 0)
                      00406         bcf 10,3
                      00407 else
                      00408         bsf 10,3
                      00409 endif
                      00410 if((PDEST & 4096) == 0)
                      00411         bcf 10,4
                      00412 else
                      00413         bsf 10,4
                      00414 endif
                      00415 else
                      00416 if((PDEST & 6144) == 0)
                      00417         clrf 10
                      00418 else
                      00419 if((PDEST & 2048) == 0)
                      00420         bcf 10,3
                      00421 else
                      00422         bsf 10,3
                      00423 endif
                      00424 if((PDEST & 4096) == 0)
                      00425         bcf 10,4
                      00426 else
                      00427         bsf 10,4
                      00428 endif
                      00429 endif
                      00430 endif
                      00431 endif
                      00432         call PDEST
                      00433         endm
                      00434 F@JUMP macro PDEST
                      00435 if(PDEST < 1)
                      00436 if((PDEST & 2048) == 0)
                      00437         bcf 10,3
                      00438 else
                      00439         bsf 10,3
                      00440 endif
                      00441 if((PDEST & 4096) == 0)
                      00442         bcf 10,4
                      00443 else
                      00444         bsf 10,4
                      00445 endif
                      00446 else
                      00447 if(PDEST > $)
                      00448 if((PDEST & 2048) == 0)
                      00449         bcf 10,3
                      00450 else
                      00451         bsf 10,3
                      00452 endif
                      00453 if((PDEST & 4096) == 0)
                      00454         bcf 10,4
                      00455 else
                      00456         bsf 10,4
                      00457 endif
                      00458 else
                      00459 if((PDEST & 6144) == 0)
                      00460         clrf 10
                      00461 else
                      00462 if((PDEST & 2048) == 0)
                      00463         bcf 10,3
                      00464 else
                      00465         bsf 10,3
                      00466 endif
                      00467 if((PDEST & 4096) == 0)
                      00468         bcf 10,4
                      00469 else
                      00470         bsf 10,4
                      00471 endif
                      00472 endif
                      00473 endif
                      00474 endif
                      00475         goto PDEST
                      00476         endm
                      00477 set@page macro PDEST
                      00478 if((PDEST & 2048) == 0)
                      00479         bcf 10,3
                      00480 else
                      00481         bsf 10,3
                      00482 endif
                      00483 if((PDEST & 4096) == 0)
                      00484         bcf 10,4
                      00485 else
                      00486         bsf 10,4
                      00487 endif
                      00488         endm
                      00489 s@b     macro pVarin
                      00490 if((pVarin & 384) == 0)
                      00491 if(ram_bank == 1)
                      00492         bcf 3,5
                      00493 endif
                      00494 if(ram_bank == 2)
                      00495         bcf 3,6
                      00496 endif
                      00497 if(ram_bank == 3)
                      00498         bcf 3,5
                      00499         bcf 3,6
                      00500 endif
                      00501 ram_bank = 0
                      00502 endif
                      00503 if((pVarin & 384) == 128)
                      00504 if(ram_bank == 0)
                      00505         bsf 3,5
                      00506 endif
                      00507 if(ram_bank == 2)
                      00508         bsf 3,5
                      00509         bcf 3,6
                      00510 endif
                      00511 if(ram_bank == 3)
                      00512         bcf 3,6
                      00513 endif
                      00514 ram_bank = 1
                      00515 endif
                      00516 if((pVarin & 384) == 256)
                      00517 if(ram_bank == 0)
                      00518         bsf 3,6
                      00519 endif
                      00520 if(ram_bank == 1)
                      00521         bcf 3,5
                      00522         bsf 3,6
                      00523 endif
                      00524 if(ram_bank == 3)
                      00525         bcf 3,5
                      00526 endif
                      00527 ram_bank = 2
                      00528 endif
                      00529 if((pVarin & 384) == 384)
                      00530 if(ram_bank == 0)
                      00531         bsf 3,5
                      00532         bsf 3,6
                      00533 endif
                      00534 if(ram_bank == 1)
                      00535         bsf 3,6
                      00536 endif
                      00537 if(ram_bank == 2)
                      00538         bsf 3,5
                      00539 endif
                      00540 ram_bank = 3
                      00541 endif
                      00542         endm
                      00543 r@b     macro
                      00544 if((ram_bank & 1) != 0)
                      00545         bcf 3,5
                      00546 endif
                      00547 if((ram_bank & 2) != 0)
                      00548         bcf 3,6
                      00549 endif
                      00550 ram_bank = 0
                      00551         endm
                      00552 jump macro PLABEL
                      00553     goto PLABEL
                      00554     endm
                      00555 wreg_byte macro pByteOut
                      00556     s@b pByteOut
                      00557     movwf pByteOut
                      00558     r@b
                      00559     endm
                      00560 wreg_bit macro pVarOut,pBitout
                      00561     s@b pVarOut
                      00562     andlw 1
                      00563     btfsc STATUS,2
                      00564     bcf pVarOut,pBitout
                      00565     btfss STATUS,2
                      00566     bsf pVarOut,pBitout
                      00567     r@b
                      00568     endm
                      00569 wreg_word macro pWordOut
                      00570     s@b pWordOut
                      00571     movwf pWordOut
                      00572     s@b pWordOut+1
                      00573     clrf pWordOut+1
                      00574     r@b
                      00575     endm
                      00576 wreg_dword macro pDwordOut
                      00577     s@b pDwordOut+3
                      00578     clrf pDwordOut+3
                      00579     s@b pDwordOut+2
                      00580     clrf pDwordOut+2
                      00581     s@b pDwordOut+1
                      00582     clrf pDwordOut+1
                      00583     s@b pDwordOut
                      00584     movwf pDwordOut
                      00585     r@b
                      00586     endm
                      00587 byte_wreg macro pByteIn
                      00588     s@b pByteIn
                      00589     movf pByteIn,W
                      00590     r@b
                      00591     endm
                      00592 num_wreg macro pNumIn
                      00593     movlw (pNumIn & 255)
                      00594     endm
                      00595 num_byte macro pNumIn,pByteOut
                      00596     s@b pByteOut
                      00597 if(pNumIn == 0)
                      00598     clrf pByteOut
                      00599 else
                      00600     movlw (pNumIn & 255)
                      00601     movwf pByteOut
                      00602 endif
                      00603     r@b
                      00604     endm
                      00605 num_bit macro pNumIn,pVarOut,pBitout
                      00606     s@b pVarOut
                      00607 if((pNumIn & 1) == 1)
                      00608     bsf pVarOut,pBitout
                      00609 else
                      00610     bcf pVarOut,pBitout
                      00611 endif
                      00612     r@b
                      00613     endm
                      00614 num_word macro pNumIn,pWordOut
                      00615 if((pNumIn & 255) == 0)
                      00616     s@b pWordOut
                      00617     clrf pWordOut
                      00618 else
                      00619     s@b pWordOut
                      00620     movlw low (pNumIn)
                      00621     movwf pWordOut
                      00622 endif
                      00623 if(((pNumIn >> 8) & 255) == 0)
                      00624     s@b pWordOut+1
                      00625     clrf pWordOut+1
                      00626 else
                      00627     s@b pWordOut+1
                      00628     movlw high (pNumIn)
                      00629     movwf pWordOut+1
                      00630 endif
                      00631     r@b
                      00632     endm
                      00633 num_dword macro pNumIn,pDwordOut
                      00634 if ((pNumIn >> 24 & 255) == 0)
                      00635     s@b pDwordOut+3
                      00636     clrf pDwordOut+3
                      00637 else
                      00638     s@b pDwordOut+3
                      00639     movlw ((pNumIn >> 24) & 255)
                      00640     movwf pDwordOut+3
                      00641 endif
                      00642 if( ((pNumIn >> 16) & 255) == 0)
                      00643     s@b pDwordOut+2
                      00644     clrf pDwordOut+2
                      00645 else
                      00646     s@b pDwordOut+2
                      00647     movlw ((pNumIn >> 16) & 255)
                      00648     movwf pDwordOut+2
                      00649 endif
                      00650 if( ((pNumIn >> 8) & 255) == 0)
                      00651     s@b pDwordOut+1
                      00652     clrf pDwordOut+1
                      00653 else
                      00654     s@b pDwordOut+1
                      00655     movlw high (pNumIn)
                      00656     movwf pDwordOut+1
                      00657 endif
                      00658 if((pNumIn & 255) == 0)
                      00659     s@b pDwordOut
                      00660     clrf pDwordOut
                      00661 else
                      00662     s@b pDwordOut
                      00663     movlw low (pNumIn)
                      00664     movwf pDwordOut
                      00665 endif
                      00666     r@b
                      00667     endm
                      00668 bit_wreg macro pVarin,pBitIn
                      00669     s@b pVarin
                      00670     clrw
                      00671     btfsc pVarin,pBitIn
                      00672     movlw 1
                      00673     r@b
                      00674     endm
                      00675 bit_byte macro pVarin,pBitIn,pByteOut
                      00676     s@b pVarin
                      00677     clrw
                      00678     btfsc pVarin,pBitIn
                      00679     movlw 1
                      00680     s@b pByteOut
                      00681     movwf pByteOut
                      00682     r@b
                      00683     endm
                      00684 bit_bit macro pVarin,pBitIn,pVarOut,pBitout
                      00685 if((pVarin & 65408) == (pVarOut & 65408))
                      00686     s@b pVarOut
                      00687     btfsc pVarin,pBitIn
                      00688     bsf pVarOut,pBitout
                      00689     btfss pVarin,pBitIn
                      00690     bcf pVarOut,pBitout
                      00691 else
                      00692     s@b pVarin
                      00693     clrdc
                      00694     btfsc pVarin,pBitIn
                      00695     setdc
                      00696     s@b pVarOut
                      00697     skpndc
                      00698     bsf pVarOut,pBitout
                      00699     skpdc
                      00700     bcf pVarOut,pBitout
                      00701 endif
                      00702     endm
                      00703 bit_word macro pVarin,pBitIn,pWordOut
                      00704     s@b pWordOut+1
                      00705     clrf pWordOut+1
                      00706     bit_byte pVarin,pBitIn,pWordOut
                      00707     endm
                      00708 bit_dword macro pVarin,pBitIn,pDwordOut
                      00709     s@b pDwordOut+3
                      00710     clrf pDwordOut+3
                      00711     s@b pDwordOut+2
                      00712     clrf pDwordOut+2
                      00713     s@b pDwordOut+1
                      00714     clrf pDwordOut+1
                      00715     bit_byte pVarin,pBitIn,pDwordOut
                      00716     endm
                      00717 word_wreg macro pWordIn
                      00718     byte_wreg pWordIn
                      00719     endm
                      00720 word_byte macro pWordIn,pByteOut
                      00721     byte_byte pWordIn,pByteOut
                      00722     endm
                      00723 word_bit macro pWordIn,pVarOut,pBitout
                      00724     byte_bit pWordIn, pVarOut, pBitout
                      00725     endm
                      00726 word_word macro pWordIn,pWordOut
                      00727     s@b pWordIn+1
                      00728     movf pWordIn+1,W
                      00729     s@b pWordOut+1
                      00730     movwf pWordOut+1
                      00731     byte_byte pWordIn,pWordOut
                      00732     endm
                      00733 word_dword macro pWordIn,pDwordOut
                      00734     s@b pDwordOut+3
                      00735     clrf pDwordOut+3
                      00736     s@b pDwordOut+2
                      00737     clrf pDwordOut+2
                      00738     byte_byte pWordIn+1,pDwordOut+1
                      00739     byte_byte pWordIn,pDwordOut
                      00740     endm
                      00741 byte_byte macro pByteIn,pByteOut
                      00742     s@b pByteIn
                      00743     movf pByteIn,W
                      00744     s@b pByteOut
                      00745     movwf pByteOut
                      00746     r@b
                      00747     endm
                      00748 byte_word macro pByteIn,pWordOut
                      00749     s@b pWordOut+1
                      00750     clrf pWordOut+1
                      00751     byte_byte pByteIn,pWordOut
                      00752     endm
                      00753 byte_dword macro pByteIn,pDwordOut
                      00754     s@b pDwordOut+3
                      00755     clrf pDwordOut+3
                      00756     s@b pDwordOut+2
                      00757     clrf pDwordOut+2
                      00758     s@b pDwordOut+1
                      00759     clrf pDwordOut+1
                      00760     byte_byte pByteIn,pDwordOut
                      00761     endm
                      00762     byte_bit macro pByteIn,pVarOut,pBitout
                      00763 if((pByteIn & 65408) == (pVarOut & 65408))
                      00764     s@b pByteIn
                      00765     btfsc pByteIn,0
                      00766     bsf pVarOut,pBitout
                      00767     btfss pByteIn,0
                      00768     bcf pVarOut,pBitout
                      00769 else
                      00770     s@b pByteIn
                      00771     rrf pByteIn,W
                      00772     s@b pVarOut
                      00773     skpnc
                      00774     bsf pVarOut,pBitout
                      00775     skpc
                      00776     bcf pVarOut,pBitout
                      00777 endif
                      00778     r@b
                      00779     endm
                      00780 dword_wreg macro pDwordIn
                      00781     byte_wreg pDwordIn
                      00782     endm
                      00783 dword_byte macro pDwordIn,pByteOut
                      00784     byte_byte pDwordIn,pByteOut
                      00785     endm
                      00786 dword_word macro pDwordIn,pWordOut
                      00787     s@b pDwordIn+1
                      00788     movf pDwordIn+1,W
                      00789     s@b pWordOut+1
                      00790     movwf pWordOut+1
                      00791     byte_byte pDwordIn,pWordOut
                      00792     endm
                      00793 dword_dword macro pDwordIn,pDwordOut
                      00794     byte_byte pDwordIn+3,pDwordOut+3
                      00795     byte_byte pDwordIn+2,pDwordOut+2
                      00796     byte_byte pDwordIn+1,pDwordOut+1
                      00797     byte_byte pDwordIn,pDwordOut
                      00798     endm
                      00799 dword_bit macro pDwordIn,pVarOut,pBitout
                      00800     byte_bit pDwordIn,pVarOut,pBitout
                      00801     endm
  0000                00802 variable CURRENT@PAGE = 0
  0000                00803 variable PDESTINATION@PAGE = 0
                      00804 FIND@PAGE macro pLabelIn
                      00805 local CURRENT_ADDR = $
                      00806 local DEST_ADDR = pLabelIn
                      00807 if((CURRENT_ADDR >= 0X1800) && (CURRENT_ADDR <= 0X2000))
                      00808     CURRENT@PAGE = 3
                      00809 endif
                      00810 if((CURRENT_ADDR >= 0X1000) && (CURRENT_ADDR <= 0X1800))
                      00811     CURRENT@PAGE = 2
                      00812 endif
                      00813 if((CURRENT_ADDR >= 0X0800) && (CURRENT_ADDR <= 0X1000))
                      00814     CURRENT@PAGE = 1
                      00815 endif
                      00816 if((CURRENT_ADDR >= 0) && (CURRENT_ADDR <= 0X0800))
                      00817     CURRENT@PAGE = 0
                      00818 endif
                      00819 if((DEST_ADDR >= 0X1800) && (DEST_ADDR <= 0X2000))
                      00820     PDESTINATION@PAGE = 3
                      00821 endif
                      00822 if((DEST_ADDR >= 0X1000) && (DEST_ADDR <= 0X1800))
                      00823     PDESTINATION@PAGE = 2
                      00824 endif
                      00825 if((DEST_ADDR >= 0X0800) && (DEST_ADDR <= 0X1000))
                      00826     PDESTINATION@PAGE = 1
                      00827 endif
                      00828 if((DEST_ADDR >= 0) && (DEST_ADDR <= 0X0800))
                      00829     PDESTINATION@PAGE = 0
                      00830 endif
                      00831     endm
                      00832 NUM_FSR macro pNumIn
                      00833     num_byte pNumIn, FSR
                      00834 if (((pNumIn >> 8) & 255) == 1)
                      00835     bsf STATUS,7
                      00836 else
                      00837     bcf STATUS,7
                      00838 endif
                      00839     endm
                      00840 label_word macro pLabelIn,pWordOut
                      00841     movlw low (pLabelIn)
                      00842     s@b pWordOut
                      00843     movwf pWordOut
                      00844     movlw high (pLabelIn)
                      00845     s@b pWordOut
                      00846     movwf pWordOut+1
                      00847     r@b
                      00848     endm
  00000020            00851 BPF = 32
  00000021            00852 BPFH = 33
  00000022            00853 CSTR#CT = 34
  00000023            00854 GEN = 35
  00000024            00855 GEN3H = 36
  00000025            00856 GEN4 = 37
  00000026            00857 GEN4H = 38
  00000027            00858 PBP#VAR0 = 39
  00000028            00859 PP0 = 40
  00000029            00860 PP0H = 41
  0000002A            00861 PP1 = 42
  0000002B            00862 PP1H = 43
  0000002C            00863 PP2 = 44
  0000002D            00864 PP2H = 45
  0000002E            00865 PP3 = 46
  0000002F            00866 PP3H = 47
  00000030            00867 PP4 = 48
  00000031            00868 PP5 = 49
  00000032            00869 PP6 = 50
  00000033            00870 PP6H = 51
  00000034            00871 PP7 = 52
  00000035            00872 _B#VR1 = 53
  00000036            00873 pos = 54
  00000037            00874 vib_count = 55
  00000038            00875 td = 56
  00000039            00876 rd = 57
  0000003A            00877 password = 58
  003A                00878 variable password#0=58,password#1=59,password#2=60,password#3=61
  003E                00879 variable password#4=62,password#5=63,password#6=64,password#7=65
  00000042            00880 RXD = 66
  0042                00881 variable RXD#0=66,RXD#1=67,RXD#2=68,RXD#3=69
  0046                00882 variable RXD#4=70,RXD#5=71,RXD#6=72,RXD#7=73
  004A                00883 variable RXD#8=74,RXD#9=75,RXD#10=76,RXD#11=77
  004E                00884 variable RXD#12=78,RXD#13=79,RXD#14=80,RXD#15=81
  0052                00885 variable RXD#16=82,RXD#17=83,RXD#18=84,RXD#19=85
  00000056            00886 get_ID = 86
  00000057            00887 ID_no = 87
  00000058            00888 checksum = 88
  00000059            00889 IDs = 89
  0000005A            00890 key = 90
  0000005B            00891 key_value = 91
                      00892 #define __LCD_RSPORT PORTB
                      00893 #define __LCD_ENPORT PORTB
                      00894 #define __LCD_DTPORT PORTB
                      00895 #define A1 PORTD,1
                      00896 #define A2 PORTD,2
                      00897 #define B1 PORTC,5
                      00898 #define motor PORTE,2
                      00899 #define buzz PORTD,3
                      00900 #define LDR PORTC,3
                      00901 #define PIR PORTC,0
                      00902 #define Smoke PORTC,1
                      00903 #define passMode PORTD,0
                      00904 #define vibrator PORTD,7
                      00905 #define check_point _B#VR1,0
                      00906 #define BT_mode rd,0
                      00907 #define BT_ok rd,1
                      00908 #define FP_error _B#VR1,1
                      00909 #define col_1 PORTA,3
                      00910 #define col_2 PORTA,2
                      00911 #define col_3 PORTA,1
                      00912 #define col_4 PORTA,0
                      00913 #define row_1 PORTE,1
                      00914 #define row_2 PORTE,0
                      00915 #define row_3 PORTA,5
                      00916 #define row_4 PORTA,4
                      00917 #define __XTAL 20
                      00918 #define __LCD_RSPIN 2
                      00919 #define __LCD_ENPIN 3
                      00920 #define __LCD_DTPIN 4
                      00921 #define __LCD_INTERFACE 4
                      00922 #define __HSERIAL_BAUD 56700
                      00923 #define __HSERIAL_RCSTA 144
                      00924 #define __HSERIAL_TXSTA 36
  00000015            00925 HSERIAL_SPBRG = 21
  00000024            00926 HSERIAL_TXSTA = 36
  00000090            00927 HSERIAL_RCSTA = 144
  0000DD7C            00928 HSERIAL_BAUD = 56700
0000                  00929 proton#code#start
0000                  00930         org 0
0000   0000           00931         nop
0001   3000           00932         movlw (proton#main#start >> 8) & 255
0002   008A           00933         movwf 10
0003   28D0           00934         goto proton#main#start
0004                  00935         org 4
0004                  00936 LCD@CLS
0004   3080           00937         movlw 128
0005   00A1           00938         movwf 33
0006                  00939 CLS
0006   30FE           00940         movlw 254
0007   2087           00941         call CH@SND
0008   3001           00942         movlw 1
0009   2087           00943         call CH@SND
000A   3075           00944         movlw 117
000B   00A9           00945         movwf 41
000C   3030           00946         movlw 48
000D   28BD           00947         goto DLUS@W
000E                  00948 LCD@CUR
000E   01A1           00949         clrf 33
000F   17A1           00950         bsf 33,7
0010                  00951 CURSOR
0010   00B1           00952         movwf 49
0011   08B1           00953         tstf 49
0012   1D03           00954         skpz
0013   2816           00955         goto $ + 3
0014   0103           00956         clrw
0015   2817           00957         goto $ + 2
0016   3001           00958         movlw 1
0017   02B1           00959         subwf 49,F
0018   1003           00960         bcf 3,0
0019   0CA3           00961         rrf 35,F
001A   0CA3           00962         rrf 35,F
001B   0CA3           00963         rrf 35,F
001C   30C0           00964         movlw 192
001D   0523           00965         andwf 35,W
001E   3E40           00966         addlw 64
001F   07B1           00967         addwf 49,F
0020   30FE           00968         movlw 254
0021   2087           00969         call CH@SND
0022   0831           00970         movf 49,W
0023   2887           00971         goto CH@SND
0024                  00972 LCD@CRS
0024   01A1           00973         clrf 33
0025   17A1           00974         bsf 33,7
0026                  00975 CURS@
0026   00B1           00976         movwf 49
0027   30FE           00977         movlw 254
0028   2087           00978         call CH@SND
0029   0831           00979         movf 49,W
002A   2887           00980         goto CH@SND
002B                  00981 PRINT
002B   00AF           00982         movwf 47
002C   1186           00983         bcf PORTB,3
002D   1106           00984         bcf PORTB,2
002E   1683           00985         bsf 3,5
002F   1186           00986         bcf PORTB,3
0030   1106           00987         bcf PORTB,2
0031   300F           00988         movlw 15
0032   0586           00989         andwf PORTB,F
0033   1283           00990         bcf 3,5
0034   082F           00991         movf 47,W
0035   18A0           00992         btfsc 32,1
0036   2855           00993         goto PRT@1
0037   303E           00994         movlw 62
0038   00A9           00995         movwf 41
0039   3080           00996         movlw 128
003A   20BD           00997         call DLUS@W
003B   3033           00998         movlw 51
003C   00AE           00999         movwf 46
003D   2069           01000         call PR@LP
003E   3013           01001         movlw 19
003F   00A9           01002         movwf 41
0040   3088           01003         movlw 136
0041   20BD           01004         call DLUS@W
0042   2069           01005         call PR@LP
0043   3064           01006         movlw 100
0044   20BC           01007         call DL@US
0045   2069           01008         call PR@LP
0046   3064           01009         movlw 100
0047   20BC           01010         call DL@US
0048   3022           01011         movlw 34
0049   00AE           01012         movwf 46
004A   2069           01013         call PR@LP
004B   3028           01014         movlw 40
004C   2054           01015         call PRT@C
004D   300C           01016         movlw 12
004E   2054           01017         call PRT@C
004F   3006           01018         movlw 6
0050   2054           01019         call PRT@C
0051   14A0           01020         bsf 32,1
0052   082F           01021         movf 47,W
0053   2855           01022         goto PRT@1
0054                  01023 PRT@C
0054   1420           01024         bsf 32,0
0055                  01025 PRT@1
0055   00AE           01026         movwf 46
0056   1C20           01027         btfss 32,0
0057   2863           01028         goto PRIT@SKP
0058   1106           01029         bcf PORTB,2
0059   3C03           01030         sublw 3
005A   1C03           01031         skpc
005B   2868           01032         goto PRT@S
005C   2068           01033         call PRT@S
005D   3007           01034         movlw 7
005E   00A9           01035         movwf 41
005F   30D0           01036         movlw 208
0060   20BD           01037         call DLUS@W
0061   1403           01038         bsf 3,0
0062   0008           01039         return
0063                  01040 PRIT@SKP
0063   1420           01041         bsf 32,0
0064   3CFE           01042         sublw 254
0065   1903           01043         skpnz
0066   2878           01044         goto PR@EX
0067   1506           01045         bsf PORTB,2
0068                  01046 PRT@S
0068   1C20           01047         btfss 32,0
0069                  01048 PR@LP
0069   1020           01049         bcf 32,0
006A   1586           01050         bsf PORTB,3
006B   300F           01051         movlw 15
006C   0586           01052         andwf PORTB,F
006D   082E           01053         movf 46,W
006E   39F0           01054         andlw 240
006F   0486           01055         iorwf PORTB,F
0070   0000           01056         nop
0071   1186           01057         bcf PORTB,3
0072   0EAE           01058         swapf 46,F
0073   0000           01059         nop
0074   1820           01060         btfsc 32,0
0075   2869           01061         goto PR@LP
0076   3032           01062         movlw 50
0077   20BC           01063         call DL@US
0078                  01064 PR@EX
0078   082F           01065         movf 47,W
0079   28CC           01066         goto I@NT
007A                  01067 HRSIN
007A   1898           01068         btfsc 24,PP_OERR
007B   1218           01069         bcf 24,PP_CREN
007C   1618           01070         bsf 24,PP_CREN
007D   1E8C           01071         btfss 12,PP_RCIF
007E   287D           01072         goto $ - 1
007F                  01073 H@RSIN
007F   081A           01074         movf 26,W
0080   1403           01075         bsf 3,0
0081   28CC           01076         goto I@NT
0082                  01077 HRSOUT
0082   1E0C           01078         btfss 12,PP_TXIF
0083   2882           01079         goto $ - 1
0084   0099           01080         movwf 25
0085   1403           01081         bsf 3,0
0086   28CC           01082         goto I@NT
0087                  01083 CH@SND
0087   1BA1           01084         btfsc 33,7
0088   282B           01085         goto PRINT
0089   1921           01086         btfsc 33,2
008A   2882           01087         goto HRSOUT
008B   0008           01088         return
008C                  01089 C@STROUT
008C   00A5           01090         movwf 37
008D                  01091 C@STROUTW
008D   01A2           01092         clrf 34
008E                  01093 C@STROUTLP
008E   0825           01094         movf 37,W
008F   1703           01095         bsf 3,6
0090   008D           01096         movwf 269
0091   1303           01097         bcf 3,6
0092   0826           01098         movf 38,W
0093   1703           01099         bsf 3,6
0094   008F           01100         movwf 271
0095   209F           01101         call C@READ
0096   1903           01102         skpnz
0097   28CC           01103         goto I@NT
0098   2087           01104         call CH@SND
0099   0AA5           01105         incf 37,F
009A   1903           01106         skpnz
009B   0AA6           01107         incf 38,F
009C   0FA2           01108         incfsz 34,F
009D   288E           01109         goto C@STROUTLP
009E   28CC           01110         goto I@NT
009F                  01111 C@READ
009F   1683           01112         bsf 3,5
00A0   1703           01113         bsf 3,6
00A1   178C           01114         bsf 396,PP_EEPGD
00A2   140C           01115         bsf 396,PP_RD
00A3   0000           01116         nop
00A4   0000           01117         nop
00A5   1283           01118         bcf 3,5
00A6   080C           01119         movf 268,W
00A7   28CC           01120         goto I@NT
00A8                  01121 CL@RH
00A8   1783           01122         bsf 3,7
00A9                  01123 CL@R
00A9   0180           01124         clrf 0
00AA   0A84           01125         incf 4,F
00AB   3EFF           01126         addlw 255
00AC   1D03           01127         skpz
00AD   28A9           01128         goto $ - 4
00AE   28CC           01129         goto I@NT
00AF                  01130 DL@MS
00AF   01AB           01131         clrf 43
00B0                  01132 DLY@W
00B0   00AA           01133         movwf 42
00B1                  01134 DLY@P
00B1   30FF           01135         movlw 255
00B2   07AA           01136         addwf 42,F
00B3   1C03           01137         skpc
00B4   07AB           01138         addwf 43,F
00B5   1C03           01139         skpc
00B6   28CC           01140         goto I@NT
00B7   3003           01141         movlw 3
00B8   00A9           01142         movwf 41
00B9   30E6           01143         movlw 230
00BA   20BD           01144         call DLUS@W
00BB   28B1           01145         goto DLY@P
00BC                  01146 DL@US
00BC   01A9           01147         clrf 41
00BD                  01148 DLUS@W
00BD   3EFC           01149         addlw 252
00BE   00A8           01150         movwf 40
00BF   09A9           01151         comf 41,F
00C0   1C03           01152         skpc
00C1   28C8           01153         goto $ + 7
00C2   30FF           01154         movlw 255
00C3   0000           01155         nop
00C4   07A8           01156         addwf 40,F
00C5   1803           01157         skpnc
00C6   28C3           01158         goto $ - 3
00C7   07A8           01159         addwf 40,F
00C8   0000           01160         nop
00C9   0FA9           01161         incfsz 41,F
00CA   28C2           01162         goto $ - 8
00CB   0008           01163         return
00CC                  01164 I@NT
00CC   1383           01165         bcf 3,7
00CD                  01166 I@NT2
00CD   1283           01167         bcf 3,5
00CE   1303           01168         bcf 3,6
00CF   0008           01169         return
00D0                  01170 proton#main#start
00D0   0183           01171         clrf 3
00D1   1683           01172         bsf 3,5
00D2   3015           01173         movlw 21
00D3   0099           01174         movwf 153
00D4   3024           01175         movlw 36
00D5   0098           01176         movwf 152
00D6   1283           01177         bcf 3,5
00D7   3090           01178         movlw 144
00D8   0098           01179         movwf 24
00D9   01A0           01180         clrf 32

  000000DA            01183 F2_SOF equ $ ; HS_SYS.PRP
  000000DA            01184 F2_EOF equ $ ; HS_SYS.PRP
  000000DA            01185 F1_SOF equ $ ; HS_SYS.BAS
  000000DA            01186 F1_000012 equ $ ; IN [HS_SYS.BAS] ALL_DIGITAL = on
00DA   3007           01187         movlw 7
00DB   1683           01188         bsf STATUS,5
  00000001            01189 ram_bank = 1
00DC   009C           01190         movwf CMCON
00DD   009F           01191         movwf ADCON1
  000000DE            01192 F1_000017 equ $ ; IN [HS_SYS.BAS] INPUT A1 : INPUT A2
00DE   1488           01193         bsf TRISD,1
00DF   1508           01194         bsf TRISD,2
  000000E0            01195 F1_000018 equ $ ; IN [HS_SYS.BAS] OUTPUT B1
00E0   1287           01196         bcf TRISC,5
  000000E1            01197 F1_000027 equ $ ; IN [HS_SYS.BAS] INPUT PIR : INPUT Smoke
00E1   1407           01198         bsf TRISC,0
00E2   1487           01199         bsf TRISC,1
  000000E3            01200 F1_000028 equ $ ; IN [HS_SYS.BAS] OUTPUT motor : OUTPUT buzz
00E3   1109           01201         bcf TRISE,2
00E4   1188           01202         bcf TRISD,3
  000000E5            01203 F1_000029 equ $ ; IN [HS_SYS.BAS] INPUT passMode : INPUT vibrator
00E5   1408           01204         bsf TRISD,0
00E6   1788           01205         bsf TRISD,7
  000000E7            01206 F1_000030 equ $ ; IN [HS_SYS.BAS] INPUT LDR
00E7   1587           01207         bsf TRISC,3
  000000E8            01208 F1_000039 equ $ ; IN [HS_SYS.BAS] CLEAR : CLS
00E8   3020           01209         movlw 32
00E9   0084           01210         movwf FSR
00EA   3060           01211         movlw 96
00EB   1283           01212         bcf STATUS,5
  00000000            01213 ram_bank = 0
                      01214         f@call CL@R
00EE   30A0           01215         movlw 160
00EF   0084           01216         movwf FSR
00F0   3050           01217         movlw 80
                      01218         f@call CL@R
00F3   3010           01219         movlw 16
00F4   0084           01220         movwf FSR
00F5   3060           01221         movlw 96
                      01222         f@call CL@RH
00F8   3090           01223         movlw 144
00F9   0084           01224         movwf FSR
00FA   3060           01225         movlw 96
                      01226         f@call CL@RH
                      01227         f@call LCD@CLS
  000000FF            01228 F1_000043 equ $ ; IN [HS_SYS.BAS] STR password = "@_ABC123"
00FF   3040           01229         movlw 64
0100   00BA           01230         movwf password#0
0101   305F           01231         movlw 95
0102   00BB           01232         movwf password#1
0103   3041           01233         movlw 65
0104   00BC           01234         movwf password#2
0105   3042           01235         movlw 66
0106   00BD           01236         movwf password#3
0107   3043           01237         movlw 67
0108   00BE           01238         movwf password#4
0109   3031           01239         movlw 49
010A   00BF           01240         movwf password#5
010B   3032           01241         movlw 50
010C   00C0           01242         movwf password#6
010D   3033           01243         movlw 51
010E   00C1           01244         movwf password#7
  0000010F            01245 F3_SOF equ $ ; FP_R305.INC
  0000010F            01246 F3_000002 equ $ ; IN [FP_R305.INC] goto Home
                      01247         F@JUMP Home
0112                  01248 FP_init
  00000112            01249 F3_000012 equ $ ; IN [FP_R305.INC] DELAYMS 5000
0112   3013           01250         movlw 19
0113   00AB           01251         movwf PP1H
0114   3088           01252         movlw 136
                      01253         f@call DLY@W
  00000117            01254 F3_000013 equ $ ; IN [FP_R305.INC] return
0117   0008           01255         return
0118                  01256 FP_Enroll
  00000118            01257 F3_000016 equ $ ; IN [FP_R305.INC] FP_error = 0
0118   10B5           01258         bcf _B#VR1,1
  00000119            01259 F3_000017 equ $ ; IN [FP_R305.INC] HSEROUT[$EF , $01 , $FF , $FF , $FF , $FF , $01 , $00 , $03 , $01 , $00 , $05]
0119   30EF           01260         movlw 239
                      01261         f@call HRSOUT
011C   3001           01262         movlw 1
                      01263         f@call HRSOUT
011F   30FF           01264         movlw 255
                      01265         f@call HRSOUT
0122   30FF           01266         movlw 255
                      01267         f@call HRSOUT
0125   30FF           01268         movlw 255
                      01269         f@call HRSOUT
0128   30FF           01270         movlw 255
                      01271         f@call HRSOUT
012B   3001           01272         movlw 1
                      01273         f@call HRSOUT
012E   3000           01274         movlw 0
                      01275         f@call HRSOUT
0131   3003           01276         movlw 3
                      01277         f@call HRSOUT
0134   3001           01278         movlw 1
                      01279         f@call HRSOUT
0137   3000           01280         movlw 0
                      01281         f@call HRSOUT
013A   3005           01282         movlw 5
                      01283         f@call HRSOUT
  0000013D            01284 F3_000018 equ $ ; IN [FP_R305.INC] HSERIN[RXD[0],RXD[1],RXD[2],RXD[3],RXD[4],RXD[5],RXD[6],RXD[7],RXD[8],RXD[9],RXD[10],RXD[11]]
                      01285         f@call HRSIN
013F   081A           01286         movf RCREG,W
0140   00C2           01287         movwf RXD#0
                      01288         f@call HRSIN
0143   081A           01289         movf RCREG,W
0144   00C3           01290         movwf RXD#1
                      01291         f@call HRSIN
0147   081A           01292         movf RCREG,W
0148   00C4           01293         movwf RXD#2
                      01294         f@call HRSIN
014B   081A           01295         movf RCREG,W
014C   00C5           01296         movwf RXD#3
                      01297         f@call HRSIN
014F   081A           01298         movf RCREG,W
0150   00C6           01299         movwf RXD#4
                      01300         f@call HRSIN
0153   081A           01301         movf RCREG,W
0154   00C7           01302         movwf RXD#5
                      01303         f@call HRSIN
0157   081A           01304         movf RCREG,W
0158   00C8           01305         movwf RXD#6
                      01306         f@call HRSIN
015B   081A           01307         movf RCREG,W
015C   00C9           01308         movwf RXD#7
                      01309         f@call HRSIN
015F   081A           01310         movf RCREG,W
0160   00CA           01311         movwf RXD#8
                      01312         f@call HRSIN
0163   081A           01313         movf RCREG,W
0164   00CB           01314         movwf RXD#9
                      01315         f@call HRSIN
0167   081A           01316         movf RCREG,W
0168   00CC           01317         movwf RXD#10
                      01318         f@call HRSIN
016B   081A           01319         movf RCREG,W
016C   00CD           01320         movwf RXD#11
  0000016D            01321 F3_000019 equ $ ; IN [FP_R305.INC] if RXD[9] != 0 THEN FP_Enroll
016D   084B           01322         movf RXD#9,W
016E   00A7           01323         movwf PBP#VAR0
016F   08A7           01324         movf PBP#VAR0,F
                      01325         set@page BC@LL2
0172   1903           01326         btfsc STATUS,2
0173   2976           01327         goto BC@LL2
                      01328         F@JUMP FP_Enroll
0176                  01329 BC@LL2
  00000176            01330 F3_000020 equ $ ; IN [FP_R305.INC] HSEROUT[$EF , $01 , $FF , $FF , $FF , $FF , $01 , $00 , $04 , $02 , $01 , $00 , $08]
0176   30EF           01331         movlw 239
                      01332         f@call HRSOUT
0179   3001           01333         movlw 1
                      01334         f@call HRSOUT
017C   30FF           01335         movlw 255
                      01336         f@call HRSOUT
017F   30FF           01337         movlw 255
                      01338         f@call HRSOUT
0182   30FF           01339         movlw 255
                      01340         f@call HRSOUT
0185   30FF           01341         movlw 255
                      01342         f@call HRSOUT
0188   3001           01343         movlw 1
                      01344         f@call HRSOUT
018B   3000           01345         movlw 0
                      01346         f@call HRSOUT
018E   3004           01347         movlw 4
                      01348         f@call HRSOUT
0191   3002           01349         movlw 2
                      01350         f@call HRSOUT
0194   3001           01351         movlw 1
                      01352         f@call HRSOUT
0197   3000           01353         movlw 0
                      01354         f@call HRSOUT
019A   3008           01355         movlw 8
                      01356         f@call HRSOUT
  0000019D            01357 F3_000021 equ $ ; IN [FP_R305.INC] HSERIN[RXD[0],RXD[1],RXD[2],RXD[3],RXD[4],RXD[5],RXD[6],RXD[7],RXD[8],RXD[9],RXD[10],RXD[11]]
                      01358         f@call HRSIN
019F   081A           01359         movf RCREG,W
01A0   00C2           01360         movwf RXD#0
                      01361         f@call HRSIN
01A3   081A           01362         movf RCREG,W
01A4   00C3           01363         movwf RXD#1
                      01364         f@call HRSIN
01A7   081A           01365         movf RCREG,W
01A8   00C4           01366         movwf RXD#2
                      01367         f@call HRSIN
01AB   081A           01368         movf RCREG,W
01AC   00C5           01369         movwf RXD#3
                      01370         f@call HRSIN
01AF   081A           01371         movf RCREG,W
01B0   00C6           01372         movwf RXD#4
                      01373         f@call HRSIN
01B3   081A           01374         movf RCREG,W
01B4   00C7           01375         movwf RXD#5
                      01376         f@call HRSIN
01B7   081A           01377         movf RCREG,W
01B8   00C8           01378         movwf RXD#6
                      01379         f@call HRSIN
01BB   081A           01380         movf RCREG,W
01BC   00C9           01381         movwf RXD#7
                      01382         f@call HRSIN
01BF   081A           01383         movf RCREG,W
01C0   00CA           01384         movwf RXD#8
                      01385         f@call HRSIN
01C3   081A           01386         movf RCREG,W
01C4   00CB           01387         movwf RXD#9
                      01388         f@call HRSIN
01C7   081A           01389         movf RCREG,W
01C8   00CC           01390         movwf RXD#10
                      01391         f@call HRSIN
01CB   081A           01392         movf RCREG,W
01CC   00CD           01393         movwf RXD#11
  000001CD            01394 F3_000022 equ $ ; IN [FP_R305.INC] if RXD[9] != 0 THEN FP_error = 1 : return
01CD   084B           01395         movf RXD#9,W
01CE   00A7           01396         movwf PBP#VAR0
01CF   08A7           01397         movf PBP#VAR0,F
                      01398         set@page BC@LL4
01D2   1903           01399         btfsc STATUS,2
01D3   29D6           01400         goto BC@LL4
01D4   14B5           01401         bsf _B#VR1,1
01D5   0008           01402         return
01D6                  01403 BC@LL4
01D6                  01404 Recheck
  000001D6            01405 F3_000024 equ $ ; IN [FP_R305.INC] HSEROUT[$EF , $01 , $FF , $FF , $FF , $FF , $01 , $00 , $03 , $01 , $00 , $05]
01D6   30EF           01406         movlw 239
                      01407         f@call HRSOUT
01D9   3001           01408         movlw 1
                      01409         f@call HRSOUT
01DC   30FF           01410         movlw 255
                      01411         f@call HRSOUT
01DF   30FF           01412         movlw 255
                      01413         f@call HRSOUT
01E2   30FF           01414         movlw 255
                      01415         f@call HRSOUT
01E5   30FF           01416         movlw 255
                      01417         f@call HRSOUT
01E8   3001           01418         movlw 1
                      01419         f@call HRSOUT
01EB   3000           01420         movlw 0
                      01421         f@call HRSOUT
01EE   3003           01422         movlw 3
                      01423         f@call HRSOUT
01F1   3001           01424         movlw 1
                      01425         f@call HRSOUT
01F4   3000           01426         movlw 0
                      01427         f@call HRSOUT
01F7   3005           01428         movlw 5
                      01429         f@call HRSOUT
  000001FA            01430 F3_000025 equ $ ; IN [FP_R305.INC] HSERIN[RXD[0],RXD[1],RXD[2],RXD[3],RXD[4],RXD[5],RXD[6],RXD[7],RXD[8],RXD[9],RXD[10],RXD[11]]
                      01431         f@call HRSIN
01FC   081A           01432         movf RCREG,W
01FD   00C2           01433         movwf RXD#0
                      01434         f@call HRSIN
0200   081A           01435         movf RCREG,W
0201   00C3           01436         movwf RXD#1
                      01437         f@call HRSIN
0204   081A           01438         movf RCREG,W
0205   00C4           01439         movwf RXD#2
                      01440         f@call HRSIN
0208   081A           01441         movf RCREG,W
0209   00C5           01442         movwf RXD#3
                      01443         f@call HRSIN
020C   081A           01444         movf RCREG,W
020D   00C6           01445         movwf RXD#4
                      01446         f@call HRSIN
0210   081A           01447         movf RCREG,W
0211   00C7           01448         movwf RXD#5
                      01449         f@call HRSIN
0214   081A           01450         movf RCREG,W
0215   00C8           01451         movwf RXD#6
                      01452         f@call HRSIN
0218   081A           01453         movf RCREG,W
0219   00C9           01454         movwf RXD#7
                      01455         f@call HRSIN
021C   081A           01456         movf RCREG,W
021D   00CA           01457         movwf RXD#8
                      01458         f@call HRSIN
0220   081A           01459         movf RCREG,W
0221   00CB           01460         movwf RXD#9
                      01461         f@call HRSIN
0224   081A           01462         movf RCREG,W
0225   00CC           01463         movwf RXD#10
                      01464         f@call HRSIN
0228   081A           01465         movf RCREG,W
0229   00CD           01466         movwf RXD#11
  0000022A            01467 F3_000026 equ $ ; IN [FP_R305.INC] if RXD[9] != 0 THEN Recheck
022A   084B           01468         movf RXD#9,W
022B   00A7           01469         movwf PBP#VAR0
022C   08A7           01470         movf PBP#VAR0,F
                      01471         set@page BC@LL6
022F   1903           01472         btfsc STATUS,2
0230   2A33           01473         goto BC@LL6
                      01474         F@JUMP Recheck
0233                  01475 BC@LL6
  00000233            01476 F3_000027 equ $ ; IN [FP_R305.INC] HSEROUT[$EF , $01 , $FF , $FF , $FF , $FF , $01 , $00 , $04 , $02 , $02 , $00 , $09]
0233   30EF           01477         movlw 239
                      01478         f@call HRSOUT
0236   3001           01479         movlw 1
                      01480         f@call HRSOUT
0239   30FF           01481         movlw 255
                      01482         f@call HRSOUT
023C   30FF           01483         movlw 255
                      01484         f@call HRSOUT
023F   30FF           01485         movlw 255
                      01486         f@call HRSOUT
0242   30FF           01487         movlw 255
                      01488         f@call HRSOUT
0245   3001           01489         movlw 1
                      01490         f@call HRSOUT
0248   3000           01491         movlw 0
                      01492         f@call HRSOUT
024B   3004           01493         movlw 4
                      01494         f@call HRSOUT
024E   3002           01495         movlw 2
                      01496         f@call HRSOUT
0251   3002           01497         movlw 2
                      01498         f@call HRSOUT
0254   3000           01499         movlw 0
                      01500         f@call HRSOUT
0257   3009           01501         movlw 9
                      01502         f@call HRSOUT
  0000025A            01503 F3_000028 equ $ ; IN [FP_R305.INC] HSERIN[RXD[0],RXD[1],RXD[2],RXD[3],RXD[4],RXD[5],RXD[6],RXD[7],RXD[8],RXD[9],RXD[10],RXD[11]]
                      01504         f@call HRSIN
025C   081A           01505         movf RCREG,W
025D   00C2           01506         movwf RXD#0
                      01507         f@call HRSIN
0260   081A           01508         movf RCREG,W
0261   00C3           01509         movwf RXD#1
                      01510         f@call HRSIN
0264   081A           01511         movf RCREG,W
0265   00C4           01512         movwf RXD#2
                      01513         f@call HRSIN
0268   081A           01514         movf RCREG,W
0269   00C5           01515         movwf RXD#3
                      01516         f@call HRSIN
026C   081A           01517         movf RCREG,W
026D   00C6           01518         movwf RXD#4
                      01519         f@call HRSIN
0270   081A           01520         movf RCREG,W
0271   00C7           01521         movwf RXD#5
                      01522         f@call HRSIN
0274   081A           01523         movf RCREG,W
0275   00C8           01524         movwf RXD#6
                      01525         f@call HRSIN
0278   081A           01526         movf RCREG,W
0279   00C9           01527         movwf RXD#7
                      01528         f@call HRSIN
027C   081A           01529         movf RCREG,W
027D   00CA           01530         movwf RXD#8
                      01531         f@call HRSIN
0280   081A           01532         movf RCREG,W
0281   00CB           01533         movwf RXD#9
                      01534         f@call HRSIN
0284   081A           01535         movf RCREG,W
0285   00CC           01536         movwf RXD#10
                      01537         f@call HRSIN
0288   081A           01538         movf RCREG,W
0289   00CD           01539         movwf RXD#11
  0000028A            01540 F3_000029 equ $ ; IN [FP_R305.INC] if RXD[9] != 0 THEN FP_error = 1 : return
028A   084B           01541         movf RXD#9,W
028B   00A7           01542         movwf PBP#VAR0
028C   08A7           01543         movf PBP#VAR0,F
                      01544         set@page BC@LL8
028F   1903           01545         btfsc STATUS,2
0290   2A93           01546         goto BC@LL8
0291   14B5           01547         bsf _B#VR1,1
0292   0008           01548         return
0293                  01549 BC@LL8
  00000293            01550 F3_000030 equ $ ; IN [FP_R305.INC] HSEROUT[$EF , $01 , $FF , $FF , $FF , $FF , $01 , $00 , $03 , $05 , $00 , $09]
0293   30EF           01551         movlw 239
                      01552         f@call HRSOUT
0296   3001           01553         movlw 1
                      01554         f@call HRSOUT
0299   30FF           01555         movlw 255
                      01556         f@call HRSOUT
029C   30FF           01557         movlw 255
                      01558         f@call HRSOUT
029F   30FF           01559         movlw 255
                      01560         f@call HRSOUT
02A2   30FF           01561         movlw 255
                      01562         f@call HRSOUT
02A5   3001           01563         movlw 1
                      01564         f@call HRSOUT
02A8   3000           01565         movlw 0
                      01566         f@call HRSOUT
02AB   3003           01567         movlw 3
                      01568         f@call HRSOUT
02AE   3005           01569         movlw 5
                      01570         f@call HRSOUT
02B1   3000           01571         movlw 0
                      01572         f@call HRSOUT
02B4   3009           01573         movlw 9
                      01574         f@call HRSOUT
  000002B7            01575 F3_000031 equ $ ; IN [FP_R305.INC] HSERIN[RXD[0],RXD[1],RXD[2],RXD[3],RXD[4],RXD[5],RXD[6],RXD[7],RXD[8],RXD[9],RXD[10],RXD[11]]
                      01576         f@call HRSIN
02B9   081A           01577         movf RCREG,W
02BA   00C2           01578         movwf RXD#0
                      01579         f@call HRSIN
02BD   081A           01580         movf RCREG,W
02BE   00C3           01581         movwf RXD#1
                      01582         f@call HRSIN
02C1   081A           01583         movf RCREG,W
02C2   00C4           01584         movwf RXD#2
                      01585         f@call HRSIN
02C5   081A           01586         movf RCREG,W
02C6   00C5           01587         movwf RXD#3
                      01588         f@call HRSIN
02C9   081A           01589         movf RCREG,W
02CA   00C6           01590         movwf RXD#4
                      01591         f@call HRSIN
02CD   081A           01592         movf RCREG,W
02CE   00C7           01593         movwf RXD#5
                      01594         f@call HRSIN
02D1   081A           01595         movf RCREG,W
02D2   00C8           01596         movwf RXD#6
                      01597         f@call HRSIN
02D5   081A           01598         movf RCREG,W
02D6   00C9           01599         movwf RXD#7
                      01600         f@call HRSIN
02D9   081A           01601         movf RCREG,W
02DA   00CA           01602         movwf RXD#8
                      01603         f@call HRSIN
02DD   081A           01604         movf RCREG,W
02DE   00CB           01605         movwf RXD#9
                      01606         f@call HRSIN
02E1   081A           01607         movf RCREG,W
02E2   00CC           01608         movwf RXD#10
                      01609         f@call HRSIN
02E5   081A           01610         movf RCREG,W
02E6   00CD           01611         movwf RXD#11
  000002E7            01612 F3_000032 equ $ ; IN [FP_R305.INC] if RXD[9] != 0 THEN FP_error = 1 : return
02E7   084B           01613         movf RXD#9,W
02E8   00A7           01614         movwf PBP#VAR0
02E9   08A7           01615         movf PBP#VAR0,F
                      01616         set@page BC@LL10
02EC   1903           01617         btfsc STATUS,2
02ED   2AF0           01618         goto BC@LL10
02EE   14B5           01619         bsf _B#VR1,1
02EF   0008           01620         return
02F0                  01621 BC@LL10
  000002F0            01622 F3_000033 equ $ ; IN [FP_R305.INC] checksum = 15 + ID_no
02F0   300F           01623         movlw 15
02F1   0757           01624         addwf ID_no,W
02F2   00D8           01625         movwf checksum
  000002F3            01626 F3_000034 equ $ ; IN [FP_R305.INC] HSEROUT[$EF , $01 , $FF , $FF , $FF , $FF , $01 , $00 , $06 , $06 , $02 , $00, ID_no, $00, checksum]
02F3   30EF           01627         movlw 239
                      01628         f@call HRSOUT
02F6   3001           01629         movlw 1
                      01630         f@call HRSOUT
02F9   30FF           01631         movlw 255
                      01632         f@call HRSOUT
02FC   30FF           01633         movlw 255
                      01634         f@call HRSOUT
02FF   30FF           01635         movlw 255
                      01636         f@call HRSOUT
0302   30FF           01637         movlw 255
                      01638         f@call HRSOUT
0305   3001           01639         movlw 1
                      01640         f@call HRSOUT
0308   3000           01641         movlw 0
                      01642         f@call HRSOUT
030B   3006           01643         movlw 6
                      01644         f@call HRSOUT
030E   3006           01645         movlw 6
                      01646         f@call HRSOUT
0311   3002           01647         movlw 2
                      01648         f@call HRSOUT
0314   3000           01649         movlw 0
                      01650         f@call HRSOUT
0317   0857           01651         movf ID_no,W
                      01652         f@call HRSOUT
031A   3000           01653         movlw 0
                      01654         f@call HRSOUT
031D   0858           01655         movf checksum,W
                      01656         f@call HRSOUT
  00000320            01657 F3_000035 equ $ ; IN [FP_R305.INC] HSERIN[RXD[0],RXD[1],RXD[2],RXD[3],RXD[4],RXD[5],RXD[6],RXD[7],RXD[8],RXD[9],RXD[10],RXD[11]]
                      01658         f@call HRSIN
0322   081A           01659         movf RCREG,W
0323   00C2           01660         movwf RXD#0
                      01661         f@call HRSIN
0326   081A           01662         movf RCREG,W
0327   00C3           01663         movwf RXD#1
                      01664         f@call HRSIN
032A   081A           01665         movf RCREG,W
032B   00C4           01666         movwf RXD#2
                      01667         f@call HRSIN
032E   081A           01668         movf RCREG,W
032F   00C5           01669         movwf RXD#3
                      01670         f@call HRSIN
0332   081A           01671         movf RCREG,W
0333   00C6           01672         movwf RXD#4
                      01673         f@call HRSIN
0336   081A           01674         movf RCREG,W
0337   00C7           01675         movwf RXD#5
                      01676         f@call HRSIN
033A   081A           01677         movf RCREG,W
033B   00C8           01678         movwf RXD#6
                      01679         f@call HRSIN
033E   081A           01680         movf RCREG,W
033F   00C9           01681         movwf RXD#7
                      01682         f@call HRSIN
0342   081A           01683         movf RCREG,W
0343   00CA           01684         movwf RXD#8
                      01685         f@call HRSIN
0346   081A           01686         movf RCREG,W
0347   00CB           01687         movwf RXD#9
                      01688         f@call HRSIN
034A   081A           01689         movf RCREG,W
034B   00CC           01690         movwf RXD#10
                      01691         f@call HRSIN
034E   081A           01692         movf RCREG,W
034F   00CD           01693         movwf RXD#11
  00000350            01694 F3_000036 equ $ ; IN [FP_R305.INC] if RXD[9] != 0 THEN FP_error = 1 : return
0350   084B           01695         movf RXD#9,W
0351   00A7           01696         movwf PBP#VAR0
0352   08A7           01697         movf PBP#VAR0,F
                      01698         set@page BC@LL12
0355   1903           01699         btfsc STATUS,2
0356   2B59           01700         goto BC@LL12
0357   14B5           01701         bsf _B#VR1,1
0358   0008           01702         return
0359                  01703 BC@LL12
  00000359            01704 F3_000037 equ $ ; IN [FP_R305.INC] return
0359   0008           01705         return
035A                  01706 FP_Search
  0000035A            01707 F3_000040 equ $ ; IN [FP_R305.INC] FP_error = 0
035A   10B5           01708         bcf _B#VR1,1
  0000035B            01709 F3_000041 equ $ ; IN [FP_R305.INC] HSEROUT[$EF , $01 , $FF , $FF , $FF , $FF , $01 , $00 , $03 , $01 , $00 , $05]
035B   30EF           01710         movlw 239
                      01711         f@call HRSOUT
035E   3001           01712         movlw 1
                      01713         f@call HRSOUT
0361   30FF           01714         movlw 255
                      01715         f@call HRSOUT
0364   30FF           01716         movlw 255
                      01717         f@call HRSOUT
0367   30FF           01718         movlw 255
                      01719         f@call HRSOUT
036A   30FF           01720         movlw 255
                      01721         f@call HRSOUT
036D   3001           01722         movlw 1
                      01723         f@call HRSOUT
0370   3000           01724         movlw 0
                      01725         f@call HRSOUT
0373   3003           01726         movlw 3
                      01727         f@call HRSOUT
0376   3001           01728         movlw 1
                      01729         f@call HRSOUT
0379   3000           01730         movlw 0
                      01731         f@call HRSOUT
037C   3005           01732         movlw 5
                      01733         f@call HRSOUT
  0000037F            01734 F3_000042 equ $ ; IN [FP_R305.INC] HSERIN[RXD[0],RXD[1],RXD[2],RXD[3],RXD[4],RXD[5],RXD[6],RXD[7],RXD[8],RXD[9],RXD[10],RXD[11]]
                      01735         f@call HRSIN
0381   081A           01736         movf RCREG,W
0382   00C2           01737         movwf RXD#0
                      01738         f@call HRSIN
0385   081A           01739         movf RCREG,W
0386   00C3           01740         movwf RXD#1
                      01741         f@call HRSIN
0389   081A           01742         movf RCREG,W
038A   00C4           01743         movwf RXD#2
                      01744         f@call HRSIN
038D   081A           01745         movf RCREG,W
038E   00C5           01746         movwf RXD#3
                      01747         f@call HRSIN
0391   081A           01748         movf RCREG,W
0392   00C6           01749         movwf RXD#4
                      01750         f@call HRSIN
0395   081A           01751         movf RCREG,W
0396   00C7           01752         movwf RXD#5
                      01753         f@call HRSIN
0399   081A           01754         movf RCREG,W
039A   00C8           01755         movwf RXD#6
                      01756         f@call HRSIN
039D   081A           01757         movf RCREG,W
039E   00C9           01758         movwf RXD#7
                      01759         f@call HRSIN
03A1   081A           01760         movf RCREG,W
03A2   00CA           01761         movwf RXD#8
                      01762         f@call HRSIN
03A5   081A           01763         movf RCREG,W
03A6   00CB           01764         movwf RXD#9
                      01765         f@call HRSIN
03A9   081A           01766         movf RCREG,W
03AA   00CC           01767         movwf RXD#10
                      01768         f@call HRSIN
03AD   081A           01769         movf RCREG,W
03AE   00CD           01770         movwf RXD#11
  000003AF            01771 F3_000043 equ $ ; IN [FP_R305.INC] if RXD[9] != 0 THEN FP_Search
03AF   084B           01772         movf RXD#9,W
03B0   00A7           01773         movwf PBP#VAR0
03B1   08A7           01774         movf PBP#VAR0,F
                      01775         set@page BC@LL14
03B4   1903           01776         btfsc STATUS,2
03B5   2BB8           01777         goto BC@LL14
                      01778         F@JUMP FP_Search
03B8                  01779 BC@LL14
  000003B8            01780 F3_000044 equ $ ; IN [FP_R305.INC] HSEROUT[$EF , $01 , $FF , $FF , $FF , $FF , $01 , $00 , $04 , $02 , $01 , $00 , $08]
03B8   30EF           01781         movlw 239
                      01782         f@call HRSOUT
03BB   3001           01783         movlw 1
                      01784         f@call HRSOUT
03BE   30FF           01785         movlw 255
                      01786         f@call HRSOUT
03C1   30FF           01787         movlw 255
                      01788         f@call HRSOUT
03C4   30FF           01789         movlw 255
                      01790         f@call HRSOUT
03C7   30FF           01791         movlw 255
                      01792         f@call HRSOUT
03CA   3001           01793         movlw 1
                      01794         f@call HRSOUT
03CD   3000           01795         movlw 0
                      01796         f@call HRSOUT
03D0   3004           01797         movlw 4
                      01798         f@call HRSOUT
03D3   3002           01799         movlw 2
                      01800         f@call HRSOUT
03D6   3001           01801         movlw 1
                      01802         f@call HRSOUT
03D9   3000           01803         movlw 0
                      01804         f@call HRSOUT
03DC   3008           01805         movlw 8
                      01806         f@call HRSOUT
  000003DF            01807 F3_000045 equ $ ; IN [FP_R305.INC] HSERIN[RXD[0],RXD[1],RXD[2],RXD[3],RXD[4],RXD[5],RXD[6],RXD[7],RXD[8],RXD[9],RXD[10],RXD[11]]
                      01808         f@call HRSIN
03E1   081A           01809         movf RCREG,W
03E2   00C2           01810         movwf RXD#0
                      01811         f@call HRSIN
03E5   081A           01812         movf RCREG,W
03E6   00C3           01813         movwf RXD#1
                      01814         f@call HRSIN
03E9   081A           01815         movf RCREG,W
03EA   00C4           01816         movwf RXD#2
                      01817         f@call HRSIN
03ED   081A           01818         movf RCREG,W
03EE   00C5           01819         movwf RXD#3
                      01820         f@call HRSIN
03F1   081A           01821         movf RCREG,W
03F2   00C6           01822         movwf RXD#4
                      01823         f@call HRSIN
03F5   081A           01824         movf RCREG,W
03F6   00C7           01825         movwf RXD#5
                      01826         f@call HRSIN
03F9   081A           01827         movf RCREG,W
03FA   00C8           01828         movwf RXD#6
                      01829         f@call HRSIN
03FD   081A           01830         movf RCREG,W
03FE   00C9           01831         movwf RXD#7
                      01832         f@call HRSIN
0401   081A           01833         movf RCREG,W
0402   00CA           01834         movwf RXD#8
                      01835         f@call HRSIN
0405   081A           01836         movf RCREG,W
0406   00CB           01837         movwf RXD#9
                      01838         f@call HRSIN
0409   081A           01839         movf RCREG,W
040A   00CC           01840         movwf RXD#10
                      01841         f@call HRSIN
040D   081A           01842         movf RCREG,W
040E   00CD           01843         movwf RXD#11
  0000040F            01844 F3_000046 equ $ ; IN [FP_R305.INC] if RXD[9] != 0 THEN FP_error = 1 : return
040F   084B           01845         movf RXD#9,W
0410   00A7           01846         movwf PBP#VAR0
0411   08A7           01847         movf PBP#VAR0,F
                      01848         set@page BC@LL16
0414   1903           01849         btfsc STATUS,2
0415   2C18           01850         goto BC@LL16
0416   14B5           01851         bsf _B#VR1,1
0417   0008           01852         return
0418                  01853 BC@LL16
  00000418            01854 F3_000047 equ $ ; IN [FP_R305.INC] HSEROUT[$EF, $01, $FF, $FF, $FF, $FF, $01, $00, $08, $1B, $01, $00, $00, $03, $E9, $01, $11]
0418   30EF           01855         movlw 239
                      01856         f@call HRSOUT
041B   3001           01857         movlw 1
                      01858         f@call HRSOUT
041E   30FF           01859         movlw 255
                      01860         f@call HRSOUT
0421   30FF           01861         movlw 255
                      01862         f@call HRSOUT
0424   30FF           01863         movlw 255
                      01864         f@call HRSOUT
0427   30FF           01865         movlw 255
                      01866         f@call HRSOUT
042A   3001           01867         movlw 1
                      01868         f@call HRSOUT
042D   3000           01869         movlw 0
                      01870         f@call HRSOUT
0430   3008           01871         movlw 8
                      01872         f@call HRSOUT
0433   301B           01873         movlw 27
                      01874         f@call HRSOUT
0436   3001           01875         movlw 1
                      01876         f@call HRSOUT
0439   3000           01877         movlw 0
                      01878         f@call HRSOUT
043C   3000           01879         movlw 0
                      01880         f@call HRSOUT
043F   3003           01881         movlw 3
                      01882         f@call HRSOUT
0442   30E9           01883         movlw 233
                      01884         f@call HRSOUT
0445   3001           01885         movlw 1
                      01886         f@call HRSOUT
0448   3011           01887         movlw 17
                      01888         f@call HRSOUT
  0000044B            01889 F3_000048 equ $ ; IN [FP_R305.INC] HSERIN[RXD[0],RXD[1],RXD[2],RXD[3],RXD[4],RXD[5],RXD[6],RXD[7],RXD[8],RXD[9],RXD[10],RXD[11],RXD[12],RXD[13],RXD[14],RXD[15]]
                      01890         f@call HRSIN
044D   081A           01891         movf RCREG,W
044E   00C2           01892         movwf RXD#0
                      01893         f@call HRSIN
0451   081A           01894         movf RCREG,W
0452   00C3           01895         movwf RXD#1
                      01896         f@call HRSIN
0455   081A           01897         movf RCREG,W
0456   00C4           01898         movwf RXD#2
                      01899         f@call HRSIN
0459   081A           01900         movf RCREG,W
045A   00C5           01901         movwf RXD#3
                      01902         f@call HRSIN
045D   081A           01903         movf RCREG,W
045E   00C6           01904         movwf RXD#4
                      01905         f@call HRSIN
0461   081A           01906         movf RCREG,W
0462   00C7           01907         movwf RXD#5
                      01908         f@call HRSIN
0465   081A           01909         movf RCREG,W
0466   00C8           01910         movwf RXD#6
                      01911         f@call HRSIN
0469   081A           01912         movf RCREG,W
046A   00C9           01913         movwf RXD#7
                      01914         f@call HRSIN
046D   081A           01915         movf RCREG,W
046E   00CA           01916         movwf RXD#8
                      01917         f@call HRSIN
0471   081A           01918         movf RCREG,W
0472   00CB           01919         movwf RXD#9
                      01920         f@call HRSIN
0475   081A           01921         movf RCREG,W
0476   00CC           01922         movwf RXD#10
                      01923         f@call HRSIN
0479   081A           01924         movf RCREG,W
047A   00CD           01925         movwf RXD#11
                      01926         f@call HRSIN
047D   081A           01927         movf RCREG,W
047E   00CE           01928         movwf RXD#12
                      01929         f@call HRSIN
0481   081A           01930         movf RCREG,W
0482   00CF           01931         movwf RXD#13
                      01932         f@call HRSIN
0485   081A           01933         movf RCREG,W
0486   00D0           01934         movwf RXD#14
                      01935         f@call HRSIN
0489   081A           01936         movf RCREG,W
048A   00D1           01937         movwf RXD#15
  0000048B            01938 F3_000049 equ $ ; IN [FP_R305.INC] if RXD[9] != 0 THEN FP_error = 1 : return
048B   084B           01939         movf RXD#9,W
048C   00A7           01940         movwf PBP#VAR0
048D   08A7           01941         movf PBP#VAR0,F
                      01942         set@page BC@LL18
0490   1903           01943         btfsc STATUS,2
0491   2C94           01944         goto BC@LL18
0492   14B5           01945         bsf _B#VR1,1
0493   0008           01946         return
0494                  01947 BC@LL18
  00000494            01948 F3_000050 equ $ ; IN [FP_R305.INC] get_ID = RXD[11]
0494   084D           01949         movf RXD#11,W
0495   00D6           01950         movwf get_ID
  00000496            01951 F3_000051 equ $ ; IN [FP_R305.INC] return
0496   0008           01952         return
0497                  01953 FP_Delete_ID
  00000497            01954 F3_000054 equ $ ; IN [FP_R305.INC] FP_error = 0
0497   10B5           01955         bcf _B#VR1,1
  00000498            01956 F3_000055 equ $ ; IN [FP_R305.INC] checksum = 21 + ID_no
0498   3015           01957         movlw 21
0499   0757           01958         addwf ID_no,W
049A   00D8           01959         movwf checksum
  0000049B            01960 F3_000056 equ $ ; IN [FP_R305.INC] HSEROUT[$EF, $01, $FF, $FF, $FF, $FF, $01, $00, $07, $0C, $00, ID_no, $00, $01, $00, checksum]
049B   30EF           01961         movlw 239
                      01962         f@call HRSOUT
049E   3001           01963         movlw 1
                      01964         f@call HRSOUT
04A1   30FF           01965         movlw 255
                      01966         f@call HRSOUT
04A4   30FF           01967         movlw 255
                      01968         f@call HRSOUT
04A7   30FF           01969         movlw 255
                      01970         f@call HRSOUT
04AA   30FF           01971         movlw 255
                      01972         f@call HRSOUT
04AD   3001           01973         movlw 1
                      01974         f@call HRSOUT
04B0   3000           01975         movlw 0
                      01976         f@call HRSOUT
04B3   3007           01977         movlw 7
                      01978         f@call HRSOUT
04B6   300C           01979         movlw 12
                      01980         f@call HRSOUT
04B9   3000           01981         movlw 0
                      01982         f@call HRSOUT
04BC   0857           01983         movf ID_no,W
                      01984         f@call HRSOUT
04BF   3000           01985         movlw 0
                      01986         f@call HRSOUT
04C2   3001           01987         movlw 1
                      01988         f@call HRSOUT
04C5   3000           01989         movlw 0
                      01990         f@call HRSOUT
04C8   0858           01991         movf checksum,W
                      01992         f@call HRSOUT
  000004CB            01993 F3_000057 equ $ ; IN [FP_R305.INC] HSERIN[RXD[0],RXD[1],RXD[2],RXD[3],RXD[4],RXD[5],RXD[6],RXD[7],RXD[8],RXD[9],RXD[10],RXD[11]]
                      01994         f@call HRSIN
04CD   081A           01995         movf RCREG,W
04CE   00C2           01996         movwf RXD#0
                      01997         f@call HRSIN
04D1   081A           01998         movf RCREG,W
04D2   00C3           01999         movwf RXD#1
                      02000         f@call HRSIN
04D5   081A           02001         movf RCREG,W
04D6   00C4           02002         movwf RXD#2
                      02003         f@call HRSIN
04D9   081A           02004         movf RCREG,W
04DA   00C5           02005         movwf RXD#3
                      02006         f@call HRSIN
04DD   081A           02007         movf RCREG,W
04DE   00C6           02008         movwf RXD#4
                      02009         f@call HRSIN
04E1   081A           02010         movf RCREG,W
04E2   00C7           02011         movwf RXD#5
                      02012         f@call HRSIN
04E5   081A           02013         movf RCREG,W
04E6   00C8           02014         movwf RXD#6
                      02015         f@call HRSIN
04E9   081A           02016         movf RCREG,W
04EA   00C9           02017         movwf RXD#7
                      02018         f@call HRSIN
04ED   081A           02019         movf RCREG,W
04EE   00CA           02020         movwf RXD#8
                      02021         f@call HRSIN
04F1   081A           02022         movf RCREG,W
04F2   00CB           02023         movwf RXD#9
                      02024         f@call HRSIN
04F5   081A           02025         movf RCREG,W
04F6   00CC           02026         movwf RXD#10
                      02027         f@call HRSIN
04F9   081A           02028         movf RCREG,W
04FA   00CD           02029         movwf RXD#11
  000004FB            02030 F3_000058 equ $ ; IN [FP_R305.INC] if RXD[9] != 0 THEN FP_error = 1 : return
04FB   084B           02031         movf RXD#9,W
04FC   00A7           02032         movwf PBP#VAR0
04FD   08A7           02033         movf PBP#VAR0,F
                      02034         set@page BC@LL20
0500   1903           02035         btfsc STATUS,2
0501   2D04           02036         goto BC@LL20
0502   14B5           02037         bsf _B#VR1,1
0503   0008           02038         return
0504                  02039 BC@LL20
  00000504            02040 F3_000059 equ $ ; IN [FP_R305.INC] return
0504   0008           02041         return
0505                  02042 FP_Delete_ALL
  00000505            02043 F3_000062 equ $ ; IN [FP_R305.INC] FP_error = 0
0505   10B5           02044         bcf _B#VR1,1
  00000506            02045 F3_000063 equ $ ; IN [FP_R305.INC] HSEROUT[$EF, $01, $FF, $FF, $FF, $FF, $01, $00, $03, $0D, $00, $11]
0506   30EF           02046         movlw 239
                      02047         f@call HRSOUT
0509   3001           02048         movlw 1
                      02049         f@call HRSOUT
050C   30FF           02050         movlw 255
                      02051         f@call HRSOUT
050F   30FF           02052         movlw 255
                      02053         f@call HRSOUT
0512   30FF           02054         movlw 255
                      02055         f@call HRSOUT
0515   30FF           02056         movlw 255
                      02057         f@call HRSOUT
0518   3001           02058         movlw 1
                      02059         f@call HRSOUT
051B   3000           02060         movlw 0
                      02061         f@call HRSOUT
051E   3003           02062         movlw 3
                      02063         f@call HRSOUT
0521   300D           02064         movlw 13
                      02065         f@call HRSOUT
0524   3000           02066         movlw 0
                      02067         f@call HRSOUT
0527   3011           02068         movlw 17
                      02069         f@call HRSOUT
  0000052A            02070 F3_000064 equ $ ; IN [FP_R305.INC] HSERIN[RXD[0],RXD[1],RXD[2],RXD[3],RXD[4],RXD[5],RXD[6],RXD[7],RXD[8],RXD[9],RXD[10],RXD[11]]
                      02071         f@call HRSIN
052C   081A           02072         movf RCREG,W
052D   00C2           02073         movwf RXD#0
                      02074         f@call HRSIN
0530   081A           02075         movf RCREG,W
0531   00C3           02076         movwf RXD#1
                      02077         f@call HRSIN
0534   081A           02078         movf RCREG,W
0535   00C4           02079         movwf RXD#2
                      02080         f@call HRSIN
0538   081A           02081         movf RCREG,W
0539   00C5           02082         movwf RXD#3
                      02083         f@call HRSIN
053C   081A           02084         movf RCREG,W
053D   00C6           02085         movwf RXD#4
                      02086         f@call HRSIN
0540   081A           02087         movf RCREG,W
0541   00C7           02088         movwf RXD#5
                      02089         f@call HRSIN
0544   081A           02090         movf RCREG,W
0545   00C8           02091         movwf RXD#6
                      02092         f@call HRSIN
0548   081A           02093         movf RCREG,W
0549   00C9           02094         movwf RXD#7
                      02095         f@call HRSIN
054C   081A           02096         movf RCREG,W
054D   00CA           02097         movwf RXD#8
                      02098         f@call HRSIN
0550   081A           02099         movf RCREG,W
0551   00CB           02100         movwf RXD#9
                      02101         f@call HRSIN
0554   081A           02102         movf RCREG,W
0555   00CC           02103         movwf RXD#10
                      02104         f@call HRSIN
0558   081A           02105         movf RCREG,W
0559   00CD           02106         movwf RXD#11
  0000055A            02107 F3_000065 equ $ ; IN [FP_R305.INC] if RXD[9] != 0 THEN FP_error = 1 : return
055A   084B           02108         movf RXD#9,W
055B   00A7           02109         movwf PBP#VAR0
055C   08A7           02110         movf PBP#VAR0,F
                      02111         set@page BC@LL22
055F   1903           02112         btfsc STATUS,2
0560   2D63           02113         goto BC@LL22
0561   14B5           02114         bsf _B#VR1,1
0562   0008           02115         return
0563                  02116 BC@LL22
  00000563            02117 F3_000066 equ $ ; IN [FP_R305.INC] return
0563   0008           02118         return
0564                  02119 FP_total_ID
  00000564            02120 F3_000069 equ $ ; IN [FP_R305.INC] FP_error = 0
0564   10B5           02121         bcf _B#VR1,1
  00000565            02122 F3_000070 equ $ ; IN [FP_R305.INC] HSEROUT[$EF, $01, $FF, $FF, $FF, $FF, $01, $00, $03, $1D, $00, $21]
0565   30EF           02123         movlw 239
                      02124         f@call HRSOUT
0568   3001           02125         movlw 1
                      02126         f@call HRSOUT
056B   30FF           02127         movlw 255
                      02128         f@call HRSOUT
056E   30FF           02129         movlw 255
                      02130         f@call HRSOUT
0571   30FF           02131         movlw 255
                      02132         f@call HRSOUT
0574   30FF           02133         movlw 255
                      02134         f@call HRSOUT
0577   3001           02135         movlw 1
                      02136         f@call HRSOUT
057A   3000           02137         movlw 0
                      02138         f@call HRSOUT
057D   3003           02139         movlw 3
                      02140         f@call HRSOUT
0580   301D           02141         movlw 29
                      02142         f@call HRSOUT
0583   3000           02143         movlw 0
                      02144         f@call HRSOUT
0586   3021           02145         movlw 33
                      02146         f@call HRSOUT
  00000589            02147 F3_000071 equ $ ; IN [FP_R305.INC] HSERIN[RXD[0],RXD[1],RXD[2],RXD[3],RXD[4],RXD[5],RXD[6],RXD[7],RXD[8],RXD[9],RXD[10],RXD[11],RXD[12],RXD[13]]
                      02148         f@call HRSIN
058B   081A           02149         movf RCREG,W
058C   00C2           02150         movwf RXD#0
                      02151         f@call HRSIN
058F   081A           02152         movf RCREG,W
0590   00C3           02153         movwf RXD#1
                      02154         f@call HRSIN
0593   081A           02155         movf RCREG,W
0594   00C4           02156         movwf RXD#2
                      02157         f@call HRSIN
0597   081A           02158         movf RCREG,W
0598   00C5           02159         movwf RXD#3
                      02160         f@call HRSIN
059B   081A           02161         movf RCREG,W
059C   00C6           02162         movwf RXD#4
                      02163         f@call HRSIN
059F   081A           02164         movf RCREG,W
05A0   00C7           02165         movwf RXD#5
                      02166         f@call HRSIN
05A3   081A           02167         movf RCREG,W
05A4   00C8           02168         movwf RXD#6
                      02169         f@call HRSIN
05A7   081A           02170         movf RCREG,W
05A8   00C9           02171         movwf RXD#7
                      02172         f@call HRSIN
05AB   081A           02173         movf RCREG,W
05AC   00CA           02174         movwf RXD#8
                      02175         f@call HRSIN
05AF   081A           02176         movf RCREG,W
05B0   00CB           02177         movwf RXD#9
                      02178         f@call HRSIN
05B3   081A           02179         movf RCREG,W
05B4   00CC           02180         movwf RXD#10
                      02181         f@call HRSIN
05B7   081A           02182         movf RCREG,W
05B8   00CD           02183         movwf RXD#11
                      02184         f@call HRSIN
05BB   081A           02185         movf RCREG,W
05BC   00CE           02186         movwf RXD#12
                      02187         f@call HRSIN
05BF   081A           02188         movf RCREG,W
05C0   00CF           02189         movwf RXD#13
  000005C1            02190 F3_000072 equ $ ; IN [FP_R305.INC] if RXD[9] != 0 THEN FP_error = 1 : return
05C1   084B           02191         movf RXD#9,W
05C2   00A7           02192         movwf PBP#VAR0
05C3   08A7           02193         movf PBP#VAR0,F
                      02194         set@page BC@LL24
05C6   1903           02195         btfsc STATUS,2
05C7   2DCA           02196         goto BC@LL24
05C8   14B5           02197         bsf _B#VR1,1
05C9   0008           02198         return
05CA                  02199 BC@LL24
  000005CA            02200 F3_000073 equ $ ; IN [FP_R305.INC] IDs = RXD[11]
05CA   084D           02201         movf RXD#11,W
05CB   00D9           02202         movwf IDs
  000005CC            02203 F3_000074 equ $ ; IN [FP_R305.INC] return
05CC   0008           02204         return
  000005CD            02205 F3_EOF equ $ ; FP_R305.INC
  000005CD            02206 F1_000048 equ $ ; IN [HS_SYS.BAS] CLS
                      02207         f@call LCD@CLS
  000005CF            02208 F1_000049 equ $ ; IN [HS_SYS.BAS] PORTA = 0 : PORTB = 0 : PORTC = 0
05CF   0185           02209         clrf PORTA
05D0   0186           02210         clrf PORTB
05D1   0187           02211         clrf PORTC
  000005D2            02212 F1_000050 equ $ ; IN [HS_SYS.BAS] PORTD = 0 : PORTE = 0
05D2   0188           02213         clrf PORTD
05D3   0189           02214         clrf PORTE
  000005D4            02215 F1_000051 equ $ ; IN [HS_SYS.BAS] PRINT AT 2,1, "PLEASE WAIT.."
05D4   3080           02216         movlw 128
05D5   00A1           02217         movwf BPFH
05D6   30C0           02218         movlw 192
                      02219         f@call LCD@CRS
05D9   300A           02220         movlw high (STR@LB1)
05DA   00A6           02221         movwf GEN4H
05DB   3038           02222         movlw low (STR@LB1)
                      02223         f@call C@STROUT
  000005DE            02224 F1_000052 equ $ ; IN [HS_SYS.BAS] check_point = 0
05DE   1035           02225         bcf _B#VR1,0
  000005DF            02226 F1_000053 equ $ ; IN [HS_SYS.BAS] GOSUB gate_lock
                      02227         f@call gate_lock
  000005E2            02228 F1_000054 equ $ ; IN [HS_SYS.BAS] DELAYMS 10000
05E2   3027           02229         movlw 39
05E3   00AB           02230         movwf PP1H
05E4   3010           02231         movlw 16
                      02232         f@call DLY@W
  000005E7            02233 F1_000055 equ $ ; IN [HS_SYS.BAS] GOSUB FP_init
                      02234         f@call FP_init
  000005E9            02235 F1_000056 equ $ ; IN [HS_SYS.BAS] goto Home
                      02236         F@JUMP Home
  000005EC            02237 F4_SOF equ $ ; KEYPAD4X4.INC
05EC                  02238 checking
  000005EC            02239 F4_000022 equ $ ; IN [KEYPAD4X4.INC] INPUT row_1 : INPUT row_2 : INPUT row_3 : INPUT row_4
05EC   1683           02240         bsf STATUS,5
  00000001            02241 ram_bank = 1
05ED   1489           02242         bsf TRISE,1
05EE   1409           02243         bsf TRISE,0
05EF   1685           02244         bsf TRISA,5
05F0   1605           02245         bsf TRISA,4
  000005F1            02246 F4_000023 equ $ ; IN [KEYPAD4X4.INC] OUTPUT col_1 : OUTPUT col_2 : OUTPUT col_3 : OUTPUT col_4
05F1   1185           02247         bcf TRISA,3
05F2   1105           02248         bcf TRISA,2
05F3   1085           02249         bcf TRISA,1
05F4   1005           02250         bcf TRISA,0
  000005F5            02251 F4_000026 equ $ ; IN [KEYPAD4X4.INC] check_point = 1
05F5   1283           02252         bcf STATUS,5
  00000000            02253 ram_bank = 0
05F6   1435           02254         bsf _B#VR1,0
05F7                  02255 capture_key
  000005F7            02256 F4_000029 equ $ ; IN [KEYPAD4X4.INC] if check_point = 0 THEN goto checking
                      02257         set@page BC@LL26
05F9   1835           02258         btfsc _B#VR1,0
05FA   2DFD           02259         goto BC@LL26
                      02260         F@JUMP checking
05FD                  02261 BC@LL26
  000005FD            02262 F4_000030 equ $ ; IN [KEYPAD4X4.INC] key_value = 0 : key = 0
05FD   01DB           02263         clrf key_value
05FE   01DA           02264         clrf key
  000005FF            02265 F4_000031 equ $ ; IN [KEYPAD4X4.INC] REPEAT
05FF                  02266 BC@LL27
  000005FF            02267 F4_000032 equ $ ; IN [KEYPAD4X4.INC] col_1 = 1 : col_2 = 0 : col_3 = 0 : col_4 = 0
05FF   1585           02268         bsf PORTA,3
0600   1105           02269         bcf PORTA,2
0601   1085           02270         bcf PORTA,1
0602   1005           02271         bcf PORTA,0
  00000603            02272 F4_000033 equ $ ; IN [KEYPAD4X4.INC] DELAYMS 1
0603   3001           02273         movlw 1
                      02274         f@call DL@MS
  00000606            02275 F4_000034 equ $ ; IN [KEYPAD4X4.INC] if row_1 = 1 THEN
                      02276         set@page BC@LL31
0608   1C89           02277         btfss PORTE,1
0609   2E12           02278         goto BC@LL31
  0000060A            02279 F4_000035 equ $ ; IN [KEYPAD4X4.INC] key = 1 : GOSUB get_code
060A   3001           02280         movlw 1
060B   00DA           02281         movwf key
                      02282         f@call get_code
                      02283         F@JUMP BC@LL30
  00000612            02284 F4_000036 equ $ ; IN [KEYPAD4X4.INC] ELSEIF row_2 = 1 THEN
0612                  02285 BC@LL31
                      02286         set@page BC@LL32
0614   1C09           02287         btfss PORTE,0
0615   2E1E           02288         goto BC@LL32
  00000616            02289 F4_000037 equ $ ; IN [KEYPAD4X4.INC] key = 2 : GOSUB get_code
0616   3002           02290         movlw 2
0617   00DA           02291         movwf key
                      02292         f@call get_code
                      02293         F@JUMP BC@LL30
  0000061E            02294 F4_000038 equ $ ; IN [KEYPAD4X4.INC] ELSEIF row_3 = 1 THEN
061E                  02295 BC@LL32
                      02296         set@page BC@LL33
0620   1E85           02297         btfss PORTA,5
0621   2E2A           02298         goto BC@LL33
  00000622            02299 F4_000039 equ $ ; IN [KEYPAD4X4.INC] key = 3 : GOSUB get_code
0622   3003           02300         movlw 3
0623   00DA           02301         movwf key
                      02302         f@call get_code
                      02303         F@JUMP BC@LL30
  0000062A            02304 F4_000040 equ $ ; IN [KEYPAD4X4.INC] ELSEIF row_4 = 1 THEN
062A                  02305 BC@LL33
                      02306         set@page BC@LL34
062C   1E05           02307         btfss PORTA,4
062D   2E33           02308         goto BC@LL34
  0000062E            02309 F4_000041 equ $ ; IN [KEYPAD4X4.INC] key = 4 : GOSUB get_code
062E   3004           02310         movlw 4
062F   00DA           02311         movwf key
                      02312         f@call get_code
  00000633            02313 F4_000042 equ $ ; IN [KEYPAD4X4.INC] endif
0633                  02314 BC@LL34
0633                  02315 BC@LL30
  00000633            02316 F4_000043 equ $ ; IN [KEYPAD4X4.INC] col_1 = 0 : col_2 = 1 : col_3 = 0 : col_4 = 0
0633   1185           02317         bcf PORTA,3
0634   1505           02318         bsf PORTA,2
0635   1085           02319         bcf PORTA,1
0636   1005           02320         bcf PORTA,0
  00000637            02321 F4_000044 equ $ ; IN [KEYPAD4X4.INC] DELAYMS 1
0637   3001           02322         movlw 1
                      02323         f@call DL@MS
  0000063A            02324 F4_000045 equ $ ; IN [KEYPAD4X4.INC] if row_1 = 1 THEN
                      02325         set@page BC@LL36
063C   1C89           02326         btfss PORTE,1
063D   2E46           02327         goto BC@LL36
  0000063E            02328 F4_000046 equ $ ; IN [KEYPAD4X4.INC] key = 5 : GOSUB get_code
063E   3005           02329         movlw 5
063F   00DA           02330         movwf key
                      02331         f@call get_code
                      02332         F@JUMP BC@LL35
  00000646            02333 F4_000047 equ $ ; IN [KEYPAD4X4.INC] ELSEIF row_2 = 1 THEN
0646                  02334 BC@LL36
                      02335         set@page BC@LL37
0648   1C09           02336         btfss PORTE,0
0649   2E52           02337         goto BC@LL37
  0000064A            02338 F4_000048 equ $ ; IN [KEYPAD4X4.INC] key = 6 : GOSUB get_code
064A   3006           02339         movlw 6
064B   00DA           02340         movwf key
                      02341         f@call get_code
                      02342         F@JUMP BC@LL35
  00000652            02343 F4_000049 equ $ ; IN [KEYPAD4X4.INC] ELSEIF row_3 = 1 THEN
0652                  02344 BC@LL37
                      02345         set@page BC@LL38
0654   1E85           02346         btfss PORTA,5
0655   2E5E           02347         goto BC@LL38
  00000656            02348 F4_000050 equ $ ; IN [KEYPAD4X4.INC] key = 7 : GOSUB get_code
0656   3007           02349         movlw 7
0657   00DA           02350         movwf key
                      02351         f@call get_code
                      02352         F@JUMP BC@LL35
  0000065E            02353 F4_000051 equ $ ; IN [KEYPAD4X4.INC] ELSEIF row_4 = 1 THEN
065E                  02354 BC@LL38
                      02355         set@page BC@LL39
0660   1E05           02356         btfss PORTA,4
0661   2E67           02357         goto BC@LL39
  00000662            02358 F4_000052 equ $ ; IN [KEYPAD4X4.INC] key = 8 : GOSUB get_code
0662   3008           02359         movlw 8
0663   00DA           02360         movwf key
                      02361         f@call get_code
  00000667            02362 F4_000053 equ $ ; IN [KEYPAD4X4.INC] endif
0667                  02363 BC@LL39
0667                  02364 BC@LL35
  00000667            02365 F4_000054 equ $ ; IN [KEYPAD4X4.INC] col_1 = 0 : col_2 = 0 : col_3 = 1 : col_4 = 0
0667   1185           02366         bcf PORTA,3
0668   1105           02367         bcf PORTA,2
0669   1485           02368         bsf PORTA,1
066A   1005           02369         bcf PORTA,0
  0000066B            02370 F4_000055 equ $ ; IN [KEYPAD4X4.INC] DELAYMS 1
066B   3001           02371         movlw 1
                      02372         f@call DL@MS
  0000066E            02373 F4_000056 equ $ ; IN [KEYPAD4X4.INC] if row_1 = 1 THEN
                      02374         set@page BC@LL41
0670   1C89           02375         btfss PORTE,1
0671   2E7A           02376         goto BC@LL41
  00000672            02377 F4_000057 equ $ ; IN [KEYPAD4X4.INC] key = 9 : GOSUB get_code
0672   3009           02378         movlw 9
0673   00DA           02379         movwf key
                      02380         f@call get_code
                      02381         F@JUMP BC@LL40
  0000067A            02382 F4_000058 equ $ ; IN [KEYPAD4X4.INC] ELSEIF row_2 = 1 THEN
067A                  02383 BC@LL41
                      02384         set@page BC@LL42
067C   1C09           02385         btfss PORTE,0
067D   2E86           02386         goto BC@LL42
  0000067E            02387 F4_000059 equ $ ; IN [KEYPAD4X4.INC] key = 10 : GOSUB get_code
067E   300A           02388         movlw 10
067F   00DA           02389         movwf key
                      02390         f@call get_code
                      02391         F@JUMP BC@LL40
  00000686            02392 F4_000060 equ $ ; IN [KEYPAD4X4.INC] ELSEIF row_3 = 1 THEN
0686                  02393 BC@LL42
                      02394         set@page BC@LL43
0688   1E85           02395         btfss PORTA,5
0689   2E92           02396         goto BC@LL43
  0000068A            02397 F4_000061 equ $ ; IN [KEYPAD4X4.INC] key = 11 : GOSUB get_code
068A   300B           02398         movlw 11
068B   00DA           02399         movwf key
                      02400         f@call get_code
                      02401         F@JUMP BC@LL40
  00000692            02402 F4_000062 equ $ ; IN [KEYPAD4X4.INC] ELSEIF row_4 = 1 THEN
0692                  02403 BC@LL43
                      02404         set@page BC@LL44
0694   1E05           02405         btfss PORTA,4
0695   2E9B           02406         goto BC@LL44
  00000696            02407 F4_000063 equ $ ; IN [KEYPAD4X4.INC] key = 12 : GOSUB get_code
0696   300C           02408         movlw 12
0697   00DA           02409         movwf key
                      02410         f@call get_code
  0000069B            02411 F4_000064 equ $ ; IN [KEYPAD4X4.INC] endif
069B                  02412 BC@LL44
069B                  02413 BC@LL40
  0000069B            02414 F4_000065 equ $ ; IN [KEYPAD4X4.INC] col_1 = 0 : col_2 = 0 : col_3 = 0 : col_4 = 1
069B   1185           02415         bcf PORTA,3
069C   1105           02416         bcf PORTA,2
069D   1085           02417         bcf PORTA,1
069E   1405           02418         bsf PORTA,0
  0000069F            02419 F4_000066 equ $ ; IN [KEYPAD4X4.INC] DELAYMS 1
069F   3001           02420         movlw 1
                      02421         f@call DL@MS
  000006A2            02422 F4_000067 equ $ ; IN [KEYPAD4X4.INC] if row_1 = 1 THEN
                      02423         set@page BC@LL46
06A4   1C89           02424         btfss PORTE,1
06A5   2EAE           02425         goto BC@LL46
  000006A6            02426 F4_000068 equ $ ; IN [KEYPAD4X4.INC] key = 13 : GOSUB get_code
06A6   300D           02427         movlw 13
06A7   00DA           02428         movwf key
                      02429         f@call get_code
                      02430         F@JUMP BC@LL45
  000006AE            02431 F4_000069 equ $ ; IN [KEYPAD4X4.INC] ELSEIF row_2 = 1 THEN
06AE                  02432 BC@LL46
                      02433         set@page BC@LL47
06B0   1C09           02434         btfss PORTE,0
06B1   2EBA           02435         goto BC@LL47
  000006B2            02436 F4_000070 equ $ ; IN [KEYPAD4X4.INC] key = 14 : GOSUB get_code
06B2   300E           02437         movlw 14
06B3   00DA           02438         movwf key
                      02439         f@call get_code
                      02440         F@JUMP BC@LL45
  000006BA            02441 F4_000071 equ $ ; IN [KEYPAD4X4.INC] ELSEIF row_3 = 1 THEN
06BA                  02442 BC@LL47
                      02443         set@page BC@LL48
06BC   1E85           02444         btfss PORTA,5
06BD   2EC6           02445         goto BC@LL48
  000006BE            02446 F4_000072 equ $ ; IN [KEYPAD4X4.INC] key = 15 : GOSUB get_code
06BE   300F           02447         movlw 15
06BF   00DA           02448         movwf key
                      02449         f@call get_code
                      02450         F@JUMP BC@LL45
  000006C6            02451 F4_000073 equ $ ; IN [KEYPAD4X4.INC] ELSEIF row_4 = 1 THEN
06C6                  02452 BC@LL48
                      02453         set@page BC@LL49
06C8   1E05           02454         btfss PORTA,4
06C9   2ECF           02455         goto BC@LL49
  000006CA            02456 F4_000074 equ $ ; IN [KEYPAD4X4.INC] key = 16 : GOSUB get_code
06CA   3010           02457         movlw 16
06CB   00DA           02458         movwf key
                      02459         f@call get_code
  000006CF            02460 F4_000075 equ $ ; IN [KEYPAD4X4.INC] endif
06CF                  02461 BC@LL49
06CF                  02462 BC@LL45
06CF                  02463 BC@LL29
  000006CF            02464 F4_000076 equ $ ; IN [KEYPAD4X4.INC] UNTIL key != 0
06CF   08DA           02465         movf key,F
                      02466         set@page BC@LL27
06D2   1903           02467         btfsc STATUS,2
06D3   2DFF           02468         goto BC@LL27
06D4                  02469 BC@LL28
  000006D4            02470 F4_000077 equ $ ; IN [KEYPAD4X4.INC] return
06D4   0008           02471         return
06D5                  02472 get_code
  000006D5            02473 F4_000080 equ $ ; IN [KEYPAD4X4.INC] SELECT key
  000006D5            02474 F4_000081 equ $ ; IN [KEYPAD4X4.INC] CASE 0 : key_value = 0 : return
06D5   08DA           02475         movf key,F
                      02476         set@page BC@LL51
06D8   1D03           02477         btfss STATUS,2
06D9   2EDF           02478         goto BC@LL51
  00000000            02479 ram_bank = 0
06DA   01DB           02480         clrf key_value
06DB   0008           02481         return
                      02482         F@JUMP BC@LL50
06DF                  02483 BC@LL51
  000006DF            02484 F4_000082 equ $ ; IN [KEYPAD4X4.INC] CASE 1 : key_value = "1" : DELAYMS 500
06DF   3001           02485         movlw 1
06E0   025A           02486         subwf key,W
                      02487         set@page BC@LL54
06E3   1D03           02488         btfss STATUS,2
06E4   2EEF           02489         goto BC@LL54
  00000000            02490 ram_bank = 0
06E5   3031           02491         movlw 49
06E6   00DB           02492         movwf key_value
06E7   3001           02493         movlw 1
06E8   00AB           02494         movwf PP1H
06E9   30F4           02495         movlw 244
                      02496         f@call DLY@W
                      02497         F@JUMP BC@LL50
06EF                  02498 BC@LL54
  000006EF            02499 F4_000083 equ $ ; IN [KEYPAD4X4.INC] CASE 2 : key_value = "4" : DELAYMS 500
06EF   3002           02500         movlw 2
06F0   025A           02501         subwf key,W
                      02502         set@page BC@LL56
06F3   1D03           02503         btfss STATUS,2
06F4   2EFF           02504         goto BC@LL56
  00000000            02505 ram_bank = 0
06F5   3034           02506         movlw 52
06F6   00DB           02507         movwf key_value
06F7   3001           02508         movlw 1
06F8   00AB           02509         movwf PP1H
06F9   30F4           02510         movlw 244
                      02511         f@call DLY@W
                      02512         F@JUMP BC@LL50
06FF                  02513 BC@LL56
  000006FF            02514 F4_000084 equ $ ; IN [KEYPAD4X4.INC] CASE 3 : key_value = "7" : DELAYMS 500
06FF   3003           02515         movlw 3
0700   025A           02516         subwf key,W
                      02517         set@page BC@LL58
0703   1D03           02518         btfss STATUS,2
0704   2F0F           02519         goto BC@LL58
  00000000            02520 ram_bank = 0
0705   3037           02521         movlw 55
0706   00DB           02522         movwf key_value
0707   3001           02523         movlw 1
0708   00AB           02524         movwf PP1H
0709   30F4           02525         movlw 244
                      02526         f@call DLY@W
                      02527         F@JUMP BC@LL50
070F                  02528 BC@LL58
  0000070F            02529 F4_000085 equ $ ; IN [KEYPAD4X4.INC] CASE 4 : key_value = "*" : DELAYMS 500
070F   3004           02530         movlw 4
0710   025A           02531         subwf key,W
                      02532         set@page BC@LL60
0713   1D03           02533         btfss STATUS,2
0714   2F1F           02534         goto BC@LL60
  00000000            02535 ram_bank = 0
0715   302A           02536         movlw 42
0716   00DB           02537         movwf key_value
0717   3001           02538         movlw 1
0718   00AB           02539         movwf PP1H
0719   30F4           02540         movlw 244
                      02541         f@call DLY@W
                      02542         F@JUMP BC@LL50
071F                  02543 BC@LL60
  0000071F            02544 F4_000086 equ $ ; IN [KEYPAD4X4.INC] CASE 5 : key_value = "2" : DELAYMS 500
071F   3005           02545         movlw 5
0720   025A           02546         subwf key,W
                      02547         set@page BC@LL62
0723   1D03           02548         btfss STATUS,2
0724   2F2F           02549         goto BC@LL62
  00000000            02550 ram_bank = 0
0725   3032           02551         movlw 50
0726   00DB           02552         movwf key_value
0727   3001           02553         movlw 1
0728   00AB           02554         movwf PP1H
0729   30F4           02555         movlw 244
                      02556         f@call DLY@W
                      02557         F@JUMP BC@LL50
072F                  02558 BC@LL62
  0000072F            02559 F4_000087 equ $ ; IN [KEYPAD4X4.INC] CASE 6 : key_value = "5" : DELAYMS 500
072F   3006           02560         movlw 6
0730   025A           02561         subwf key,W
                      02562         set@page BC@LL64
0733   1D03           02563         btfss STATUS,2
0734   2F3F           02564         goto BC@LL64
  00000000            02565 ram_bank = 0
0735   3035           02566         movlw 53
0736   00DB           02567         movwf key_value
0737   3001           02568         movlw 1
0738   00AB           02569         movwf PP1H
0739   30F4           02570         movlw 244
                      02571         f@call DLY@W
                      02572         F@JUMP BC@LL50
073F                  02573 BC@LL64
  0000073F            02574 F4_000088 equ $ ; IN [KEYPAD4X4.INC] CASE 7 : key_value = "@" : DELAYMS 500
073F   3007           02575         movlw 7
0740   025A           02576         subwf key,W
                      02577         set@page BC@LL66
0743   1D03           02578         btfss STATUS,2
0744   2F4F           02579         goto BC@LL66
  00000000            02580 ram_bank = 0
0745   3040           02581         movlw 64
0746   00DB           02582         movwf key_value
0747   3001           02583         movlw 1
0748   00AB           02584         movwf PP1H
0749   30F4           02585         movlw 244
                      02586         f@call DLY@W
                      02587         F@JUMP BC@LL50
074F                  02588 BC@LL66
  0000074F            02589 F4_000089 equ $ ; IN [KEYPAD4X4.INC] CASE 8 : key_value = "0" : DELAYMS 500
074F   3008           02590         movlw 8
0750   025A           02591         subwf key,W
                      02592         set@page BC@LL68
0753   1D03           02593         btfss STATUS,2
0754   2F5F           02594         goto BC@LL68
  00000000            02595 ram_bank = 0
0755   3030           02596         movlw 48
0756   00DB           02597         movwf key_value
0757   3001           02598         movlw 1
0758   00AB           02599         movwf PP1H
0759   30F4           02600         movlw 244
                      02601         f@call DLY@W
                      02602         F@JUMP BC@LL50
075F                  02603 BC@LL68
  0000075F            02604 F4_000090 equ $ ; IN [KEYPAD4X4.INC] CASE 9 : key_value = "3" : DELAYMS 500
075F   3009           02605         movlw 9
0760   025A           02606         subwf key,W
                      02607         set@page BC@LL70
0763   1D03           02608         btfss STATUS,2
0764   2F6F           02609         goto BC@LL70
  00000000            02610 ram_bank = 0
0765   3033           02611         movlw 51
0766   00DB           02612         movwf key_value
0767   3001           02613         movlw 1
0768   00AB           02614         movwf PP1H
0769   30F4           02615         movlw 244
                      02616         f@call DLY@W
                      02617         F@JUMP BC@LL50
076F                  02618 BC@LL70
  0000076F            02619 F4_000091 equ $ ; IN [KEYPAD4X4.INC] CASE 10 : key_value = "6" : DELAYMS 500
076F   300A           02620         movlw 10
0770   025A           02621         subwf key,W
                      02622         set@page BC@LL72
0773   1D03           02623         btfss STATUS,2
0774   2F7F           02624         goto BC@LL72
  00000000            02625 ram_bank = 0
0775   3036           02626         movlw 54
0776   00DB           02627         movwf key_value
0777   3001           02628         movlw 1
0778   00AB           02629         movwf PP1H
0779   30F4           02630         movlw 244
                      02631         f@call DLY@W
                      02632         F@JUMP BC@LL50
077F                  02633 BC@LL72
  0000077F            02634 F4_000092 equ $ ; IN [KEYPAD4X4.INC] CASE 11 : key_value = "_" : DELAYMS 500
077F   300B           02635         movlw 11
0780   025A           02636         subwf key,W
                      02637         set@page BC@LL74
0783   1D03           02638         btfss STATUS,2
0784   2F8F           02639         goto BC@LL74
  00000000            02640 ram_bank = 0
0785   305F           02641         movlw 95
0786   00DB           02642         movwf key_value
0787   3001           02643         movlw 1
0788   00AB           02644         movwf PP1H
0789   30F4           02645         movlw 244
                      02646         f@call DLY@W
                      02647         F@JUMP BC@LL50
078F                  02648 BC@LL74
  0000078F            02649 F4_000093 equ $ ; IN [KEYPAD4X4.INC] CASE 12 : key_value = "#" : DELAYMS 500
078F   300C           02650         movlw 12
0790   025A           02651         subwf key,W
                      02652         set@page BC@LL76
0793   1D03           02653         btfss STATUS,2
0794   2F9F           02654         goto BC@LL76
  00000000            02655 ram_bank = 0
0795   3023           02656         movlw 35
0796   00DB           02657         movwf key_value
0797   3001           02658         movlw 1
0798   00AB           02659         movwf PP1H
0799   30F4           02660         movlw 244
                      02661         f@call DLY@W
                      02662         F@JUMP BC@LL50
079F                  02663 BC@LL76
  0000079F            02664 F4_000094 equ $ ; IN [KEYPAD4X4.INC] CASE 13 : key_value = "A" : DELAYMS 500
079F   300D           02665         movlw 13
07A0   025A           02666         subwf key,W
                      02667         set@page BC@LL78
07A3   1D03           02668         btfss STATUS,2
07A4   2FAF           02669         goto BC@LL78
  00000000            02670 ram_bank = 0
07A5   3041           02671         movlw 65
07A6   00DB           02672         movwf key_value
07A7   3001           02673         movlw 1
07A8   00AB           02674         movwf PP1H
07A9   30F4           02675         movlw 244
                      02676         f@call DLY@W
                      02677         F@JUMP BC@LL50
07AF                  02678 BC@LL78
  000007AF            02679 F4_000095 equ $ ; IN [KEYPAD4X4.INC] CASE 14 : key_value = "B" : DELAYMS 500
07AF   300E           02680         movlw 14
07B0   025A           02681         subwf key,W
                      02682         set@page BC@LL80
07B3   1D03           02683         btfss STATUS,2
07B4   2FBF           02684         goto BC@LL80
  00000000            02685 ram_bank = 0
07B5   3042           02686         movlw 66
07B6   00DB           02687         movwf key_value
07B7   3001           02688         movlw 1
07B8   00AB           02689         movwf PP1H
07B9   30F4           02690         movlw 244
                      02691         f@call DLY@W
                      02692         F@JUMP BC@LL50
07BF                  02693 BC@LL80
  000007BF            02694 F4_000096 equ $ ; IN [KEYPAD4X4.INC] CASE 15 : key_value = "C" : DELAYMS 500
07BF   300F           02695         movlw 15
07C0   025A           02696         subwf key,W
                      02697         set@page BC@LL82
07C3   1D03           02698         btfss STATUS,2
07C4   2FCF           02699         goto BC@LL82
  00000000            02700 ram_bank = 0
07C5   3043           02701         movlw 67
07C6   00DB           02702         movwf key_value
07C7   3001           02703         movlw 1
07C8   00AB           02704         movwf PP1H
07C9   30F4           02705         movlw 244
                      02706         f@call DLY@W
                      02707         F@JUMP BC@LL50
07CF                  02708 BC@LL82
  000007CF            02709 F4_000097 equ $ ; IN [KEYPAD4X4.INC] CASE 16 : key_value = "D" : DELAYMS 500
07CF   3010           02710         movlw 16
07D0   025A           02711         subwf key,W
                      02712         set@page BC@LL84
07D3   1D03           02713         btfss STATUS,2
07D4   2FDF           02714         goto BC@LL84
  00000000            02715 ram_bank = 0
07D5   3044           02716         movlw 68
07D6   00DB           02717         movwf key_value
07D7   3001           02718         movlw 1
07D8   00AB           02719         movwf PP1H
07D9   30F4           02720         movlw 244
                      02721         f@call DLY@W
  000007DC            02722 F4_000098 equ $ ; IN [KEYPAD4X4.INC] CASE else : key_value = 0 : return
                      02723         F@JUMP BC@LL86
07DF                  02724 BC@LL84
07DF   01DB           02725         clrf key_value
07E0   0008           02726         return
  000007E1            02727 F4_000099 equ $ ; IN [KEYPAD4X4.INC] ENDSELECT
07E1                  02728 BC@LL86
07E1                  02729 BC@LL50
  000007E1            02730 F4_000100 equ $ ; IN [KEYPAD4X4.INC] return
07E1   0008           02731         return
  000007E2            02732 F4_EOF equ $ ; KEYPAD4X4.INC
07E2                  02733 main
  000007E2            02734 F1_000061 equ $ ; IN [HS_SYS.BAS] if LDR = 0 THEN GOSUB action
                      02735         set@page BC@LL88
07E4   1987           02736         btfsc PORTC,3
07E5   2FE9           02737         goto BC@LL88
                      02738         f@call action
07E9                  02739 BC@LL88
  000007E9            02740 F1_000062 equ $ ; IN [HS_SYS.BAS] if PIR = 0 THEN GOSUB action
                      02741         set@page BC@LL90
07EB   1807           02742         btfsc PORTC,0
07EC   2FF0           02743         goto BC@LL90
                      02744         f@call action
07F0                  02745 BC@LL90
  000007F0            02746 F1_000063 equ $ ; IN [HS_SYS.BAS] if Smoke = 1 THEN GOSUB action
                      02747         set@page BC@LL92
07F2   1C87           02748         btfss PORTC,1
07F3   2FF7           02749         goto BC@LL92
                      02750         f@call action
07F7                  02751 BC@LL92
  000007F7            02752 F1_000064 equ $ ; IN [HS_SYS.BAS] if vibrator = 1 THEN INC vib_count : DELAYMS 200
                      02753         set@page BC@LL94
07F9   1F88           02754         btfss PORTD,7
07FA   2FFF           02755         goto BC@LL94
07FB   0AB7           02756         incf vib_count,F
07FC   30C8           02757         movlw 200
                      02758         f@call DL@MS
07FF                  02759 BC@LL94
  000007FF            02760 F1_000065 equ $ ; IN [HS_SYS.BAS] if vib_count = 5 THEN vib_count = 0 : GOSUB action
07FF   3005           02761         movlw 5
0800   0237           02762         subwf vib_count,W
                      02763         set@page BC@LL96
0803   1D03           02764         btfss STATUS,2
0804   2809           02765         goto BC@LL96
0805   01B7           02766         clrf vib_count
                      02767         f@call action
0809                  02768 BC@LL96
  00000809            02769 F1_000066 equ $ ; IN [HS_SYS.BAS] if passMode = 0 THEN GOSUB pass_mode
                      02770         set@page BC@LL98
080B   1808           02771         btfsc PORTD,0
080C   2810           02772         goto BC@LL98
                      02773         f@call pass_mode
0810                  02774 BC@LL98
  00000810            02775 F1_000072 equ $ ; IN [HS_SYS.BAS] goto main
                      02776         F@JUMP main
0812                  02777 Home
  00000812            02778 F1_000075 equ $ ; IN [HS_SYS.BAS] CLS
                      02779         f@call LCD@CLS
  00000814            02780 F1_000076 equ $ ; IN [HS_SYS.BAS] PRINT AT 1,1, "HOMESECURITY SYS"
0814   3080           02781         movlw 128
0815   00A1           02782         movwf BPFH
                      02783         f@call LCD@CRS
0818   300A           02784         movlw high (STR@LB2)
0819   00A6           02785         movwf GEN4H
081A   3046           02786         movlw low (STR@LB2)
                      02787         f@call C@STROUT
  0000081D            02788 F1_000077 equ $ ; IN [HS_SYS.BAS] PRINT AT 2,1, "DOOR LOCKED."
081D   3080           02789         movlw 128
081E   00A1           02790         movwf BPFH
081F   30C0           02791         movlw 192
                      02792         f@call LCD@CRS
0822   300A           02793         movlw high (STR@LB3)
0823   00A6           02794         movwf GEN4H
0824   3057           02795         movlw low (STR@LB3)
                      02796         f@call C@STROUT
  00000827            02797 F1_000078 equ $ ; IN [HS_SYS.BAS] goto main
                      02798         F@JUMP main
0829                  02799 action
  00000829            02800 F1_000081 equ $ ; IN [HS_SYS.BAS] CLS
                      02801         f@call LCD@CLS
  0000082B            02802 F1_000082 equ $ ; IN [HS_SYS.BAS] PRINT AT 1,1, "SENDING SMS.."
082B   3080           02803         movlw 128
082C   00A1           02804         movwf BPFH
                      02805         f@call LCD@CRS
082F   300A           02806         movlw high (STR@LB4)
0830   00A6           02807         movwf GEN4H
0831   3064           02808         movlw low (STR@LB4)
                      02809         f@call C@STROUT
  00000834            02810 F1_000083 equ $ ; IN [HS_SYS.BAS] buzz = 1 : B1 = 1
0834   1588           02811         bsf PORTD,3
0835   1687           02812         bsf PORTC,5
  00000836            02813 F1_000084 equ $ ; IN [HS_SYS.BAS] DELAYMS 2000
0836   3007           02814         movlw 7
0837   00AB           02815         movwf PP1H
0838   30D0           02816         movlw 208
                      02817         f@call DLY@W
  0000083B            02818 F1_000085 equ $ ; IN [HS_SYS.BAS] buzz = 0 : B1 = 0
083B   1188           02819         bcf PORTD,3
083C   1287           02820         bcf PORTC,5
  0000083D            02821 F1_000086 equ $ ; IN [HS_SYS.BAS] goto Home
                      02822         F@JUMP Home
0840                  02823 pass_mode
  00000840            02824 F1_000089 equ $ ; IN [HS_SYS.BAS] CLS
                      02825         f@call LCD@CLS
  00000842            02826 F1_000090 equ $ ; IN [HS_SYS.BAS] PRINT AT 1,1, "ENTER PASS:"
0842   3080           02827         movlw 128
0843   00A1           02828         movwf BPFH
                      02829         f@call LCD@CRS
0846   300A           02830         movlw high (STR@LB5)
0847   00A6           02831         movwf GEN4H
0848   3072           02832         movlw low (STR@LB5)
                      02833         f@call C@STROUT
  0000084B            02834 F1_000091 equ $ ; IN [HS_SYS.BAS] FOR pos = 0 TO 7
084B   01B6           02835         clrf pos
084C                  02836 FR@LB100
084C   3008           02837         movlw 8
084D   0236           02838         subwf pos,W
                      02839         set@page NX@LB101
0850   1803           02840         btfsc STATUS,0
0851   2890           02841         goto NX@LB101
  00000852            02842 F1_000092 equ $ ; IN [HS_SYS.BAS] GOSUB capture_key
                      02843         f@call capture_key
  00000854            02844 F1_000093 equ $ ; IN [HS_SYS.BAS] if key_value = "*" THEN GOSUB FP_mode
0854   302A           02845         movlw 42
0855   025B           02846         subwf key_value,W
                      02847         set@page BC@LL103
0858   1D03           02848         btfss STATUS,2
0859   285D           02849         goto BC@LL103
                      02850         f@call FP_mode
085D                  02851 BC@LL103
  0000085D            02852 F1_000094 equ $ ; IN [HS_SYS.BAS] if key_value = password[pos] THEN
085D   0836           02853         movf pos,W
085E   3E3A           02854         addlw password
085F   0084           02855         movwf FSR
0860   0800           02856         movf INDF,W
0861   00A7           02857         movwf PBP#VAR0
0862   085B           02858         movf key_value,W
0863   0227           02859         subwf PBP#VAR0,W
                      02860         set@page BC@LL105
0866   1D03           02861         btfss STATUS,2
0867   2875           02862         goto BC@LL105
  00000868            02863 F1_000095 equ $ ; IN [HS_SYS.BAS] PRINT AT 2,pos+1, "*"
0868   3080           02864         movlw 128
0869   00A1           02865         movwf BPFH
086A   3002           02866         movlw 2
086B   00A3           02867         movwf GEN
086C   0A36           02868         incf pos,W
                      02869         f@call CURSOR
086F   302A           02870         movlw 42
                      02871         f@call PRINT
                      02872         F@JUMP BC@LL106
0875                  02873 BC@LL105
  00000875            02874 F1_000096 equ $ ; IN [HS_SYS.BAS] else
  00000875            02875 F1_000097 equ $ ; IN [HS_SYS.BAS] PRINT AT 2,1, "WRONG password!"
0875   3080           02876         movlw 128
0876   00A1           02877         movwf BPFH
0877   30C0           02878         movlw 192
                      02879         f@call LCD@CRS
087A   300A           02880         movlw high (STR@LB6)
087B   00A6           02881         movwf GEN4H
087C   307E           02882         movlw low (STR@LB6)
                      02883         f@call C@STROUT
  0000087F            02884 F1_000098 equ $ ; IN [HS_SYS.BAS] DELAYMS 2000
087F   3007           02885         movlw 7
0880   00AB           02886         movwf PP1H
0881   30D0           02887         movlw 208
                      02888         f@call DLY@W
  00000884            02889 F1_000099 equ $ ; IN [HS_SYS.BAS] GOSUB action
                      02890         f@call action
  00000887            02891 F1_000100 equ $ ; IN [HS_SYS.BAS] goto Home
                      02892         F@JUMP Home
  0000088A            02893 F1_000101 equ $ ; IN [HS_SYS.BAS] endif
088A                  02894 BC@LL106
088A                  02895 CT@LB102
  0000088A            02896 F1_000102 equ $ ; IN [HS_SYS.BAS] NEXT
088A   3001           02897         movlw 1
088B   07B6           02898         addwf pos,F
                      02899         set@page FR@LB100
088E   1C03           02900         btfss STATUS,0
088F   284C           02901         goto FR@LB100
0890                  02902 NX@LB101
  00000890            02903 F1_000103 equ $ ; IN [HS_SYS.BAS] GOSUB door_active
                      02904         f@call door_active
  00000893            02905 F1_000104 equ $ ; IN [HS_SYS.BAS] goto Home
                      02906         F@JUMP Home
0896                  02907 FP_mode
  00000896            02908 F1_000107 equ $ ; IN [HS_SYS.BAS] get_ID = 0
0896   01D6           02909         clrf get_ID
  00000897            02910 F1_000108 equ $ ; IN [HS_SYS.BAS] PRINT AT 1,1, "FINGERPRINT MODE"
0897   3080           02911         movlw 128
0898   00A1           02912         movwf BPFH
                      02913         f@call LCD@CRS
089B   300A           02914         movlw high (STR@LB7)
089C   00A6           02915         movwf GEN4H
089D   308E           02916         movlw low (STR@LB7)
                      02917         f@call C@STROUT
  000008A0            02918 F1_000109 equ $ ; IN [HS_SYS.BAS] PRINT AT 2,1, "A:NEW C:GO D:DLT"
08A0   3080           02919         movlw 128
08A1   00A1           02920         movwf BPFH
08A2   30C0           02921         movlw 192
                      02922         f@call LCD@CRS
08A5   300A           02923         movlw high (STR@LB8)
08A6   00A6           02924         movwf GEN4H
08A7   309F           02925         movlw low (STR@LB8)
                      02926         f@call C@STROUT
  000008AA            02927 F1_000110 equ $ ; IN [HS_SYS.BAS] GOSUB capture_key
                      02928         f@call capture_key
  000008AC            02929 F1_000111 equ $ ; IN [HS_SYS.BAS] if key_value = "A" THEN
08AC   3041           02930         movlw 65
08AD   025B           02931         subwf key_value,W
                      02932         set@page BC@LL108
08B0   1D03           02933         btfss STATUS,2
08B1   2936           02934         goto BC@LL108
  000008B2            02935 F1_000112 equ $ ; IN [HS_SYS.BAS] CLS
                      02936         f@call LCD@CLS
  000008B4            02937 F1_000113 equ $ ; IN [HS_SYS.BAS] PRINT AT 1,1, "ENTER PASS:"
08B4   3080           02938         movlw 128
08B5   00A1           02939         movwf BPFH
                      02940         f@call LCD@CRS
08B8   300A           02941         movlw high (STR@LB9)
08B9   00A6           02942         movwf GEN4H
08BA   3072           02943         movlw low (STR@LB9)
                      02944         f@call C@STROUT
  000008BD            02945 F1_000114 equ $ ; IN [HS_SYS.BAS] FOR pos = 0 TO 7
08BD   01B6           02946         clrf pos
08BE                  02947 FR@LB110
08BE   3008           02948         movlw 8
08BF   0236           02949         subwf pos,W
                      02950         set@page NX@LB111
08C2   1803           02951         btfsc STATUS,0
08C3   28F9           02952         goto NX@LB111
  000008C4            02953 F1_000115 equ $ ; IN [HS_SYS.BAS] GOSUB capture_key
                      02954         f@call capture_key
  000008C6            02955 F1_000116 equ $ ; IN [HS_SYS.BAS] if key_value = password[pos] THEN
08C6   0836           02956         movf pos,W
08C7   3E3A           02957         addlw password
08C8   0084           02958         movwf FSR
08C9   0800           02959         movf INDF,W
08CA   00A7           02960         movwf PBP#VAR0
08CB   085B           02961         movf key_value,W
08CC   0227           02962         subwf PBP#VAR0,W
                      02963         set@page BC@LL113
08CF   1D03           02964         btfss STATUS,2
08D0   28DE           02965         goto BC@LL113
  000008D1            02966 F1_000117 equ $ ; IN [HS_SYS.BAS] PRINT AT 2,pos+1, "*"
08D1   3080           02967         movlw 128
08D2   00A1           02968         movwf BPFH
08D3   3002           02969         movlw 2
08D4   00A3           02970         movwf GEN
08D5   0A36           02971         incf pos,W
                      02972         f@call CURSOR
08D8   302A           02973         movlw 42
                      02974         f@call PRINT
                      02975         F@JUMP BC@LL114
08DE                  02976 BC@LL113
  000008DE            02977 F1_000118 equ $ ; IN [HS_SYS.BAS] else
  000008DE            02978 F1_000119 equ $ ; IN [HS_SYS.BAS] PRINT AT 2,1, "WRONG password!"
08DE   3080           02979         movlw 128
08DF   00A1           02980         movwf BPFH
08E0   30C0           02981         movlw 192
                      02982         f@call LCD@CRS
08E3   300A           02983         movlw high (STR@LB10)
08E4   00A6           02984         movwf GEN4H
08E5   307E           02985         movlw low (STR@LB10)
                      02986         f@call C@STROUT
  000008E8            02987 F1_000120 equ $ ; IN [HS_SYS.BAS] DELAYMS 2000
08E8   3007           02988         movlw 7
08E9   00AB           02989         movwf PP1H
08EA   30D0           02990         movlw 208
                      02991         f@call DLY@W
  000008ED            02992 F1_000121 equ $ ; IN [HS_SYS.BAS] GOSUB action
                      02993         f@call action
  000008F0            02994 F1_000122 equ $ ; IN [HS_SYS.BAS] goto Home
                      02995         F@JUMP Home
  000008F3            02996 F1_000123 equ $ ; IN [HS_SYS.BAS] endif
08F3                  02997 BC@LL114
08F3                  02998 CT@LB112
  000008F3            02999 F1_000124 equ $ ; IN [HS_SYS.BAS] NEXT
08F3   3001           03000         movlw 1
08F4   07B6           03001         addwf pos,F
                      03002         set@page FR@LB110
08F7   1C03           03003         btfss STATUS,0
08F8   28BE           03004         goto FR@LB110
08F9                  03005 NX@LB111
  000008F9            03006 F1_000125 equ $ ; IN [HS_SYS.BAS] ID_no = 2
08F9   3002           03007         movlw 2
08FA   00D7           03008         movwf ID_no
  000008FB            03009 F1_000126 equ $ ; IN [HS_SYS.BAS] CLS
                      03010         f@call LCD@CLS
  000008FD            03011 F1_000127 equ $ ; IN [HS_SYS.BAS] PRINT AT 1,1, "PUT UR FINGER.."
08FD   3080           03012         movlw 128
08FE   00A1           03013         movwf BPFH
                      03014         f@call LCD@CRS
0901   300A           03015         movlw high (STR@LB11)
0902   00A6           03016         movwf GEN4H
0903   30B0           03017         movlw low (STR@LB11)
                      03018         f@call C@STROUT
  00000906            03019 F1_000128 equ $ ; IN [HS_SYS.BAS] while 1 = 1
0906                  03020 BC@LL115
  00000906            03021 F1_000129 equ $ ; IN [HS_SYS.BAS] GOSUB FP_Enroll
                      03022         f@call FP_Enroll
  00000908            03023 F1_000130 equ $ ; IN [HS_SYS.BAS] if FP_error = 1 THEN
                      03024         set@page BC@LL118
090A   1CB5           03025         btfss _B#VR1,1
090B   2921           03026         goto BC@LL118
  0000090C            03027 F1_000131 equ $ ; IN [HS_SYS.BAS] PRINT AT 2,1, "error."
090C   3080           03028         movlw 128
090D   00A1           03029         movwf BPFH
090E   30C0           03030         movlw 192
                      03031         f@call LCD@CRS
0911   300A           03032         movlw high (STR@LB12)
0912   00A6           03033         movwf GEN4H
0913   30C0           03034         movlw low (STR@LB12)
                      03035         f@call C@STROUT
  00000916            03036 F1_000132 equ $ ; IN [HS_SYS.BAS] DELAYMS 1000
0916   3003           03037         movlw 3
0917   00AB           03038         movwf PP1H
0918   30E8           03039         movlw 232
                      03040         f@call DLY@W
  0000091B            03041 F1_000133 equ $ ; IN [HS_SYS.BAS] goto Home
                      03042         F@JUMP Home
                      03043         F@JUMP BC@LL119
0921                  03044 BC@LL118
  00000921            03045 F1_000134 equ $ ; IN [HS_SYS.BAS] else
  00000921            03046 F1_000135 equ $ ; IN [HS_SYS.BAS] PRINT AT 2,1, "ID ADDED."
0921   3080           03047         movlw 128
0922   00A1           03048         movwf BPFH
0923   30C0           03049         movlw 192
                      03050         f@call LCD@CRS
0926   300A           03051         movlw high (STR@LB13)
0927   00A6           03052         movwf GEN4H
0928   30C7           03053         movlw low (STR@LB13)
                      03054         f@call C@STROUT
  0000092B            03055 F1_000136 equ $ ; IN [HS_SYS.BAS] DELAYMS 1000
092B   3003           03056         movlw 3
092C   00AB           03057         movwf PP1H
092D   30E8           03058         movlw 232
                      03059         f@call DLY@W
  00000930            03060 F1_000137 equ $ ; IN [HS_SYS.BAS] goto Home
                      03061         F@JUMP Home
  00000933            03062 F1_000138 equ $ ; IN [HS_SYS.BAS] endif
0933                  03063 BC@LL119
  00000933            03064 F1_000139 equ $ ; IN [HS_SYS.BAS] WEND
                      03065         F@JUMP BC@LL115
0936                  03066 BC@LL116
  00000936            03067 F1_000140 equ $ ; IN [HS_SYS.BAS] endif
0936                  03068 BC@LL108
  00000936            03069 F1_000141 equ $ ; IN [HS_SYS.BAS] if key_value = "C" THEN
0936   3043           03070         movlw 67
0937   025B           03071         subwf key_value,W
                      03072         set@page BC@LL121
093A   1D03           03073         btfss STATUS,2
093B   2992           03074         goto BC@LL121
  0000093C            03075 F1_000142 equ $ ; IN [HS_SYS.BAS] CLS
                      03076         f@call LCD@CLS
  0000093E            03077 F1_000143 equ $ ; IN [HS_SYS.BAS] PRINT AT 1,1, "PUT UR FINGER.."
093E   3080           03078         movlw 128
093F   00A1           03079         movwf BPFH
                      03080         f@call LCD@CRS
0942   300A           03081         movlw high (STR@LB14)
0943   00A6           03082         movwf GEN4H
0944   30B0           03083         movlw low (STR@LB14)
                      03084         f@call C@STROUT
  00000947            03085 F1_000144 equ $ ; IN [HS_SYS.BAS] while 1 = 1
0947                  03086 BC@LL122
  00000947            03087 F1_000145 equ $ ; IN [HS_SYS.BAS] GOSUB FP_Search
                      03088         f@call FP_Search
  00000949            03089 F1_000146 equ $ ; IN [HS_SYS.BAS] if FP_error = 1 THEN
                      03090         set@page BC@LL125
094B   1CB5           03091         btfss _B#VR1,1
094C   2962           03092         goto BC@LL125
  0000094D            03093 F1_000147 equ $ ; IN [HS_SYS.BAS] PRINT AT 2,1, "error."
094D   3080           03094         movlw 128
094E   00A1           03095         movwf BPFH
094F   30C0           03096         movlw 192
                      03097         f@call LCD@CRS
0952   300A           03098         movlw high (STR@LB15)
0953   00A6           03099         movwf GEN4H
0954   30C0           03100         movlw low (STR@LB15)
                      03101         f@call C@STROUT
  00000957            03102 F1_000148 equ $ ; IN [HS_SYS.BAS] DELAYMS 1000
0957   3003           03103         movlw 3
0958   00AB           03104         movwf PP1H
0959   30E8           03105         movlw 232
                      03106         f@call DLY@W
  0000095C            03107 F1_000149 equ $ ; IN [HS_SYS.BAS] goto Home
                      03108         F@JUMP Home
                      03109         F@JUMP BC@LL126
0962                  03110 BC@LL125
  00000962            03111 F1_000150 equ $ ; IN [HS_SYS.BAS] else
  00000962            03112 F1_000151 equ $ ; IN [HS_SYS.BAS] if get_ID = 2 THEN
0962   3002           03113         movlw 2
0963   0256           03114         subwf get_ID,W
                      03115         set@page BC@LL128
0966   1D03           03116         btfss STATUS,2
0967   297D           03117         goto BC@LL128
  00000968            03118 F1_000152 equ $ ; IN [HS_SYS.BAS] PRINT AT 2,1, "ID MATCHED."
0968   3080           03119         movlw 128
0969   00A1           03120         movwf BPFH
096A   30C0           03121         movlw 192
                      03122         f@call LCD@CRS
096D   300A           03123         movlw high (STR@LB16)
096E   00A6           03124         movwf GEN4H
096F   30D1           03125         movlw low (STR@LB16)
                      03126         f@call C@STROUT
  00000972            03127 F1_000153 equ $ ; IN [HS_SYS.BAS] DELAYMS 1000
0972   3003           03128         movlw 3
0973   00AB           03129         movwf PP1H
0974   30E8           03130         movlw 232
                      03131         f@call DLY@W
  00000977            03132 F1_000154 equ $ ; IN [HS_SYS.BAS] GOSUB door_active
                      03133         f@call door_active
                      03134         F@JUMP BC@LL129
097D                  03135 BC@LL128
  0000097D            03136 F1_000155 equ $ ; IN [HS_SYS.BAS] else
  0000097D            03137 F1_000156 equ $ ; IN [HS_SYS.BAS] PRINT AT 2,1, "ID NOT MATCHED."
097D   3080           03138         movlw 128
097E   00A1           03139         movwf BPFH
097F   30C0           03140         movlw 192
                      03141         f@call LCD@CRS
0982   300A           03142         movlw high (STR@LB17)
0983   00A6           03143         movwf GEN4H
0984   30DD           03144         movlw low (STR@LB17)
                      03145         f@call C@STROUT
  00000987            03146 F1_000157 equ $ ; IN [HS_SYS.BAS] DELAYMS 1000
0987   3003           03147         movlw 3
0988   00AB           03148         movwf PP1H
0989   30E8           03149         movlw 232
                      03150         f@call DLY@W
  0000098C            03151 F1_000158 equ $ ; IN [HS_SYS.BAS] GOSUB action
                      03152         f@call action
  0000098F            03153 F1_000159 equ $ ; IN [HS_SYS.BAS] endif
098F                  03154 BC@LL129
  0000098F            03155 F1_000160 equ $ ; IN [HS_SYS.BAS] endif
098F                  03156 BC@LL126
  0000098F            03157 F1_000161 equ $ ; IN [HS_SYS.BAS] WEND
                      03158         F@JUMP BC@LL122
0992                  03159 BC@LL123
  00000992            03160 F1_000162 equ $ ; IN [HS_SYS.BAS] endif
0992                  03161 BC@LL121
  00000992            03162 F1_000163 equ $ ; IN [HS_SYS.BAS] if key_value = "D" THEN
0992   3044           03163         movlw 68
0993   025B           03164         subwf key_value,W
                      03165         set@page BC@LL131
0996   1D03           03166         btfss STATUS,2
0997   29AD           03167         goto BC@LL131
  00000998            03168 F1_000164 equ $ ; IN [HS_SYS.BAS] CLS
                      03169         f@call LCD@CLS
  0000099A            03170 F1_000165 equ $ ; IN [HS_SYS.BAS] PRINT AT 1,1, "DELETED."
099A   3080           03171         movlw 128
099B   00A1           03172         movwf BPFH
                      03173         f@call LCD@CRS
099E   300A           03174         movlw high (STR@LB18)
099F   00A6           03175         movwf GEN4H
09A0   30ED           03176         movlw low (STR@LB18)
                      03177         f@call C@STROUT
  000009A3            03178 F1_000166 equ $ ; IN [HS_SYS.BAS] DELAYMS 1000
09A3   3003           03179         movlw 3
09A4   00AB           03180         movwf PP1H
09A5   30E8           03181         movlw 232
                      03182         f@call DLY@W
  000009A8            03183 F1_000167 equ $ ; IN [HS_SYS.BAS] GOSUB FP_Delete_ALL
                      03184         f@call FP_Delete_ALL
  000009AA            03185 F1_000168 equ $ ; IN [HS_SYS.BAS] goto Home
                      03186         F@JUMP Home
  000009AD            03187 F1_000169 equ $ ; IN [HS_SYS.BAS] endif
09AD                  03188 BC@LL131
  000009AD            03189 F1_000170 equ $ ; IN [HS_SYS.BAS] if key_value = "B" THEN GOSUB Home
09AD   3042           03190         movlw 66
09AE   025B           03191         subwf key_value,W
                      03192         set@page BC@LL133
09B1   1D03           03193         btfss STATUS,2
09B2   29B6           03194         goto BC@LL133
                      03195         f@call Home
09B6                  03196 BC@LL133
  000009B6            03197 F1_000171 equ $ ; IN [HS_SYS.BAS] goto FP_mode
                      03198         F@JUMP FP_mode
09B9                  03199 voice_mode
  000009B9            03200 F1_000174 equ $ ; IN [HS_SYS.BAS] CLS
                      03201         f@call LCD@CLS
  000009BB            03202 F1_000175 equ $ ; IN [HS_SYS.BAS] PRINT AT 1,1, "VOICE MODE..."
09BB   3080           03203         movlw 128
09BC   00A1           03204         movwf BPFH
                      03205         f@call LCD@CRS
09BF   300A           03206         movlw high (STR@LB19)
09C0   00A6           03207         movwf GEN4H
09C1   30F6           03208         movlw low (STR@LB19)
                      03209         f@call C@STROUT
  000009C4            03210 F1_000176 equ $ ; IN [HS_SYS.BAS] PRINT AT 2,1, "SAY password..."
09C4   3080           03211         movlw 128
09C5   00A1           03212         movwf BPFH
09C6   30C0           03213         movlw 192
                      03214         f@call LCD@CRS
09C9   300B           03215         movlw high (STR@LB20)
09CA   00A6           03216         movwf GEN4H
09CB   3004           03217         movlw low (STR@LB20)
                      03218         f@call C@STROUT
  000009CE            03219 F1_000177 equ $ ; IN [HS_SYS.BAS] while A1 = 1
09CE                  03220 BC@LL134
                      03221         set@page BC@LL135
09D0   1C88           03222         btfss PORTD,1
09D1   29DC           03223         goto BC@LL135
  000009D2            03224 F1_000178 equ $ ; IN [HS_SYS.BAS] if A2 = 1 THEN GOSUB door_active
                      03225         set@page BC@LL137
09D4   1D08           03226         btfss PORTD,2
09D5   29D9           03227         goto BC@LL137
                      03228         f@call door_active
09D9                  03229 BC@LL137
  000009D9            03230 F1_000179 equ $ ; IN [HS_SYS.BAS] WEND
                      03231         F@JUMP BC@LL134
09DC                  03232 BC@LL135
  000009DC            03233 F1_000180 equ $ ; IN [HS_SYS.BAS] goto Home
                      03234         F@JUMP Home
09DF                  03235 door_active
  000009DF            03236 F1_000183 equ $ ; IN [HS_SYS.BAS] CLS
                      03237         f@call LCD@CLS
  000009E1            03238 F1_000184 equ $ ; IN [HS_SYS.BAS] PRINT AT 1,1, "DOOR OPENED."
09E1   3080           03239         movlw 128
09E2   00A1           03240         movwf BPFH
                      03241         f@call LCD@CRS
09E5   300B           03242         movlw high (STR@LB21)
09E6   00A6           03243         movwf GEN4H
09E7   3014           03244         movlw low (STR@LB21)
                      03245         f@call C@STROUT
  000009EA            03246 F1_000185 equ $ ; IN [HS_SYS.BAS] GOSUB gate_open
                      03247         f@call gate_open
  000009ED            03248 F1_000186 equ $ ; IN [HS_SYS.BAS] PRINT AT 1,1, "LOCK IN 10SEC"
09ED   3080           03249         movlw 128
09EE   00A1           03250         movwf BPFH
                      03251         f@call LCD@CRS
09F1   300B           03252         movlw high (STR@LB22)
09F2   00A6           03253         movwf GEN4H
09F3   3021           03254         movlw low (STR@LB22)
                      03255         f@call C@STROUT
  000009F6            03256 F1_000187 equ $ ; IN [HS_SYS.BAS] DELAYMS 10000
09F6   3027           03257         movlw 39
09F7   00AB           03258         movwf PP1H
09F8   3010           03259         movlw 16
                      03260         f@call DLY@W
  000009FB            03261 F1_000188 equ $ ; IN [HS_SYS.BAS] GOSUB gate_lock
                      03262         f@call gate_lock
  000009FE            03263 F1_000189 equ $ ; IN [HS_SYS.BAS] goto Home
                      03264         F@JUMP Home
0A01                  03265 gate_lock
  00000A01            03266 F1_000192 equ $ ; IN [HS_SYS.BAS] FOR pos = 0 TO 50
0A01   01B6           03267         clrf pos
0A02                  03268 FR@LB139
0A02   3033           03269         movlw 51
0A03   0236           03270         subwf pos,W
                      03271         set@page NX@LB140
0A06   1803           03272         btfsc STATUS,0
0A07   2A1A           03273         goto NX@LB140
  00000A08            03274 F1_000193 equ $ ; IN [HS_SYS.BAS] motor = 1
0A08   1509           03275         bsf PORTE,2
  00000A09            03276 F1_000194 equ $ ; IN [HS_SYS.BAS] DELAYUS 800
0A09   3003           03277         movlw 3
0A0A   00A9           03278         movwf PP0H
0A0B   3020           03279         movlw 32
                      03280         f@call DLUS@W
  00000A0E            03281 F1_000195 equ $ ; IN [HS_SYS.BAS] motor = 0
0A0E   1109           03282         bcf PORTE,2
  00000A0F            03283 F1_000196 equ $ ; IN [HS_SYS.BAS] DELAYUS 19200
0A0F   304B           03284         movlw 75
0A10   00A9           03285         movwf PP0H
0A11   3000           03286         movlw 0
                      03287         f@call DLUS@W
0A14                  03288 CT@LB141
  00000A14            03289 F1_000197 equ $ ; IN [HS_SYS.BAS] NEXT
0A14   3001           03290         movlw 1
0A15   07B6           03291         addwf pos,F
                      03292         set@page FR@LB139
0A18   1C03           03293         btfss STATUS,0
0A19   2A02           03294         goto FR@LB139
0A1A                  03295 NX@LB140
  00000A1A            03296 F1_000198 equ $ ; IN [HS_SYS.BAS] return
0A1A   0008           03297         return
0A1B                  03298 gate_open
  00000A1B            03299 F1_000201 equ $ ; IN [HS_SYS.BAS] FOR pos = 0 TO 50
0A1B   01B6           03300         clrf pos
0A1C                  03301 FR@LB142
0A1C   3033           03302         movlw 51
0A1D   0236           03303         subwf pos,W
                      03304         set@page NX@LB143
0A20   1803           03305         btfsc STATUS,0
0A21   2A34           03306         goto NX@LB143
  00000A22            03307 F1_000202 equ $ ; IN [HS_SYS.BAS] motor = 1
0A22   1509           03308         bsf PORTE,2
  00000A23            03309 F1_000203 equ $ ; IN [HS_SYS.BAS] DELAYUS 2000
0A23   3007           03310         movlw 7
0A24   00A9           03311         movwf PP0H
0A25   30D0           03312         movlw 208
                      03313         f@call DLUS@W
  00000A28            03314 F1_000204 equ $ ; IN [HS_SYS.BAS] motor = 0
0A28   1109           03315         bcf PORTE,2
  00000A29            03316 F1_000205 equ $ ; IN [HS_SYS.BAS] DELAYUS 18000
0A29   3046           03317         movlw 70
0A2A   00A9           03318         movwf PP0H
0A2B   3050           03319         movlw 80
                      03320         f@call DLUS@W
0A2E                  03321 CT@LB144
  00000A2E            03322 F1_000206 equ $ ; IN [HS_SYS.BAS] NEXT
0A2E   3001           03323         movlw 1
0A2F   07B6           03324         addwf pos,F
                      03325         set@page FR@LB142
0A32   1C03           03326         btfss STATUS,0
0A33   2A1C           03327         goto FR@LB142
0A34                  03328 NX@LB143
  00000A34            03329 F1_000207 equ $ ; IN [HS_SYS.BAS] return
0A34   0008           03330         return
  00000A35            03331 F1_EOF equ $ ; HS_SYS.BAS
0A35                  03332 PB@LB145
                      03333         F@JUMP PB@LB145
0A38                  03335 STR@LB1
0A38   0050 006C 0065 03336         de 80,108,101,97,115,101,32,119,97,105,116,46,46,0
       0061 0073 0065 
       0020 0077 0061 
       0069 0074 002E 
       002E 0000 
0A46                  03337 STR@LB2
0A46   0048 006F 006D 03338         de 72,111,109,101,83,101,99,117,114,105,116,121,32,83,89,83,0
       0065 0053 0065 
       0063 0075 0072 
       0069 0074 0079 
       0020 0053 0059 
       0053 0000 
0A57                  03339 STR@LB3
0A57   0044 006F 006F 03340         de 68,111,111,114,32,76,111,99,107,101,100,46,0
       0072 0020 004C 
       006F 0063 006B 
       0065 0064 002E 
       0000 
0A64                  03341 STR@LB4
0A64   0053 0065 006E 03342         de 83,101,110,100,105,110,103,32,83,77,83,46,46,0
       0064 0069 006E 
       0067 0020 0053 
       004D 0053 002E 
       002E 0000 
0A72                  03343 STR@LB5
0A72                  03344 STR@LB9
0A72   0045 006E 0074 03345         de 69,110,116,101,114,32,112,97,115,115,58,0
       0065 0072 0020 
       0070 0061 0073 
       0073 003A 0000 
0A7E                  03346 STR@LB6
0A7E                  03347 STR@LB10
0A7E   0057 0072 006F 03348         de 87,114,111,110,103,32,80,97,115,115,119,111,114,100,33,0
       006E 0067 0020 
       0050 0061 0073 
       0073 0077 006F 
       0072 0064 0021 
       0000 
0A8E                  03349 STR@LB7
0A8E   0046 0069 006E 03350         de 70,105,110,103,101,114,112,114,105,110,116,32,109,111,100,101,0
       0067 0065 0072 
       0070 0072 0069 
       006E 0074 0020 
       006D 006F 0064 
       0065 0000 
0A9F                  03351 STR@LB8
0A9F   0041 003A 004E 03352         de 65,58,78,101,119,32,67,58,71,79,32,68,58,68,76,84,0
       0065 0077 0020 
       0043 003A 0047 
       004F 0020 0044 
       003A 0044 004C 
       0054 0000 
0AB0                  03353 STR@LB11
0AB0                  03354 STR@LB14
0AB0   0050 0075 0074 03355         de 80,117,116,32,117,114,32,102,105,110,103,101,114,46,46,0
       0020 0075 0072 
       0020 0066 0069 
       006E 0067 0065 
       0072 002E 002E 
       0000 
0AC0                  03356 STR@LB12
0AC0                  03357 STR@LB15
0AC0   0045 0072 0072 03358         de 69,114,114,111,114,46,0
       006F 0072 002E 
       0000 
0AC7                  03359 STR@LB13
0AC7   0049 0044 0020 03360         de 73,68,32,65,100,100,101,100,46,0
       0041 0064 0064 
       0065 0064 002E 
       0000 
0AD1                  03361 STR@LB16
0AD1   0049 0044 0020 03362         de 73,68,32,77,97,116,99,104,101,100,46,0
       004D 0061 0074 
       0063 0068 0065 
       0064 002E 0000 
0ADD                  03363 STR@LB17
0ADD   0049 0044 0020 03364         de 73,68,32,110,111,116,32,77,97,116,99,104,101,100,46,0
       006E 006F 0074 
       0020 004D 0061 
       0074 0063 0068 
       0065 0064 002E 
       0000 
0AED                  03365 STR@LB18
0AED   0044 0065 006C 03366         de 68,101,108,101,116,101,100,46,0
       0065 0074 0065 
       0064 002E 0000 
0AF6                  03367 STR@LB19
0AF6   0056 006F 0069 03368         de 86,111,105,99,101,32,77,111,100,101,46,46,46,0
       0063 0065 0020 
       004D 006F 0064 
       0065 002E 002E 
       002E 0000 
0B04                  03369 STR@LB20
0B04   0053 0061 0079 03370         de 83,97,121,32,112,97,115,115,119,111,114,100,46,46,46,0
       0020 0070 0061 
       0073 0073 0077 
       006F 0072 0064 
       002E 002E 002E 
       0000 
0B14                  03371 STR@LB21
0B14   0044 006F 006F 03372         de 68,111,111,114,32,79,112,101,110,101,100,46,0
       0072 0020 004F 
       0070 0065 006E 
       0065 0064 002E 
       0000 
0B21                  03373 STR@LB22
0B21   004C 006F 0063 03374         de 76,111,99,107,32,105,110,32,49,48,83,101,99,0
       006B 0020 0069 
       006E 0020 0031 
       0030 0053 0065 
       0063 0000 
0B2F                  03375 __EOF
2007   1E3A           03376 __config FOSC_HS&WDTE_OFF&PWRTE_OFF&BOREN_OFF&LVP_OFF&CPD_ON&WRT_OFF&DEBUG_OFF&CP_ON
                      03377         end
MPASM  5.42                               A.S   6-11-2017  22:21:12         PAGE  2


SYMBOL TABLE
  LABEL                             VALUE 

A1                                PORTD,1
A2                                PORTD,2
ACKDT                             00000005
ACKEN                             00000004
ACKSTAT                           00000006
ACTION                            00000829
ADCON0                            0000001F
ADCON1                            0000009F
ADCS0                             00000006
ADCS1                             00000007
ADCS2                             00000006
ADDEN                             00000003
ADFM                              00000007
ADIE                              00000006
ADIF                              00000006
ADON                              00000000
ADRESH                            0000001E
ADRESL                            0000009E
ADRESLH                           0000001E
B1                                PORTC,5
BANK0_END                         0X7F
BANK0_START                       0X20
BANK1_END                         0X00EF
BANK1_START                       0X00A0
BANK2_END                         0X016F
BANK2_START                       0X0110
BANK3_END                         0X01EF
BANK3_START                       0X0190
BC@LL10                           000002F0
BC@LL103                          0000085D
BC@LL105                          00000875
BC@LL106                          0000088A
BC@LL108                          00000936
BC@LL113                          000008DE
BC@LL114                          000008F3
BC@LL115                          00000906
BC@LL116                          00000936
BC@LL118                          00000921
BC@LL119                          00000933
BC@LL12                           00000359
BC@LL121                          00000992
BC@LL122                          00000947
BC@LL123                          00000992
BC@LL125                          00000962
BC@LL126                          0000098F
BC@LL128                          0000097D
BC@LL129                          0000098F
BC@LL131                          000009AD
BC@LL133                          000009B6
BC@LL134                          000009CE
BC@LL135                          000009DC
BC@LL137                          000009D9
BC@LL14                           000003B8
BC@LL16                           00000418
BC@LL18                           00000494
BC@LL2                            00000176
BC@LL20                           00000504
BC@LL22                           00000563
BC@LL24                           000005CA
BC@LL26                           000005FD
BC@LL27                           000005FF
BC@LL28                           000006D4
BC@LL29                           000006CF
BC@LL30                           00000633
BC@LL31                           00000612
BC@LL32                           0000061E
BC@LL33                           0000062A
BC@LL34                           00000633
BC@LL35                           00000667
BC@LL36                           00000646
BC@LL37                           00000652
BC@LL38                           0000065E
BC@LL39                           00000667
BC@LL4                            000001D6
BC@LL40                           0000069B
BC@LL41                           0000067A
BC@LL42                           00000686
BC@LL43                           00000692
BC@LL44                           0000069B
BC@LL45                           000006CF
BC@LL46                           000006AE
BC@LL47                           000006BA
BC@LL48                           000006C6
BC@LL49                           000006CF
BC@LL50                           000007E1
BC@LL51                           000006DF
BC@LL54                           000006EF
BC@LL56                           000006FF
BC@LL58                           0000070F
BC@LL6                            00000233
BC@LL60                           0000071F
BC@LL62                           0000072F
BC@LL64                           0000073F
BC@LL66                           0000074F
BC@LL68                           0000075F
BC@LL70                           0000076F
BC@LL72                           0000077F
BC@LL74                           0000078F
BC@LL76                           0000079F
BC@LL78                           000007AF
BC@LL8                            00000293
BC@LL80                           000007BF
BC@LL82                           000007CF
BC@LL84                           000007DF
BC@LL86                           000007E1
BC@LL88                           000007E9
BC@LL90                           000007F0
BC@LL92                           000007F7
BC@LL94                           000007FF
BC@LL96                           00000809
BC@LL98                           00000810
BCLIE                             00000003
BCLIF                             00000003
BF                                00000000
BIT_BIT                           
BIT_BYTE                          
BIT_DWORD                         
BIT_WORD                          
BIT_WREG                          
BODEN_OFF                         00003FBF
BODEN_ON                          00003FFF
BOREN_OFF                         00003FBF
BOREN_ON                          00003FFF
BPF                               00000020
BPFH                              00000021
BRGH                              00000002
BT_MODE                           rd,0
BT_OK                             rd,1
BUZZ                              PORTD,3
BYTE_BIT                          
BYTE_BYTE                         
BYTE_DWORD                        
BYTE_WORD                         
BYTE_WREG                         
C                                 00000000
C1INV                             00000004
C1OUT                             00000006
C2INV                             00000005
C2OUT                             00000007
C@READ                            0000009F
C@STROUT                          0000008C
C@STROUTLP                        0000008E
C@STROUTW                         0000008D
CAPTURE_KEY                       000005F7
CCP1CON                           00000017
CCP1IE                            00000002
CCP1IF                            00000002
CCP1M0                            00000000
CCP1M1                            00000001
CCP1M2                            00000002
CCP1M3                            00000003
CCP1X                             00000005
CCP1Y                             00000004
CCP2CON                           0000001D
CCP2IE                            00000000
CCP2IF                            00000000
CCP2M0                            00000000
CCP2M1                            00000001
CCP2M2                            00000002
CCP2M3                            00000003
CCP2X                             00000005
CCP2Y                             00000004
CCPR1H                            00000016
CCPR1L                            00000015
CCPR1LH                           00000016
CCPR2H                            0000001C
CCPR2L                            0000001B
CCPR2LH                           0000001C
CH@SND                            00000087
CHECKING                          000005EC
CHECKSUM                          00000058
CHECK_POINT                       _B#VR1,0
CHS0                              00000003
CHS1                              00000004
CHS2                              00000005
CIS                               00000003
CKE                               00000006
CKP                               00000004
CL@R                              000000A9
CL@RH                             000000A8
CLS                               00000006
CM0                               00000000
CM1                               00000001
CM2                               00000002
CMCON                             0000009C
CMIE                              00000006
CMIF                              00000006
COL_1                             PORTA,3
COL_2                             PORTA,2
COL_3                             PORTA,1
COL_4                             PORTA,0
CONFIG_REQ                        1
CPD_OFF                           00003FFF
CPD_ON                            00003EFF
CP_ALL                            00001FFF
CP_OFF                            00003FFF
CP_ON                             00001FFF
CREN                              00000004
CSRC                              00000007
CSTR#CT                           00000022
CT@LB102                          0000088A
CT@LB112                          000008F3
CT@LB141                          00000A14
CT@LB144                          00000A2E
CURRENT@PAGE                      00000000
CURS@                             00000026
CURSOR                            00000010
CVR0                              00000000
CVR1                              00000001
CVR2                              00000002
CVR3                              00000003
CVRCON                            0000009D
CVREN                             00000007
CVROE                             00000006
CVRR                              00000005
DATA_ADDRESS                      00000005
DC                                00000001
DEBUG_OFF                         00003FFF
DEBUG_ON                          000037FF
DEST@PAGE                         00000000
DL@MS                             000000AF
DL@US                             000000BC
DLUS@W                            000000BD
DLY@P                             000000B1
DLY@W                             000000B0
DOOR_ACTIVE                       000009DF
DWORD_BIT                         
DWORD_BYTE                        
DWORD_DWORD                       
DWORD_WORD                        
DWORD_WREG                        
D_A                               00000005
EEADR                             0000010D
EEADRH                            0000010F
EECON1                            0000018C
EECON2                            0000018D
EEDAT                             0000010C
EEDATA                            0000010C
EEDATH                            0000010E
EEDATL                            0000010C
EEDATLH                           0000010E
EEIE                              00000004
EEIF                              00000004
EEPGD                             00000007
F1_000012                         000000DA
F1_000017                         000000DE
F1_000018                         000000E0
F1_000027                         000000E1
F1_000028                         000000E3
F1_000029                         000000E5
F1_000030                         000000E7
F1_000039                         000000E8
F1_000043                         000000FF
F1_000048                         000005CD
F1_000049                         000005CF
F1_000050                         000005D2
F1_000051                         000005D4
F1_000052                         000005DE
F1_000053                         000005DF
F1_000054                         000005E2
F1_000055                         000005E7
F1_000056                         000005E9
F1_000061                         000007E2
F1_000062                         000007E9
F1_000063                         000007F0
F1_000064                         000007F7
F1_000065                         000007FF
F1_000066                         00000809
F1_000072                         00000810
F1_000075                         00000812
F1_000076                         00000814
F1_000077                         0000081D
F1_000078                         00000827
F1_000081                         00000829
F1_000082                         0000082B
F1_000083                         00000834
F1_000084                         00000836
F1_000085                         0000083B
F1_000086                         0000083D
F1_000089                         00000840
F1_000090                         00000842
F1_000091                         0000084B
F1_000092                         00000852
F1_000093                         00000854
F1_000094                         0000085D
F1_000095                         00000868
F1_000096                         00000875
F1_000097                         00000875
F1_000098                         0000087F
F1_000099                         00000884
F1_000100                         00000887
F1_000101                         0000088A
F1_000102                         0000088A
F1_000103                         00000890
F1_000104                         00000893
F1_000107                         00000896
F1_000108                         00000897
F1_000109                         000008A0
F1_000110                         000008AA
F1_000111                         000008AC
F1_000112                         000008B2
F1_000113                         000008B4
F1_000114                         000008BD
F1_000115                         000008C4
F1_000116                         000008C6
F1_000117                         000008D1
F1_000118                         000008DE
F1_000119                         000008DE
F1_000120                         000008E8
F1_000121                         000008ED
F1_000122                         000008F0
F1_000123                         000008F3
F1_000124                         000008F3
F1_000125                         000008F9
F1_000126                         000008FB
F1_000127                         000008FD
F1_000128                         00000906
F1_000129                         00000906
F1_000130                         00000908
F1_000131                         0000090C
F1_000132                         00000916
F1_000133                         0000091B
F1_000134                         00000921
F1_000135                         00000921
F1_000136                         0000092B
F1_000137                         00000930
F1_000138                         00000933
F1_000139                         00000933
F1_000140                         00000936
F1_000141                         00000936
F1_000142                         0000093C
F1_000143                         0000093E
F1_000144                         00000947
F1_000145                         00000947
F1_000146                         00000949
F1_000147                         0000094D
F1_000148                         00000957
F1_000149                         0000095C
F1_000150                         00000962
F1_000151                         00000962
F1_000152                         00000968
F1_000153                         00000972
F1_000154                         00000977
F1_000155                         0000097D
F1_000156                         0000097D
F1_000157                         00000987
F1_000158                         0000098C
F1_000159                         0000098F
F1_000160                         0000098F
F1_000161                         0000098F
F1_000162                         00000992
F1_000163                         00000992
F1_000164                         00000998
F1_000165                         0000099A
F1_000166                         000009A3
F1_000167                         000009A8
F1_000168                         000009AA
F1_000169                         000009AD
F1_000170                         000009AD
F1_000171                         000009B6
F1_000174                         000009B9
F1_000175                         000009BB
F1_000176                         000009C4
F1_000177                         000009CE
F1_000178                         000009D2
F1_000179                         000009D9
F1_000180                         000009DC
F1_000183                         000009DF
F1_000184                         000009E1
F1_000185                         000009EA
F1_000186                         000009ED
F1_000187                         000009F6
F1_000188                         000009FB
F1_000189                         000009FE
F1_000192                         00000A01
F1_000193                         00000A08
F1_000194                         00000A09
F1_000195                         00000A0E
F1_000196                         00000A0F
F1_000197                         00000A14
F1_000198                         00000A1A
F1_000201                         00000A1B
F1_000202                         00000A22
F1_000203                         00000A23
F1_000204                         00000A28
F1_000205                         00000A29
F1_000206                         00000A2E
F1_000207                         00000A34
F1_EOF                            00000A35
F1_SOF                            000000DA
F2_EOF                            000000DA
F2_SOF                            000000DA
F3_000002                         0000010F
F3_000012                         00000112
F3_000013                         00000117
F3_000016                         00000118
F3_000017                         00000119
F3_000018                         0000013D
F3_000019                         0000016D
F3_000020                         00000176
F3_000021                         0000019D
F3_000022                         000001CD
F3_000024                         000001D6
F3_000025                         000001FA
F3_000026                         0000022A
F3_000027                         00000233
F3_000028                         0000025A
F3_000029                         0000028A
F3_000030                         00000293
F3_000031                         000002B7
F3_000032                         000002E7
F3_000033                         000002F0
F3_000034                         000002F3
F3_000035                         00000320
F3_000036                         00000350
F3_000037                         00000359
F3_000040                         0000035A
F3_000041                         0000035B
F3_000042                         0000037F
F3_000043                         000003AF
F3_000044                         000003B8
F3_000045                         000003DF
F3_000046                         0000040F
F3_000047                         00000418
F3_000048                         0000044B
F3_000049                         0000048B
F3_000050                         00000494
F3_000051                         00000496
F3_000054                         00000497
F3_000055                         00000498
F3_000056                         0000049B
F3_000057                         000004CB
F3_000058                         000004FB
F3_000059                         00000504
F3_000062                         00000505
F3_000063                         00000506
F3_000064                         0000052A
F3_000065                         0000055A
F3_000066                         00000563
F3_000069                         00000564
F3_000070                         00000565
F3_000071                         00000589
F3_000072                         000005C1
F3_000073                         000005CA
F3_000074                         000005CC
F3_EOF                            000005CD
F3_SOF                            0000010F
F4_000022                         000005EC
F4_000023                         000005F1
F4_000026                         000005F5
F4_000029                         000005F7
F4_000030                         000005FD
F4_000031                         000005FF
F4_000032                         000005FF
F4_000033                         00000603
F4_000034                         00000606
F4_000035                         0000060A
F4_000036                         00000612
F4_000037                         00000616
F4_000038                         0000061E
F4_000039                         00000622
F4_000040                         0000062A
F4_000041                         0000062E
F4_000042                         00000633
F4_000043                         00000633
F4_000044                         00000637
F4_000045                         0000063A
F4_000046                         0000063E
F4_000047                         00000646
F4_000048                         0000064A
F4_000049                         00000652
F4_000050                         00000656
F4_000051                         0000065E
F4_000052                         00000662
F4_000053                         00000667
F4_000054                         00000667
F4_000055                         0000066B
F4_000056                         0000066E
F4_000057                         00000672
F4_000058                         0000067A
F4_000059                         0000067E
F4_000060                         00000686
F4_000061                         0000068A
F4_000062                         00000692
F4_000063                         00000696
F4_000064                         0000069B
F4_000065                         0000069B
F4_000066                         0000069F
F4_000067                         000006A2
F4_000068                         000006A6
F4_000069                         000006AE
F4_000070                         000006B2
F4_000071                         000006BA
F4_000072                         000006BE
F4_000073                         000006C6
F4_000074                         000006CA
F4_000075                         000006CF
F4_000076                         000006CF
F4_000077                         000006D4
F4_000080                         000006D5
F4_000081                         000006D5
F4_000082                         000006DF
F4_000083                         000006EF
F4_000084                         000006FF
F4_000085                         0000070F
F4_000086                         0000071F
F4_000087                         0000072F
F4_000088                         0000073F
F4_000089                         0000074F
F4_000090                         0000075F
F4_000091                         0000076F
F4_000092                         0000077F
F4_000093                         0000078F
F4_000094                         0000079F
F4_000095                         000007AF
F4_000096                         000007BF
F4_000097                         000007CF
F4_000098                         000007DC
F4_000099                         000007E1
F4_000100                         000007E1
F4_EOF                            000007E2
F4_SOF                            000005EC
F@CALL                            
F@JUMP                            
FERR                              00000002
FIND@PAGE                         
FOSC_EXTRC                        00003FFF
FOSC_HS                           00003FFE
FOSC_LP                           00003FFC
FOSC_XT                           00003FFD
FP_DELETE_ALL                     00000505
FP_DELETE_ID                      00000497
FP_ENROLL                         00000118
FP_ERROR                          _B#VR1,1
FP_INIT                           00000112
FP_MODE                           00000896
FP_SEARCH                         0000035A
FP_TOTAL_ID                       00000564
FR@LB100                          0000084C
FR@LB110                          000008BE
FR@LB139                          00000A02
FR@LB142                          00000A1C
FSR                               00000004
GATE_LOCK                         00000A01
GATE_OPEN                         00000A1B
GCEN                              00000007
GEN                               00000023
GEN3H                             00000024
GEN4                              00000025
GEN4H                             00000026
GET_CODE                          000006D5
GET_ID                            00000056
GIE                               00000007
GO                                00000002
GO_DONE                           00000002
H@RSIN                            0000007F
HOME                              00000812
HRSIN                             0000007A
HRSOUT                            00000082
HSERIAL_BAUD                      0000DD7C
HSERIAL_RCSTA                     00000090
HSERIAL_SPBRG                     00000015
HSERIAL_TXSTA                     00000024
HS_OSC                            00003FFE
I2C_DATA                          00000005
I2C_READ                          00000002
I2C_START                         00000003
I2C_STOP                          00000004
I@NT                              000000CC
I@NT2                             000000CD
IBF                               00000007
IBOV                              00000005
IDS                               00000059
ID_NO                             00000057
INDF                              00000000
INTCON                            0000000B
INTE                              00000004
INTEDG                            00000006
INTF                              00000001
IRP                               00000007
JUMP                              
KEY                               0000005A
KEY_VALUE                         0000005B
LABEL_WORD                        
LCD#DTPIN                         4
LCD#DTPORT                        PORTB
LCD#ENPIN                         3
LCD#ENPORT                        PORTB
LCD#INTERFACE                     4
LCD#RSPIN                         2
LCD#RSPORT                        PORTB
LCD#TYPE                          0
LCD@CLS                           00000004
LCD@CRS                           00000024
LCD@CUR                           0000000E
LDR                               PORTC,3
LP_OSC                            00003FFC
LVP_OFF                           00003F7F
LVP_ON                            00003FFF
MAIN                              000007E2
MOTOR                             PORTE,2
NOT_A                             00000005
NOT_ADDRESS                       00000005
NOT_BO                            00000000
NOT_BOR                           00000000
NOT_DONE                          00000002
NOT_PD                            00000003
NOT_POR                           00000001
NOT_RBPU                          00000007
NOT_RC8                           00000006
NOT_T1SYNC                        00000002
NOT_TO                            00000004
NOT_TX8                           00000006
NOT_W                             00000002
NOT_WRITE                         00000002
NUM_BIT                           
NUM_BYTE                          
NUM_DWORD                         
NUM_FSR                           
NUM_WORD                          
NUM_WREG                          
NX@LB101                          00000890
NX@LB111                          000008F9
NX@LB140                          00000A1A
NX@LB143                          00000A34
OBF                               00000006
OERR                              00000001
OPTION_REG                        00000081
PASSMODE                          PORTD,0
PASSWORD                          0000003A
PASSWORD#0                        0000003A
PASSWORD#1                        0000003B
PASSWORD#2                        0000003C
PASSWORD#3                        0000003D
PASSWORD#4                        0000003E
PASSWORD#5                        0000003F
PASSWORD#6                        00000040
PASSWORD#7                        00000041
PASS_MODE                         00000840
PB@LB145                          00000A35
PBP#VAR0                          00000027
PCFG0                             00000000
PCFG1                             00000001
PCFG2                             00000002
PCFG3                             00000003
PCL                               00000002
PCLATH                            0000000A
PCON                              0000008E
PDESTINATION@PAGE                 00000000
PEIE                              00000006
PEN                               00000002
PIE1                              0000008C
PIE2                              0000008D
PIR                               PORTC,0
PIR1                              0000000C
PIR2                              0000000D
PORTA                             00000005
PORTB                             00000006
PORTC                             00000007
PORTD                             00000008
PORTE                             00000009
POS                               00000036
PP0                               00000028
PP0H                              00000029
PP1                               0000002A
PP1H                              0000002B
PP2                               0000002C
PP2H                              0000002D
PP3                               0000002E
PP3H                              0000002F
PP4                               00000030
PP5                               00000031
PP6                               00000032
PP6H                              00000033
PP7                               00000034
PP_ACKDT                          00000005
PP_ACKEN                          00000004
PP_ACKSTAT                        00000006
PP_BF                             00000000
PP_CREN                           00000004
PP_EEPGD                          00000007
PP_GO_DONE                        00000002
PP_OERR                           00000001
PP_PEN                            00000002
PP_RCEN                           00000003
PP_RCIF                           00000005
PP_RD                             00000000
PP_RSEN                           00000001
PP_R_W                            00000002
PP_SEN                            00000000
PP_T2CKPS0                        00000000
PP_T2CKPS1                        00000001
PP_TMR2ON                         00000002
PP_TXIF                           00000004
PP_WR                             00000001
PP_WREN                           00000002
PP_WRERR                          00000003
PR2                               00000092
PR@EX                             00000078
PR@LP                             00000069
PRINT                             0000002B
PRIT@SKP                          00000063
PROTON#CODE#START                 00000000
PROTON#MAIN#START                 000000D0
PRT@1                             00000055
PRT@C                             00000054
PRT@S                             00000068
PS0                               00000000
PS1                               00000001
PS2                               00000002
PSA                               00000003
PSPIE                             00000007
PSPIF                             00000007
PSPMODE                           00000004
PWRTE_OFF                         00003FFF
PWRTE_ON                          00003FF7
R@B                               
RAM_BANK                          00000000
RAM_BANKS                         4
RBIE                              00000003
RBIF                              00000000
RC8_9                             00000006
RC9                               00000006
RCD8                              00000000
RCEN                              00000003
RCIE                              00000005
RCIF                              00000005
RCREG                             0000001A
RCSTA                             00000018
RC_OSC                            00003FFF
RD                                00000039
READ_WRITE                        00000002
RECHECK                           000001D6
ROW_1                             PORTE,1
ROW_2                             PORTE,0
ROW_3                             PORTA,5
ROW_4                             PORTA,4
RP0                               00000005
RP1                               00000006
RSEN                              00000001
RX9                               00000006
RX9D                              00000000
RXD                               00000042
RXD#0                             00000042
RXD#1                             00000043
RXD#10                            0000004C
RXD#11                            0000004D
RXD#12                            0000004E
RXD#13                            0000004F
RXD#14                            00000050
RXD#15                            00000051
RXD#16                            00000052
RXD#17                            00000053
RXD#18                            00000054
RXD#19                            00000055
RXD#2                             00000044
RXD#3                             00000045
RXD#4                             00000046
RXD#5                             00000047
RXD#6                             00000048
RXD#7                             00000049
RXD#8                             0000004A
RXD#9                             0000004B
R_W                               00000002
S@B                               
SEN                               00000000
SET@PAGE                          
SMOKE                             PORTC,1
SMP                               00000007
SPBRG                             00000099
SPEN                              00000007
SREN                              00000005
SSPADD                            00000093
SSPBUF                            00000013
SSPCON                            00000014
SSPCON2                           00000091
SSPEN                             00000005
SSPIE                             00000003
SSPIF                             00000003
SSPM0                             00000000
SSPM1                             00000001
SSPM2                             00000002
SSPM3                             00000003
SSPOV                             00000006
SSPSTAT                           00000094
STATUS                            00000003
STR@LB1                           00000A38
STR@LB10                          00000A7E
STR@LB11                          00000AB0
STR@LB12                          00000AC0
STR@LB13                          00000AC7
STR@LB14                          00000AB0
STR@LB15                          00000AC0
STR@LB16                          00000AD1
STR@LB17                          00000ADD
STR@LB18                          00000AED
STR@LB19                          00000AF6
STR@LB2                           00000A46
STR@LB20                          00000B04
STR@LB21                          00000B14
STR@LB22                          00000B21
STR@LB3                           00000A57
STR@LB4                           00000A64
STR@LB5                           00000A72
STR@LB6                           00000A7E
STR@LB7                           00000A8E
STR@LB8                           00000A9F
STR@LB9                           00000A72
SYNC                              00000004
T0CS                              00000005
T0IE                              00000005
T0IF                              00000002
T0SE                              00000004
T1CKPS0                           00000004
T1CKPS1                           00000005
T1CON                             00000010
T1INSYNC                          00000002
T1OSCEN                           00000003
T1SYNC                            00000002
T2CKPS0                           00000000
T2CKPS1                           00000001
T2CON                             00000012
TD                                00000038
TMR0                              00000001
TMR0IE                            00000005
TMR0IF                            00000002
TMR1CS                            00000001
TMR1H                             0000000F
TMR1IE                            00000000
TMR1IF                            00000000
TMR1L                             0000000E
TMR1LH                            0000000F
TMR1ON                            00000000
TMR2                              00000011
TMR2IE                            00000001
TMR2IF                            00000001
TMR2ON                            00000002
TOUTPS0                           00000003
TOUTPS1                           00000004
TOUTPS2                           00000005
TOUTPS3                           00000006
TRISA                             00000085
TRISB                             00000086
TRISC                             00000087
TRISD                             00000088
TRISE                             00000089
TRISE0                            00000000
TRISE1                            00000001
TRISE2                            00000002
TRMT                              00000001
TX8_9                             00000006
TX9                               00000006
TX9D                              00000000
TXD8                              00000000
TXEN                              00000005
TXIE                              00000004
TXIF                              00000004
TXREG                             00000019
TXSTA                             00000098
UA                                00000001
VIBRATOR                          PORTD,7
VIB_COUNT                         00000037
VOICE_MODE                        000009B9
WCOL                              00000007
WDTE_OFF                          00003FFB
WDTE_ON                           00003FFF
WDT_OFF                           00003FFB
WDT_ON                            00003FFF
WORD_BIT                          
WORD_BYTE                         
WORD_DWORD                        
WORD_WORD                         
WORD_WREG                         
WR                                00000001
WREG_BIT                          
WREG_BYTE                         
WREG_DWORD                        
WREG_WORD                         
WREN                              00000002
WRERR                             00000003
WRT_1FOURTH                       00003BFF
WRT_256                           00003DFF
WRT_HALF                          000039FF
WRT_OFF                           00003FFF
XTAL                              20
XT_OSC                            00003FFD
Z                                 00000002
_ADC                              8
_ADC_RES                          10
_B#VR1                            00000035
_BANKS                            3
_CORE                             14
_CWRITE_BLOCK                     8
_EEPROM                           256
_FLASH                            1
_I2C_SCL_PIN                      00000003
_I2C_SCL_PORT                     00000087
_I2C_SDA_PIN                      00000004
_I2C_SDA_PORT                     00000087
_MAXMEM                           8192
_MAXRAM                           368
_PAGES                            4
_RAM_END                          0X0170
_SYSTEM_VARIABLE_COUNT            21
_USART                            1
_USB                              0
__16F877A                         1
__EOF                             00000B2F
__HSERIAL_BAUD                    56700
__HSERIAL_RCSTA                   144
__HSERIAL_TXSTA                   36
__LCD_DTPIN                       4
__LCD_DTPORT                      PORTB
__LCD_ENPIN                       3
__LCD_ENPORT                      PORTB
__LCD_INTERFACE                   4
__LCD_RSPIN                       2
__LCD_RSPORT                      PORTB
__XTAL                            20


MEMORY USAGE MAP ('X' = USED,  '-' = UNUSED)

0000 : XXXXXXXXXXXXXXXX XXXXXXXXXXXXXXXX XXXXXXXXXXXXXXXX XXXXXXXXXXXXXXXX
0040 : XXXXXXXXXXXXXXXX XXXXXXXXXXXXXXXX XXXXXXXXXXXXXXXX XXXXXXXXXXXXXXXX
0080 : XXXXXXXXXXXXXXXX XXXXXXXXXXXXXXXX XXXXXXXXXXXXXXXX XXXXXXXXXXXXXXXX
00C0 : XXXXXXXXXXXXXXXX XXXXXXXXXXXXXXXX XXXXXXXXXXXXXXXX XXXXXXXXXXXXXXXX
0100 : XXXXXXXXXXXXXXXX XXXXXXXXXXXXXXXX XXXXXXXXXXXXXXXX XXXXXXXXXXXXXXXX
0140 : XXXXXXXXXXXXXXXX XXXXXXXXXXXXXXXX XXXXXXXXXXXXXXXX XXXXXXXXXXXXXXXX
0180 : XXXXXXXXXXXXXXXX XXXXXXXXXXXXXXXX XXXXXXXXXXXXXXXX XXXXXXXXXXXXXXXX
01C0 : XXXXXXXXXXXXXXXX XXXXXXXXXXXXXXXX XXXXXXXXXXXXXXXX XXXXXXXXXXXXXXXX
0200 : XXXXXXXXXXXXXXXX XXXXXXXXXXXXXXXX XXXXXXXXXXXXXXXX XXXXXXXXXXXXXXXX
0240 : XXXXXXXXXXXXXXXX XXXXXXXXXXXXXXXX XXXXXXXXXXXXXXXX XXXXXXXXXXXXXXXX
0280 : XXXXXXXXXXXXXXXX XXXXXXXXXXXXXXXX XXXXXXXXXXXXXXXX XXXXXXXXXXXXXXXX
02C0 : XXXXXXXXXXXXXXXX XXXXXXXXXXXXXXXX XXXXXXXXXXXXXXXX XXXXXXXXXXXXXXXX
0300 : XXXXXXXXXXXXXXXX XXXXXXXXXXXXXXXX XXXXXXXXXXXXXXXX XXXXXXXXXXXXXXXX
0340 : XXXXXXXXXXXXXXXX XXXXXXXXXXXXXXXX XXXXXXXXXXXXXXXX XXXXXXXXXXXXXXXX
0380 : XXXXXXXXXXXXXXXX XXXXXXXXXXXXXXXX XXXXXXXXXXXXXXXX XXXXXXXXXXXXXXXX
03C0 : XXXXXXXXXXXXXXXX XXXXXXXXXXXXXXXX XXXXXXXXXXXXXXXX XXXXXXXXXXXXXXXX
0400 : XXXXXXXXXXXXXXXX XXXXXXXXXXXXXXXX XXXXXXXXXXXXXXXX XXXXXXXXXXXXXXXX
0440 : XXXXXXXXXXXXXXXX XXXXXXXXXXXXXXXX XXXXXXXXXXXXXXXX XXXXXXXXXXXXXXXX
0480 : XXXXXXXXXXXXXXXX XXXXXXXXXXXXXXXX XXXXXXXXXXXXXXXX XXXXXXXXXXXXXXXX
04C0 : XXXXXXXXXXXXXXXX XXXXXXXXXXXXXXXX XXXXXXXXXXXXXXXX XXXXXXXXXXXXXXXX
0500 : XXXXXXXXXXXXXXXX XXXXXXXXXXXXXXXX XXXXXXXXXXXXXXXX XXXXXXXXXXXXXXXX
0540 : XXXXXXXXXXXXXXXX XXXXXXXXXXXXXXXX XXXXXXXXXXXXXXXX XXXXXXXXXXXXXXXX
0580 : XXXXXXXXXXXXXXXX XXXXXXXXXXXXXXXX XXXXXXXXXXXXXXXX XXXXXXXXXXXXXXXX
05C0 : XXXXXXXXXXXXXXXX XXXXXXXXXXXXXXXX XXXXXXXXXXXXXXXX XXXXXXXXXXXXXXXX
0600 : XXXXXXXXXXXXXXXX XXXXXXXXXXXXXXXX XXXXXXXXXXXXXXXX XXXXXXXXXXXXXXXX
0640 : XXXXXXXXXXXXXXXX XXXXXXXXXXXXXXXX XXXXXXXXXXXXXXXX XXXXXXXXXXXXXXXX
0680 : XXXXXXXXXXXXXXXX XXXXXXXXXXXXXXXX XXXXXXXXXXXXXXXX XXXXXXXXXXXXXXXX
06C0 : XXXXXXXXXXXXXXXX XXXXXXXXXXXXXXXX XXXXXXXXXXXXXXXX XXXXXXXXXXXXXXXX
0700 : XXXXXXXXXXXXXXXX XXXXXXXXXXXXXXXX XXXXXXXXXXXXXXXX XXXXXXXXXXXXXXXX
0740 : XXXXXXXXXXXXXXXX XXXXXXXXXXXXXXXX XXXXXXXXXXXXXXXX XXXXXXXXXXXXXXXX
0780 : XXXXXXXXXXXXXXXX XXXXXXXXXXXXXXXX XXXXXXXXXXXXXXXX XXXXXXXXXXXXXXXX
07C0 : XXXXXXXXXXXXXXXX XXXXXXXXXXXXXXXX XXXXXXXXXXXXXXXX XXXXXXXXXXXXXXXX
0800 : XXXXXXXXXXXXXXXX XXXXXXXXXXXXXXXX XXXXXXXXXXXXXXXX XXXXXXXXXXXXXXXX
0840 : XXXXXXXXXXXXXXXX XXXXXXXXXXXXXXXX XXXXXXXXXXXXXXXX XXXXXXXXXXXXXXXX
0880 : XXXXXXXXXXXXXXXX XXXXXXXXXXXXXXXX XXXXXXXXXXXXXXXX XXXXXXXXXXXXXXXX
08C0 : XXXXXXXXXXXXXXXX XXXXXXXXXXXXXXXX XXXXXXXXXXXXXXXX XXXXXXXXXXXXXXXX
0900 : XXXXXXXXXXXXXXXX XXXXXXXXXXXXXXXX XXXXXXXXXXXXXXXX XXXXXXXXXXXXXXXX
0940 : XXXXXXXXXXXXXXXX XXXXXXXXXXXXXXXX XXXXXXXXXXXXXXXX XXXXXXXXXXXXXXXX
0980 : XXXXXXXXXXXXXXXX XXXXXXXXXXXXXXXX XXXXXXXXXXXXXXXX XXXXXXXXXXXXXXXX
09C0 : XXXXXXXXXXXXXXXX XXXXXXXXXXXXXXXX XXXXXXXXXXXXXXXX XXXXXXXXXXXXXXXX
0A00 : XXXXXXXXXXXXXXXX XXXXXXXXXXXXXXXX XXXXXXXXXXXXXXXX XXXXXXXXXXXXXXXX
0A40 : XXXXXXXXXXXXXXXX XXXXXXXXXXXXXXXX XXXXXXXXXXXXXXXX XXXXXXXXXXXXXXXX
0A80 : XXXXXXXXXXXXXXXX XXXXXXXXXXXXXXXX XXXXXXXXXXXXXXXX XXXXXXXXXXXXXXXX
0AC0 : XXXXXXXXXXXXXXXX XXXXXXXXXXXXXXXX XXXXXXXXXXXXXXXX XXXXXXXXXXXXXXXX
0B00 : XXXXXXXXXXXXXXXX XXXXXXXXXXXXXXXX XXXXXXXXXXXXXXX- ----------------
2000 : -------X-------- ---------------- ---------------- ----------------

ALL OTHER MEMORY BLOCKS UNUSED.

PROGRAM MEMORY WORDS USED:  2863
PROGRAM MEMORY WORDS FREE:  5329


ERRORS   :     0
WARNINGS :     0 REPORTED,  3544 SUPPRESSED
MESSAGES :     1 REPORTED,   111 SUPPRESSED


